ARM GAS  /tmp/ccriZ1yi.s 			page 1


   1              		.cpu cortex-m3
   2              		.arch armv7-m
   3              		.fpu softvfp
   4              		.eabi_attribute 20, 1
   5              		.eabi_attribute 21, 1
   6              		.eabi_attribute 23, 3
   7              		.eabi_attribute 24, 1
   8              		.eabi_attribute 25, 1
   9              		.eabi_attribute 26, 1
  10              		.eabi_attribute 30, 1
  11              		.eabi_attribute 34, 1
  12              		.eabi_attribute 18, 4
  13              		.file	"max30102.c"
  14              		.text
  15              	.Ltext0:
  16              		.cfi_sections	.debug_frame
  17              		.file 1 "./.ccls_cache/home/carver/Documents/stm32_with_linux/medical/Libraries/src/max30102.c"
  18              		.section	.text.MAX30102_IIC_SDA_OUT,"ax",%progbits
  19              		.align	1
  20              		.global	MAX30102_IIC_SDA_OUT
  21              		.syntax unified
  22              		.thumb
  23              		.thumb_func
  25              	MAX30102_IIC_SDA_OUT:
  26              	.LFB41:
   1:./.ccls_cache/home/carver/Documents/stm32_with_linux/medical/Libraries/src/max30102.c **** #include "max30102.h"
   2:./.ccls_cache/home/carver/Documents/stm32_with_linux/medical/Libraries/src/max30102.c **** #include "delay.h"
   3:./.ccls_cache/home/carver/Documents/stm32_with_linux/medical/Libraries/src/max30102.c **** 
   4:./.ccls_cache/home/carver/Documents/stm32_with_linux/medical/Libraries/src/max30102.c **** u8 max30102_Bus_Write(u8 Register_Address, u8 Word_Data) {
   5:./.ccls_cache/home/carver/Documents/stm32_with_linux/medical/Libraries/src/max30102.c **** 
   6:./.ccls_cache/home/carver/Documents/stm32_with_linux/medical/Libraries/src/max30102.c ****   /* é‡‡ç”¨ä¸²è¡ŒEEPROMéšå³è¯»å–æŒ‡ä»¤åºåˆ—ï¼Œè¿ç»­è¯»å–è‹¥å¹²å­—èŠ‚ */
   7:./.ccls_cache/home/carver/Documents/stm32_with_linux/medical/Libraries/src/max30102.c **** 
   8:./.ccls_cache/home/carver/Documents/stm32_with_linux/medical/Libraries/src/max30102.c ****   /* ç¬¬1æ­¥ï¼šå‘èµ·I2Cæ€»çº¿å¯åŠ¨ä¿¡å· */
   9:./.ccls_cache/home/carver/Documents/stm32_with_linux/medical/Libraries/src/max30102.c ****   MAX30102_IIC_Start();
  10:./.ccls_cache/home/carver/Documents/stm32_with_linux/medical/Libraries/src/max30102.c **** 
  11:./.ccls_cache/home/carver/Documents/stm32_with_linux/medical/Libraries/src/max30102.c ****   /* ç¬¬2æ­¥ï¼šå‘èµ·æ§åˆ¶å­—èŠ‚ï¼Œé«˜7bitæ˜¯åœ°å€ï¼Œbit0æ˜¯è¯»å†™æ§åˆ¶ä½ï¼Œ0è¡¨ç¤ºå†™ï¼Œ1è¡¨ç¤
  12:./.ccls_cache/home/carver/Documents/stm32_with_linux/medical/Libraries/src/max30102.c ****   MAX30102_IIC_Send_Byte(max30102_WR_address | I2C_WR); /* æ­¤å¤„æ˜¯å†™æŒ‡ä»¤ */
  13:./.ccls_cache/home/carver/Documents/stm32_with_linux/medical/Libraries/src/max30102.c **** 
  14:./.ccls_cache/home/carver/Documents/stm32_with_linux/medical/Libraries/src/max30102.c ****   /* ç¬¬3æ­¥ï¼šå‘é€ACK */
  15:./.ccls_cache/home/carver/Documents/stm32_with_linux/medical/Libraries/src/max30102.c ****   if (MAX30102_IIC_Wait_Ack() != 0) {
  16:./.ccls_cache/home/carver/Documents/stm32_with_linux/medical/Libraries/src/max30102.c ****     goto cmd_fail; /* EEPROMå™¨ä»¶æ— åº”ç­” */
  17:./.ccls_cache/home/carver/Documents/stm32_with_linux/medical/Libraries/src/max30102.c ****   }
  18:./.ccls_cache/home/carver/Documents/stm32_with_linux/medical/Libraries/src/max30102.c **** 
  19:./.ccls_cache/home/carver/Documents/stm32_with_linux/medical/Libraries/src/max30102.c ****   /* ç¬¬4æ­¥ï¼šå‘é€å­—èŠ‚åœ°å€ */
  20:./.ccls_cache/home/carver/Documents/stm32_with_linux/medical/Libraries/src/max30102.c ****   MAX30102_IIC_Send_Byte(Register_Address);
  21:./.ccls_cache/home/carver/Documents/stm32_with_linux/medical/Libraries/src/max30102.c ****   if (MAX30102_IIC_Wait_Ack() != 0) {
  22:./.ccls_cache/home/carver/Documents/stm32_with_linux/medical/Libraries/src/max30102.c ****     goto cmd_fail; /* EEPROMå™¨ä»¶æ— åº”ç­” */
  23:./.ccls_cache/home/carver/Documents/stm32_with_linux/medical/Libraries/src/max30102.c ****   }
  24:./.ccls_cache/home/carver/Documents/stm32_with_linux/medical/Libraries/src/max30102.c **** 
  25:./.ccls_cache/home/carver/Documents/stm32_with_linux/medical/Libraries/src/max30102.c ****   /* ç¬¬5æ­¥ï¼šå¼€å§‹å†™å…¥æ•°æ® */
  26:./.ccls_cache/home/carver/Documents/stm32_with_linux/medical/Libraries/src/max30102.c ****   MAX30102_IIC_Send_Byte(Word_Data);
  27:./.ccls_cache/home/carver/Documents/stm32_with_linux/medical/Libraries/src/max30102.c **** 
  28:./.ccls_cache/home/carver/Documents/stm32_with_linux/medical/Libraries/src/max30102.c ****   /* ç¬¬6æ­¥ï¼šå‘é€ACK */
  29:./.ccls_cache/home/carver/Documents/stm32_with_linux/medical/Libraries/src/max30102.c ****   if (MAX30102_IIC_Wait_Ack() != 0) {
  30:./.ccls_cache/home/carver/Documents/stm32_with_linux/medical/Libraries/src/max30102.c ****     goto cmd_fail; /* EEPROMå™¨ä»¶æ— åº”ç­” */
  31:./.ccls_cache/home/carver/Documents/stm32_with_linux/medical/Libraries/src/max30102.c ****   }
  32:./.ccls_cache/home/carver/Documents/stm32_with_linux/medical/Libraries/src/max30102.c **** 
ARM GAS  /tmp/ccriZ1yi.s 			page 2


  33:./.ccls_cache/home/carver/Documents/stm32_with_linux/medical/Libraries/src/max30102.c ****   /* å‘é€I2Cæ€»çº¿åœæ­¢ä¿¡å· */
  34:./.ccls_cache/home/carver/Documents/stm32_with_linux/medical/Libraries/src/max30102.c ****   MAX30102_IIC_Stop();
  35:./.ccls_cache/home/carver/Documents/stm32_with_linux/medical/Libraries/src/max30102.c ****   return 1; /* æ‰§è¡ŒæˆåŠŸ */
  36:./.ccls_cache/home/carver/Documents/stm32_with_linux/medical/Libraries/src/max30102.c **** 
  37:./.ccls_cache/home/carver/Documents/stm32_with_linux/medical/Libraries/src/max30102.c **** cmd_fail: /* å‘½ä»¤æ‰§è¡Œå¤±è´¥åï¼Œåˆ‡è®°å‘é€åœæ­¢ä¿¡å·ï¼Œé¿å…å½±å“I2Cæ€»çº¿ä¸Šå…¶ä»–è®¾å¤
  38:./.ccls_cache/home/carver/Documents/stm32_with_linux/medical/Libraries/src/max30102.c ****   /* å‘é€I2Cæ€»çº¿åœæ­¢ä¿¡å· */
  39:./.ccls_cache/home/carver/Documents/stm32_with_linux/medical/Libraries/src/max30102.c ****   MAX30102_IIC_Stop();
  40:./.ccls_cache/home/carver/Documents/stm32_with_linux/medical/Libraries/src/max30102.c ****   return 0;
  41:./.ccls_cache/home/carver/Documents/stm32_with_linux/medical/Libraries/src/max30102.c **** }
  42:./.ccls_cache/home/carver/Documents/stm32_with_linux/medical/Libraries/src/max30102.c **** 
  43:./.ccls_cache/home/carver/Documents/stm32_with_linux/medical/Libraries/src/max30102.c **** u8 max30102_Bus_Read(u8 Register_Address) {
  44:./.ccls_cache/home/carver/Documents/stm32_with_linux/medical/Libraries/src/max30102.c ****   u8 data;
  45:./.ccls_cache/home/carver/Documents/stm32_with_linux/medical/Libraries/src/max30102.c **** 
  46:./.ccls_cache/home/carver/Documents/stm32_with_linux/medical/Libraries/src/max30102.c ****   /* ç¬¬1æ­¥ï¼šå‘èµ·I2Cæ€»çº¿å¯åŠ¨ä¿¡å· */
  47:./.ccls_cache/home/carver/Documents/stm32_with_linux/medical/Libraries/src/max30102.c ****   MAX30102_IIC_Start();
  48:./.ccls_cache/home/carver/Documents/stm32_with_linux/medical/Libraries/src/max30102.c **** 
  49:./.ccls_cache/home/carver/Documents/stm32_with_linux/medical/Libraries/src/max30102.c ****   /* ç¬¬2æ­¥ï¼šå‘èµ·æ§åˆ¶å­—èŠ‚ï¼Œé«˜7bitæ˜¯åœ°å€ï¼Œbit0æ˜¯è¯»å†™æ§åˆ¶ä½ï¼Œ0è¡¨ç¤ºå†™ï¼Œ1è¡¨ç¤
  50:./.ccls_cache/home/carver/Documents/stm32_with_linux/medical/Libraries/src/max30102.c ****   MAX30102_IIC_Send_Byte(max30102_WR_address | I2C_WR); /* æ­¤å¤„æ˜¯å†™æŒ‡ä»¤ */
  51:./.ccls_cache/home/carver/Documents/stm32_with_linux/medical/Libraries/src/max30102.c **** 
  52:./.ccls_cache/home/carver/Documents/stm32_with_linux/medical/Libraries/src/max30102.c ****   /* ç¬¬3æ­¥ï¼šå‘é€ACK */
  53:./.ccls_cache/home/carver/Documents/stm32_with_linux/medical/Libraries/src/max30102.c ****   if (MAX30102_IIC_Wait_Ack() != 0) {
  54:./.ccls_cache/home/carver/Documents/stm32_with_linux/medical/Libraries/src/max30102.c ****     goto cmd_fail; /* EEPROMå™¨ä»¶æ— åº”ç­” */
  55:./.ccls_cache/home/carver/Documents/stm32_with_linux/medical/Libraries/src/max30102.c ****   }
  56:./.ccls_cache/home/carver/Documents/stm32_with_linux/medical/Libraries/src/max30102.c **** 
  57:./.ccls_cache/home/carver/Documents/stm32_with_linux/medical/Libraries/src/max30102.c ****   /* ç¬¬4æ­¥ï¼šå‘é€å­—èŠ‚åœ°å€ï¼Œ */
  58:./.ccls_cache/home/carver/Documents/stm32_with_linux/medical/Libraries/src/max30102.c ****   MAX30102_IIC_Send_Byte((uint8_t)Register_Address);
  59:./.ccls_cache/home/carver/Documents/stm32_with_linux/medical/Libraries/src/max30102.c ****   if (MAX30102_IIC_Wait_Ack() != 0) {
  60:./.ccls_cache/home/carver/Documents/stm32_with_linux/medical/Libraries/src/max30102.c ****     goto cmd_fail; /* EEPROMå™¨ä»¶æ— åº”ç­” */
  61:./.ccls_cache/home/carver/Documents/stm32_with_linux/medical/Libraries/src/max30102.c ****   }
  62:./.ccls_cache/home/carver/Documents/stm32_with_linux/medical/Libraries/src/max30102.c **** 
  63:./.ccls_cache/home/carver/Documents/stm32_with_linux/medical/Libraries/src/max30102.c ****   /* ç¬¬6æ­¥ï¼šé‡æ–°å¯åŠ¨I2Cæ€»çº¿ã€‚ä¸‹é¢å¼€å§‹è¯»å–æ•°æ® */
  64:./.ccls_cache/home/carver/Documents/stm32_with_linux/medical/Libraries/src/max30102.c ****   MAX30102_IIC_Start();
  65:./.ccls_cache/home/carver/Documents/stm32_with_linux/medical/Libraries/src/max30102.c **** 
  66:./.ccls_cache/home/carver/Documents/stm32_with_linux/medical/Libraries/src/max30102.c ****   /* ç¬¬7æ­¥ï¼šå‘èµ·æ§åˆ¶å­—èŠ‚ï¼Œé«˜7bitæ˜¯åœ°å€ï¼Œbit0æ˜¯è¯»å†™æ§åˆ¶ä½ï¼Œ0è¡¨ç¤ºå†™ï¼Œ1è¡¨ç¤
  67:./.ccls_cache/home/carver/Documents/stm32_with_linux/medical/Libraries/src/max30102.c ****   MAX30102_IIC_Send_Byte(max30102_WR_address | I2C_RD); /* æ­¤å¤„æ˜¯è¯»æŒ‡ä»¤ */
  68:./.ccls_cache/home/carver/Documents/stm32_with_linux/medical/Libraries/src/max30102.c **** 
  69:./.ccls_cache/home/carver/Documents/stm32_with_linux/medical/Libraries/src/max30102.c ****   /* ç¬¬8æ­¥ï¼šå‘é€ACK */
  70:./.ccls_cache/home/carver/Documents/stm32_with_linux/medical/Libraries/src/max30102.c ****   if (MAX30102_IIC_Wait_Ack() != 0) {
  71:./.ccls_cache/home/carver/Documents/stm32_with_linux/medical/Libraries/src/max30102.c ****     goto cmd_fail; /* EEPROMå™¨ä»¶æ— åº”ç­” */
  72:./.ccls_cache/home/carver/Documents/stm32_with_linux/medical/Libraries/src/max30102.c ****   }
  73:./.ccls_cache/home/carver/Documents/stm32_with_linux/medical/Libraries/src/max30102.c **** 
  74:./.ccls_cache/home/carver/Documents/stm32_with_linux/medical/Libraries/src/max30102.c ****   /* ç¬¬9æ­¥ï¼šè¯»å–æ•°æ® */
  75:./.ccls_cache/home/carver/Documents/stm32_with_linux/medical/Libraries/src/max30102.c ****   {
  76:./.ccls_cache/home/carver/Documents/stm32_with_linux/medical/Libraries/src/max30102.c ****     data = MAX30102_IIC_Read_Byte(0); /* è¯»1ä¸ªå­—èŠ‚ */
  77:./.ccls_cache/home/carver/Documents/stm32_with_linux/medical/Libraries/src/max30102.c **** 
  78:./.ccls_cache/home/carver/Documents/stm32_with_linux/medical/Libraries/src/max30102.c ****     MAX30102_IIC_NAck(); /* æœ€å1ä¸ªå­—èŠ‚è¯»å®Œåï¼ŒCPUäº§ç”ŸNACKä¿¡å·(é©±åŠ¨SDA = 1) */
  79:./.ccls_cache/home/carver/Documents/stm32_with_linux/medical/Libraries/src/max30102.c ****   }
  80:./.ccls_cache/home/carver/Documents/stm32_with_linux/medical/Libraries/src/max30102.c ****   /* å‘é€I2Cæ€»çº¿åœæ­¢ä¿¡å· */
  81:./.ccls_cache/home/carver/Documents/stm32_with_linux/medical/Libraries/src/max30102.c ****   MAX30102_IIC_Stop();
  82:./.ccls_cache/home/carver/Documents/stm32_with_linux/medical/Libraries/src/max30102.c ****   return data; /* æ‰§è¡ŒæˆåŠŸ è¿”å›dataå€¼ */
  83:./.ccls_cache/home/carver/Documents/stm32_with_linux/medical/Libraries/src/max30102.c **** 
  84:./.ccls_cache/home/carver/Documents/stm32_with_linux/medical/Libraries/src/max30102.c **** cmd_fail: /* å‘½ä»¤æ‰§è¡Œå¤±è´¥åï¼Œåˆ‡è®°å‘é€åœæ­¢ä¿¡å·ï¼Œé¿å…å½±å“I2Cæ€»çº¿ä¸Šå…¶ä»–è®¾å¤
  85:./.ccls_cache/home/carver/Documents/stm32_with_linux/medical/Libraries/src/max30102.c ****   /* å‘é€I2Cæ€»çº¿åœæ­¢ä¿¡å· */
  86:./.ccls_cache/home/carver/Documents/stm32_with_linux/medical/Libraries/src/max30102.c ****   MAX30102_IIC_Stop();
  87:./.ccls_cache/home/carver/Documents/stm32_with_linux/medical/Libraries/src/max30102.c ****   return 0;
  88:./.ccls_cache/home/carver/Documents/stm32_with_linux/medical/Libraries/src/max30102.c **** }
  89:./.ccls_cache/home/carver/Documents/stm32_with_linux/medical/Libraries/src/max30102.c **** 
ARM GAS  /tmp/ccriZ1yi.s 			page 3


  90:./.ccls_cache/home/carver/Documents/stm32_with_linux/medical/Libraries/src/max30102.c **** void max30102_FIFO_ReadWords(u8 Register_Address, u16 Word_Data[][2],
  91:./.ccls_cache/home/carver/Documents/stm32_with_linux/medical/Libraries/src/max30102.c ****                              u8 count) {
  92:./.ccls_cache/home/carver/Documents/stm32_with_linux/medical/Libraries/src/max30102.c ****   u8 i = 0;
  93:./.ccls_cache/home/carver/Documents/stm32_with_linux/medical/Libraries/src/max30102.c ****   u8 no = count;
  94:./.ccls_cache/home/carver/Documents/stm32_with_linux/medical/Libraries/src/max30102.c ****   u8 data1, data2;
  95:./.ccls_cache/home/carver/Documents/stm32_with_linux/medical/Libraries/src/max30102.c ****   /* ç¬¬1æ­¥ï¼šå‘èµ·I2Cæ€»çº¿å¯åŠ¨ä¿¡å· */
  96:./.ccls_cache/home/carver/Documents/stm32_with_linux/medical/Libraries/src/max30102.c ****   MAX30102_IIC_Start();
  97:./.ccls_cache/home/carver/Documents/stm32_with_linux/medical/Libraries/src/max30102.c **** 
  98:./.ccls_cache/home/carver/Documents/stm32_with_linux/medical/Libraries/src/max30102.c ****   /* ç¬¬2æ­¥ï¼šå‘èµ·æ§åˆ¶å­—èŠ‚ï¼Œé«˜7bitæ˜¯åœ°å€ï¼Œbit0æ˜¯è¯»å†™æ§åˆ¶ä½ï¼Œ0è¡¨ç¤ºå†™ï¼Œ1è¡¨ç¤
  99:./.ccls_cache/home/carver/Documents/stm32_with_linux/medical/Libraries/src/max30102.c ****   MAX30102_IIC_Send_Byte(max30102_WR_address | I2C_WR); /* æ­¤å¤„æ˜¯å†™æŒ‡ä»¤ */
 100:./.ccls_cache/home/carver/Documents/stm32_with_linux/medical/Libraries/src/max30102.c **** 
 101:./.ccls_cache/home/carver/Documents/stm32_with_linux/medical/Libraries/src/max30102.c ****   /* ç¬¬3æ­¥ï¼šå‘é€ACK */
 102:./.ccls_cache/home/carver/Documents/stm32_with_linux/medical/Libraries/src/max30102.c ****   if (MAX30102_IIC_Wait_Ack() != 0) {
 103:./.ccls_cache/home/carver/Documents/stm32_with_linux/medical/Libraries/src/max30102.c ****     goto cmd_fail; /* EEPROMå™¨ä»¶æ— åº”ç­” */
 104:./.ccls_cache/home/carver/Documents/stm32_with_linux/medical/Libraries/src/max30102.c ****   }
 105:./.ccls_cache/home/carver/Documents/stm32_with_linux/medical/Libraries/src/max30102.c **** 
 106:./.ccls_cache/home/carver/Documents/stm32_with_linux/medical/Libraries/src/max30102.c ****   /* ç¬¬4æ­¥ï¼šå‘é€å­—èŠ‚åœ°å€ï¼Œ */
 107:./.ccls_cache/home/carver/Documents/stm32_with_linux/medical/Libraries/src/max30102.c ****   MAX30102_IIC_Send_Byte((uint8_t)Register_Address);
 108:./.ccls_cache/home/carver/Documents/stm32_with_linux/medical/Libraries/src/max30102.c ****   if (MAX30102_IIC_Wait_Ack() != 0) {
 109:./.ccls_cache/home/carver/Documents/stm32_with_linux/medical/Libraries/src/max30102.c ****     goto cmd_fail; /* EEPROMå™¨ä»¶æ— åº”ç­” */
 110:./.ccls_cache/home/carver/Documents/stm32_with_linux/medical/Libraries/src/max30102.c ****   }
 111:./.ccls_cache/home/carver/Documents/stm32_with_linux/medical/Libraries/src/max30102.c **** 
 112:./.ccls_cache/home/carver/Documents/stm32_with_linux/medical/Libraries/src/max30102.c ****   /* ç¬¬6æ­¥ï¼šé‡æ–°å¯åŠ¨I2Cæ€»çº¿ã€‚ä¸‹é¢å¼€å§‹è¯»å–æ•°æ® */
 113:./.ccls_cache/home/carver/Documents/stm32_with_linux/medical/Libraries/src/max30102.c ****   MAX30102_IIC_Start();
 114:./.ccls_cache/home/carver/Documents/stm32_with_linux/medical/Libraries/src/max30102.c **** 
 115:./.ccls_cache/home/carver/Documents/stm32_with_linux/medical/Libraries/src/max30102.c ****   /* ç¬¬7æ­¥ï¼šå‘èµ·æ§åˆ¶å­—èŠ‚ï¼Œé«˜7bitæ˜¯åœ°å€ï¼Œbit0æ˜¯è¯»å†™æ§åˆ¶ä½ï¼Œ0è¡¨ç¤ºå†™ï¼Œ1è¡¨ç¤
 116:./.ccls_cache/home/carver/Documents/stm32_with_linux/medical/Libraries/src/max30102.c ****   MAX30102_IIC_Send_Byte(max30102_WR_address | I2C_RD); /* æ­¤å¤„æ˜¯è¯»æŒ‡ä»¤ */
 117:./.ccls_cache/home/carver/Documents/stm32_with_linux/medical/Libraries/src/max30102.c **** 
 118:./.ccls_cache/home/carver/Documents/stm32_with_linux/medical/Libraries/src/max30102.c ****   /* ç¬¬8æ­¥ï¼šå‘é€ACK */
 119:./.ccls_cache/home/carver/Documents/stm32_with_linux/medical/Libraries/src/max30102.c ****   if (MAX30102_IIC_Wait_Ack() != 0) {
 120:./.ccls_cache/home/carver/Documents/stm32_with_linux/medical/Libraries/src/max30102.c ****     goto cmd_fail; /* EEPROMå™¨ä»¶æ— åº”ç­” */
 121:./.ccls_cache/home/carver/Documents/stm32_with_linux/medical/Libraries/src/max30102.c ****   }
 122:./.ccls_cache/home/carver/Documents/stm32_with_linux/medical/Libraries/src/max30102.c **** 
 123:./.ccls_cache/home/carver/Documents/stm32_with_linux/medical/Libraries/src/max30102.c ****   /* ç¬¬9æ­¥ï¼šè¯»å–æ•°æ® */
 124:./.ccls_cache/home/carver/Documents/stm32_with_linux/medical/Libraries/src/max30102.c ****   while (no) {
 125:./.ccls_cache/home/carver/Documents/stm32_with_linux/medical/Libraries/src/max30102.c ****     data1 = MAX30102_IIC_Read_Byte(0);
 126:./.ccls_cache/home/carver/Documents/stm32_with_linux/medical/Libraries/src/max30102.c ****     MAX30102_IIC_Ack();
 127:./.ccls_cache/home/carver/Documents/stm32_with_linux/medical/Libraries/src/max30102.c ****     data2 = MAX30102_IIC_Read_Byte(0);
 128:./.ccls_cache/home/carver/Documents/stm32_with_linux/medical/Libraries/src/max30102.c ****     MAX30102_IIC_Ack();
 129:./.ccls_cache/home/carver/Documents/stm32_with_linux/medical/Libraries/src/max30102.c ****     Word_Data[i][0] = (((u16)data1 << 8) | data2); //
 130:./.ccls_cache/home/carver/Documents/stm32_with_linux/medical/Libraries/src/max30102.c **** 
 131:./.ccls_cache/home/carver/Documents/stm32_with_linux/medical/Libraries/src/max30102.c ****     data1 = MAX30102_IIC_Read_Byte(0);
 132:./.ccls_cache/home/carver/Documents/stm32_with_linux/medical/Libraries/src/max30102.c ****     MAX30102_IIC_Ack();
 133:./.ccls_cache/home/carver/Documents/stm32_with_linux/medical/Libraries/src/max30102.c ****     data2 = MAX30102_IIC_Read_Byte(0);
 134:./.ccls_cache/home/carver/Documents/stm32_with_linux/medical/Libraries/src/max30102.c ****     if (1 == no)
 135:./.ccls_cache/home/carver/Documents/stm32_with_linux/medical/Libraries/src/max30102.c ****       MAX30102_IIC_NAck(); /* æœ€å1ä¸ªå­—èŠ‚è¯»å®Œåï¼ŒCPUäº§ç”ŸNACKä¿¡å·(é©±åŠ¨SDA = 1) */
 136:./.ccls_cache/home/carver/Documents/stm32_with_linux/medical/Libraries/src/max30102.c ****     else
 137:./.ccls_cache/home/carver/Documents/stm32_with_linux/medical/Libraries/src/max30102.c ****       MAX30102_IIC_Ack();
 138:./.ccls_cache/home/carver/Documents/stm32_with_linux/medical/Libraries/src/max30102.c ****     Word_Data[i][1] = (((u16)data1 << 8) | data2);
 139:./.ccls_cache/home/carver/Documents/stm32_with_linux/medical/Libraries/src/max30102.c **** 
 140:./.ccls_cache/home/carver/Documents/stm32_with_linux/medical/Libraries/src/max30102.c ****     no--;
 141:./.ccls_cache/home/carver/Documents/stm32_with_linux/medical/Libraries/src/max30102.c ****     i++;
 142:./.ccls_cache/home/carver/Documents/stm32_with_linux/medical/Libraries/src/max30102.c ****   }
 143:./.ccls_cache/home/carver/Documents/stm32_with_linux/medical/Libraries/src/max30102.c ****   /* å‘é€I2Cæ€»çº¿åœæ­¢ä¿¡å· */
 144:./.ccls_cache/home/carver/Documents/stm32_with_linux/medical/Libraries/src/max30102.c ****   MAX30102_IIC_Stop();
 145:./.ccls_cache/home/carver/Documents/stm32_with_linux/medical/Libraries/src/max30102.c **** 
 146:./.ccls_cache/home/carver/Documents/stm32_with_linux/medical/Libraries/src/max30102.c **** cmd_fail: /* å‘½ä»¤æ‰§è¡Œå¤±è´¥åï¼Œåˆ‡è®°å‘é€åœæ­¢ä¿¡å·ï¼Œé¿å…å½±å“I2Cæ€»çº¿ä¸Šå…¶ä»–è®¾å¤
ARM GAS  /tmp/ccriZ1yi.s 			page 4


 147:./.ccls_cache/home/carver/Documents/stm32_with_linux/medical/Libraries/src/max30102.c ****   /* å‘é€I2Cæ€»çº¿åœæ­¢ä¿¡å· */
 148:./.ccls_cache/home/carver/Documents/stm32_with_linux/medical/Libraries/src/max30102.c ****   MAX30102_IIC_Stop();
 149:./.ccls_cache/home/carver/Documents/stm32_with_linux/medical/Libraries/src/max30102.c **** }
 150:./.ccls_cache/home/carver/Documents/stm32_with_linux/medical/Libraries/src/max30102.c **** 
 151:./.ccls_cache/home/carver/Documents/stm32_with_linux/medical/Libraries/src/max30102.c **** void max30102_FIFO_ReadBytes(u8 Register_Address, u8 *Data) {
 152:./.ccls_cache/home/carver/Documents/stm32_with_linux/medical/Libraries/src/max30102.c ****   max30102_Bus_Read(REG_INTR_STATUS_1);
 153:./.ccls_cache/home/carver/Documents/stm32_with_linux/medical/Libraries/src/max30102.c ****   max30102_Bus_Read(REG_INTR_STATUS_2);
 154:./.ccls_cache/home/carver/Documents/stm32_with_linux/medical/Libraries/src/max30102.c **** 
 155:./.ccls_cache/home/carver/Documents/stm32_with_linux/medical/Libraries/src/max30102.c ****   /* ç¬¬1æ­¥ï¼šå‘èµ·I2Cæ€»çº¿å¯åŠ¨ä¿¡å· */
 156:./.ccls_cache/home/carver/Documents/stm32_with_linux/medical/Libraries/src/max30102.c ****   MAX30102_IIC_Start();
 157:./.ccls_cache/home/carver/Documents/stm32_with_linux/medical/Libraries/src/max30102.c **** 
 158:./.ccls_cache/home/carver/Documents/stm32_with_linux/medical/Libraries/src/max30102.c ****   /* ç¬¬2æ­¥ï¼šå‘èµ·æ§åˆ¶å­—èŠ‚ï¼Œé«˜7bitæ˜¯åœ°å€ï¼Œbit0æ˜¯è¯»å†™æ§åˆ¶ä½ï¼Œ0è¡¨ç¤ºå†™ï¼Œ1è¡¨ç¤
 159:./.ccls_cache/home/carver/Documents/stm32_with_linux/medical/Libraries/src/max30102.c ****   MAX30102_IIC_Send_Byte(max30102_WR_address | I2C_WR); /* æ­¤å¤„æ˜¯å†™æŒ‡ä»¤ */
 160:./.ccls_cache/home/carver/Documents/stm32_with_linux/medical/Libraries/src/max30102.c **** 
 161:./.ccls_cache/home/carver/Documents/stm32_with_linux/medical/Libraries/src/max30102.c ****   /* ç¬¬3æ­¥ï¼šå‘é€ACK */
 162:./.ccls_cache/home/carver/Documents/stm32_with_linux/medical/Libraries/src/max30102.c ****   if (MAX30102_IIC_Wait_Ack() != 0) {
 163:./.ccls_cache/home/carver/Documents/stm32_with_linux/medical/Libraries/src/max30102.c ****     goto cmd_fail; /* EEPROMå™¨ä»¶æ— åº”ç­” */
 164:./.ccls_cache/home/carver/Documents/stm32_with_linux/medical/Libraries/src/max30102.c ****   }
 165:./.ccls_cache/home/carver/Documents/stm32_with_linux/medical/Libraries/src/max30102.c **** 
 166:./.ccls_cache/home/carver/Documents/stm32_with_linux/medical/Libraries/src/max30102.c ****   /* ç¬¬4æ­¥ï¼šå‘é€å­—èŠ‚åœ°å€ï¼Œ */
 167:./.ccls_cache/home/carver/Documents/stm32_with_linux/medical/Libraries/src/max30102.c ****   MAX30102_IIC_Send_Byte((uint8_t)Register_Address);
 168:./.ccls_cache/home/carver/Documents/stm32_with_linux/medical/Libraries/src/max30102.c ****   if (MAX30102_IIC_Wait_Ack() != 0) {
 169:./.ccls_cache/home/carver/Documents/stm32_with_linux/medical/Libraries/src/max30102.c ****     goto cmd_fail; /* EEPROMå™¨ä»¶æ— åº”ç­” */
 170:./.ccls_cache/home/carver/Documents/stm32_with_linux/medical/Libraries/src/max30102.c ****   }
 171:./.ccls_cache/home/carver/Documents/stm32_with_linux/medical/Libraries/src/max30102.c **** 
 172:./.ccls_cache/home/carver/Documents/stm32_with_linux/medical/Libraries/src/max30102.c ****   /* ç¬¬6æ­¥ï¼šé‡æ–°å¯åŠ¨I2Cæ€»çº¿ã€‚ä¸‹é¢å¼€å§‹è¯»å–æ•°æ® */
 173:./.ccls_cache/home/carver/Documents/stm32_with_linux/medical/Libraries/src/max30102.c ****   MAX30102_IIC_Start();
 174:./.ccls_cache/home/carver/Documents/stm32_with_linux/medical/Libraries/src/max30102.c **** 
 175:./.ccls_cache/home/carver/Documents/stm32_with_linux/medical/Libraries/src/max30102.c ****   /* ç¬¬7æ­¥ï¼šå‘èµ·æ§åˆ¶å­—èŠ‚ï¼Œé«˜7bitæ˜¯åœ°å€ï¼Œbit0æ˜¯è¯»å†™æ§åˆ¶ä½ï¼Œ0è¡¨ç¤ºå†™ï¼Œ1è¡¨ç¤
 176:./.ccls_cache/home/carver/Documents/stm32_with_linux/medical/Libraries/src/max30102.c ****   MAX30102_IIC_Send_Byte(max30102_WR_address | I2C_RD); /* æ­¤å¤„æ˜¯è¯»æŒ‡ä»¤ */
 177:./.ccls_cache/home/carver/Documents/stm32_with_linux/medical/Libraries/src/max30102.c **** 
 178:./.ccls_cache/home/carver/Documents/stm32_with_linux/medical/Libraries/src/max30102.c ****   /* ç¬¬8æ­¥ï¼šå‘é€ACK */
 179:./.ccls_cache/home/carver/Documents/stm32_with_linux/medical/Libraries/src/max30102.c ****   if (MAX30102_IIC_Wait_Ack() != 0) {
 180:./.ccls_cache/home/carver/Documents/stm32_with_linux/medical/Libraries/src/max30102.c ****     goto cmd_fail; /* EEPROMå™¨ä»¶æ— åº”ç­” */
 181:./.ccls_cache/home/carver/Documents/stm32_with_linux/medical/Libraries/src/max30102.c ****   }
 182:./.ccls_cache/home/carver/Documents/stm32_with_linux/medical/Libraries/src/max30102.c **** 
 183:./.ccls_cache/home/carver/Documents/stm32_with_linux/medical/Libraries/src/max30102.c ****   /* ç¬¬9æ­¥ï¼šè¯»å–æ•°æ® */
 184:./.ccls_cache/home/carver/Documents/stm32_with_linux/medical/Libraries/src/max30102.c ****   Data[0] = MAX30102_IIC_Read_Byte(1);
 185:./.ccls_cache/home/carver/Documents/stm32_with_linux/medical/Libraries/src/max30102.c ****   Data[1] = MAX30102_IIC_Read_Byte(1);
 186:./.ccls_cache/home/carver/Documents/stm32_with_linux/medical/Libraries/src/max30102.c ****   Data[2] = MAX30102_IIC_Read_Byte(1);
 187:./.ccls_cache/home/carver/Documents/stm32_with_linux/medical/Libraries/src/max30102.c ****   Data[3] = MAX30102_IIC_Read_Byte(1);
 188:./.ccls_cache/home/carver/Documents/stm32_with_linux/medical/Libraries/src/max30102.c ****   Data[4] = MAX30102_IIC_Read_Byte(1);
 189:./.ccls_cache/home/carver/Documents/stm32_with_linux/medical/Libraries/src/max30102.c ****   Data[5] = MAX30102_IIC_Read_Byte(0);
 190:./.ccls_cache/home/carver/Documents/stm32_with_linux/medical/Libraries/src/max30102.c ****   /* æœ€å1ä¸ªå­—èŠ‚è¯»å®Œåï¼ŒCPUäº§ç”ŸNACKä¿¡å·(é©±åŠ¨SDA = 1) */
 191:./.ccls_cache/home/carver/Documents/stm32_with_linux/medical/Libraries/src/max30102.c ****   /* å‘é€I2Cæ€»çº¿åœæ­¢ä¿¡å· */
 192:./.ccls_cache/home/carver/Documents/stm32_with_linux/medical/Libraries/src/max30102.c ****   MAX30102_IIC_Stop();
 193:./.ccls_cache/home/carver/Documents/stm32_with_linux/medical/Libraries/src/max30102.c **** 
 194:./.ccls_cache/home/carver/Documents/stm32_with_linux/medical/Libraries/src/max30102.c **** cmd_fail: /* å‘½ä»¤æ‰§è¡Œå¤±è´¥åï¼Œåˆ‡è®°å‘é€åœæ­¢ä¿¡å·ï¼Œé¿å…å½±å“I2Cæ€»çº¿ä¸Šå…¶ä»–è®¾å¤
 195:./.ccls_cache/home/carver/Documents/stm32_with_linux/medical/Libraries/src/max30102.c ****   /* å‘é€I2Cæ€»çº¿åœæ­¢ä¿¡å· */
 196:./.ccls_cache/home/carver/Documents/stm32_with_linux/medical/Libraries/src/max30102.c ****   MAX30102_IIC_Stop();
 197:./.ccls_cache/home/carver/Documents/stm32_with_linux/medical/Libraries/src/max30102.c **** 
 198:./.ccls_cache/home/carver/Documents/stm32_with_linux/medical/Libraries/src/max30102.c ****   //	u8 i;
 199:./.ccls_cache/home/carver/Documents/stm32_with_linux/medical/Libraries/src/max30102.c ****   //	u8 fifo_wr_ptr;
 200:./.ccls_cache/home/carver/Documents/stm32_with_linux/medical/Libraries/src/max30102.c ****   //	u8 firo_rd_ptr;
 201:./.ccls_cache/home/carver/Documents/stm32_with_linux/medical/Libraries/src/max30102.c ****   //	u8 number_tp_read;
 202:./.ccls_cache/home/carver/Documents/stm32_with_linux/medical/Libraries/src/max30102.c ****   //	//Get the FIFO_WR_PTR
 203:./.ccls_cache/home/carver/Documents/stm32_with_linux/medical/Libraries/src/max30102.c ****   //	fifo_wr_ptr = max30102_Bus_Read(REG_FIFO_WR_PTR);
ARM GAS  /tmp/ccriZ1yi.s 			page 5


 204:./.ccls_cache/home/carver/Documents/stm32_with_linux/medical/Libraries/src/max30102.c ****   //	//Get the FIFO_RD_PTR
 205:./.ccls_cache/home/carver/Documents/stm32_with_linux/medical/Libraries/src/max30102.c ****   //	firo_rd_ptr = max30102_Bus_Read(REG_FIFO_RD_PTR);
 206:./.ccls_cache/home/carver/Documents/stm32_with_linux/medical/Libraries/src/max30102.c ****   //
 207:./.ccls_cache/home/carver/Documents/stm32_with_linux/medical/Libraries/src/max30102.c ****   //	number_tp_read = fifo_wr_ptr - firo_rd_ptr;
 208:./.ccls_cache/home/carver/Documents/stm32_with_linux/medical/Libraries/src/max30102.c ****   //
 209:./.ccls_cache/home/carver/Documents/stm32_with_linux/medical/Libraries/src/max30102.c ****   //	//for(i=0;i<number_tp_read;i++){
 210:./.ccls_cache/home/carver/Documents/stm32_with_linux/medical/Libraries/src/max30102.c ****   //	if(number_tp_read>0){
 211:./.ccls_cache/home/carver/Documents/stm32_with_linux/medical/Libraries/src/max30102.c ****   //		MAX30102_IIC_ReadBytes(max30102_WR_address,REG_FIFO_DATA,Data,6);
 212:./.ccls_cache/home/carver/Documents/stm32_with_linux/medical/Libraries/src/max30102.c ****   //	}
 213:./.ccls_cache/home/carver/Documents/stm32_with_linux/medical/Libraries/src/max30102.c **** 
 214:./.ccls_cache/home/carver/Documents/stm32_with_linux/medical/Libraries/src/max30102.c ****   // max30102_Bus_Write(REG_FIFO_RD_PTR,fifo_wr_ptr);
 215:./.ccls_cache/home/carver/Documents/stm32_with_linux/medical/Libraries/src/max30102.c **** }
 216:./.ccls_cache/home/carver/Documents/stm32_with_linux/medical/Libraries/src/max30102.c **** 
 217:./.ccls_cache/home/carver/Documents/stm32_with_linux/medical/Libraries/src/max30102.c **** void MAX30102_Init(void) {
 218:./.ccls_cache/home/carver/Documents/stm32_with_linux/medical/Libraries/src/max30102.c ****   GPIO_InitTypeDef GPIO_InitStructure;
 219:./.ccls_cache/home/carver/Documents/stm32_with_linux/medical/Libraries/src/max30102.c **** 
 220:./.ccls_cache/home/carver/Documents/stm32_with_linux/medical/Libraries/src/max30102.c ****   RCC_APB2PeriphClockCmd(RCC_APB2Periph_GPIOB, ENABLE);
 221:./.ccls_cache/home/carver/Documents/stm32_with_linux/medical/Libraries/src/max30102.c ****   GPIO_InitStructure.GPIO_Pin = GPIO_Pin_14;
 222:./.ccls_cache/home/carver/Documents/stm32_with_linux/medical/Libraries/src/max30102.c ****   GPIO_InitStructure.GPIO_Mode = GPIO_Mode_IPU;
 223:./.ccls_cache/home/carver/Documents/stm32_with_linux/medical/Libraries/src/max30102.c ****   GPIO_Init(GPIOB, &GPIO_InitStructure);
 224:./.ccls_cache/home/carver/Documents/stm32_with_linux/medical/Libraries/src/max30102.c **** 
 225:./.ccls_cache/home/carver/Documents/stm32_with_linux/medical/Libraries/src/max30102.c ****   MAX30102_IIC_Init();
 226:./.ccls_cache/home/carver/Documents/stm32_with_linux/medical/Libraries/src/max30102.c **** 
 227:./.ccls_cache/home/carver/Documents/stm32_with_linux/medical/Libraries/src/max30102.c ****   MAX30102_Reset();
 228:./.ccls_cache/home/carver/Documents/stm32_with_linux/medical/Libraries/src/max30102.c **** 
 229:./.ccls_cache/home/carver/Documents/stm32_with_linux/medical/Libraries/src/max30102.c ****   //	max30102_Bus_Write(REG_MODE_CONFIG, 0x0b);  //mode configuration :
 230:./.ccls_cache/home/carver/Documents/stm32_with_linux/medical/Libraries/src/max30102.c ****   // temp_en[3]      MODE[2:0]=010 HR only enabled    011 SP02 enabled
 231:./.ccls_cache/home/carver/Documents/stm32_with_linux/medical/Libraries/src/max30102.c ****   //	max30102_Bus_Write(REG_INTR_STATUS_2, 0xF0); //open all of interrupt
 232:./.ccls_cache/home/carver/Documents/stm32_with_linux/medical/Libraries/src/max30102.c ****   //	max30102_Bus_Write(REG_INTR_STATUS_1, 0x00); //all interrupt clear
 233:./.ccls_cache/home/carver/Documents/stm32_with_linux/medical/Libraries/src/max30102.c ****   //	max30102_Bus_Write(REG_INTR_ENABLE_2, 0x02); //DIE_TEMP_RDY_EN
 234:./.ccls_cache/home/carver/Documents/stm32_with_linux/medical/Libraries/src/max30102.c ****   //	max30102_Bus_Write(REG_TEMP_CONFIG, 0x01); //SET   TEMP_EN
 235:./.ccls_cache/home/carver/Documents/stm32_with_linux/medical/Libraries/src/max30102.c **** 
 236:./.ccls_cache/home/carver/Documents/stm32_with_linux/medical/Libraries/src/max30102.c ****   //	max30102_Bus_Write(REG_SPO2_CONFIG, 0x47); //SPO2_SR[4:2]=001  100 per
 237:./.ccls_cache/home/carver/Documents/stm32_with_linux/medical/Libraries/src/max30102.c ****   // second    LED_PW[1:0]=11  16BITS
 238:./.ccls_cache/home/carver/Documents/stm32_with_linux/medical/Libraries/src/max30102.c **** 
 239:./.ccls_cache/home/carver/Documents/stm32_with_linux/medical/Libraries/src/max30102.c ****   //	max30102_Bus_Write(REG_LED1_PA, 0x47);
 240:./.ccls_cache/home/carver/Documents/stm32_with_linux/medical/Libraries/src/max30102.c ****   //	max30102_Bus_Write(REG_LED2_PA, 0x47);
 241:./.ccls_cache/home/carver/Documents/stm32_with_linux/medical/Libraries/src/max30102.c **** 
 242:./.ccls_cache/home/carver/Documents/stm32_with_linux/medical/Libraries/src/max30102.c ****   max30102_Bus_Write(REG_INTR_ENABLE_1, 0xc0); // INTR setting
 243:./.ccls_cache/home/carver/Documents/stm32_with_linux/medical/Libraries/src/max30102.c ****   max30102_Bus_Write(REG_INTR_ENABLE_2, 0x00);
 244:./.ccls_cache/home/carver/Documents/stm32_with_linux/medical/Libraries/src/max30102.c ****   max30102_Bus_Write(REG_FIFO_WR_PTR, 0x00); // FIFO_WR_PTR[4:0]
 245:./.ccls_cache/home/carver/Documents/stm32_with_linux/medical/Libraries/src/max30102.c ****   max30102_Bus_Write(REG_OVF_COUNTER, 0x00); // OVF_COUNTER[4:0]
 246:./.ccls_cache/home/carver/Documents/stm32_with_linux/medical/Libraries/src/max30102.c ****   max30102_Bus_Write(REG_FIFO_RD_PTR, 0x00); // FIFO_RD_PTR[4:0]
 247:./.ccls_cache/home/carver/Documents/stm32_with_linux/medical/Libraries/src/max30102.c ****   max30102_Bus_Write(
 248:./.ccls_cache/home/carver/Documents/stm32_with_linux/medical/Libraries/src/max30102.c ****       REG_FIFO_CONFIG,
 249:./.ccls_cache/home/carver/Documents/stm32_with_linux/medical/Libraries/src/max30102.c ****       0x0f); // sample avg = 1, fifo rollover=false, fifo almost full = 17
 250:./.ccls_cache/home/carver/Documents/stm32_with_linux/medical/Libraries/src/max30102.c ****   max30102_Bus_Write(
 251:./.ccls_cache/home/carver/Documents/stm32_with_linux/medical/Libraries/src/max30102.c ****       REG_MODE_CONFIG,
 252:./.ccls_cache/home/carver/Documents/stm32_with_linux/medical/Libraries/src/max30102.c ****       0x03); // 0x02 for Red only, 0x03 for SpO2 mode 0x07 multimode LED
 253:./.ccls_cache/home/carver/Documents/stm32_with_linux/medical/Libraries/src/max30102.c ****   max30102_Bus_Write(REG_SPO2_CONFIG,
 254:./.ccls_cache/home/carver/Documents/stm32_with_linux/medical/Libraries/src/max30102.c ****                      0x27); // SPO2_ADC range = 4096nA, SPO2 sample rate (100
 255:./.ccls_cache/home/carver/Documents/stm32_with_linux/medical/Libraries/src/max30102.c ****                             // Hz), LED pulseWidth (400uS)
 256:./.ccls_cache/home/carver/Documents/stm32_with_linux/medical/Libraries/src/max30102.c ****   max30102_Bus_Write(REG_LED1_PA, 0x24); // Choose value for ~ 7mA for LED1
 257:./.ccls_cache/home/carver/Documents/stm32_with_linux/medical/Libraries/src/max30102.c ****   max30102_Bus_Write(REG_LED2_PA, 0x24); // Choose value for ~ 7mA for LED2
 258:./.ccls_cache/home/carver/Documents/stm32_with_linux/medical/Libraries/src/max30102.c ****   max30102_Bus_Write(REG_PILOT_PA,
 259:./.ccls_cache/home/carver/Documents/stm32_with_linux/medical/Libraries/src/max30102.c ****                      0x7f); // Choose value for ~ 25mA for Pilot LED
 260:./.ccls_cache/home/carver/Documents/stm32_with_linux/medical/Libraries/src/max30102.c **** }
ARM GAS  /tmp/ccriZ1yi.s 			page 6


 261:./.ccls_cache/home/carver/Documents/stm32_with_linux/medical/Libraries/src/max30102.c **** 
 262:./.ccls_cache/home/carver/Documents/stm32_with_linux/medical/Libraries/src/max30102.c **** void MAX30102_Reset(void) {
 263:./.ccls_cache/home/carver/Documents/stm32_with_linux/medical/Libraries/src/max30102.c ****   max30102_Bus_Write(REG_MODE_CONFIG, 0x40);
 264:./.ccls_cache/home/carver/Documents/stm32_with_linux/medical/Libraries/src/max30102.c ****   max30102_Bus_Write(REG_MODE_CONFIG, 0x40);
 265:./.ccls_cache/home/carver/Documents/stm32_with_linux/medical/Libraries/src/max30102.c **** }
 266:./.ccls_cache/home/carver/Documents/stm32_with_linux/medical/Libraries/src/max30102.c **** 
 267:./.ccls_cache/home/carver/Documents/stm32_with_linux/medical/Libraries/src/max30102.c **** void maxim_max30102_write_reg(uint8_t uch_addr, uint8_t uch_data) {
 268:./.ccls_cache/home/carver/Documents/stm32_with_linux/medical/Libraries/src/max30102.c ****   //  char ach_i2c_data[2];
 269:./.ccls_cache/home/carver/Documents/stm32_with_linux/medical/Libraries/src/max30102.c ****   //  ach_i2c_data[0]=uch_addr;
 270:./.ccls_cache/home/carver/Documents/stm32_with_linux/medical/Libraries/src/max30102.c ****   //  ach_i2c_data[1]=uch_data;
 271:./.ccls_cache/home/carver/Documents/stm32_with_linux/medical/Libraries/src/max30102.c ****   //
 272:./.ccls_cache/home/carver/Documents/stm32_with_linux/medical/Libraries/src/max30102.c ****   //  MAX30102_IIC_WriteBytes(I2C_WRITE_ADDR, ach_i2c_data, 2);
 273:./.ccls_cache/home/carver/Documents/stm32_with_linux/medical/Libraries/src/max30102.c ****   MAX30102_IIC_Write_One_Byte(I2C_WRITE_ADDR, uch_addr, uch_data);
 274:./.ccls_cache/home/carver/Documents/stm32_with_linux/medical/Libraries/src/max30102.c **** }
 275:./.ccls_cache/home/carver/Documents/stm32_with_linux/medical/Libraries/src/max30102.c **** 
 276:./.ccls_cache/home/carver/Documents/stm32_with_linux/medical/Libraries/src/max30102.c **** void maxim_max30102_read_reg(uint8_t uch_addr, uint8_t *puch_data) {
 277:./.ccls_cache/home/carver/Documents/stm32_with_linux/medical/Libraries/src/max30102.c ****   //  char ch_i2c_data;
 278:./.ccls_cache/home/carver/Documents/stm32_with_linux/medical/Libraries/src/max30102.c ****   //  ch_i2c_data=uch_addr;
 279:./.ccls_cache/home/carver/Documents/stm32_with_linux/medical/Libraries/src/max30102.c ****   //  MAX30102_IIC_WriteBytes(I2C_WRITE_ADDR, &ch_i2c_data, 1);
 280:./.ccls_cache/home/carver/Documents/stm32_with_linux/medical/Libraries/src/max30102.c ****   //
 281:./.ccls_cache/home/carver/Documents/stm32_with_linux/medical/Libraries/src/max30102.c ****   //  i2c.read(I2C_READ_ADDR, &ch_i2c_data, 1);
 282:./.ccls_cache/home/carver/Documents/stm32_with_linux/medical/Libraries/src/max30102.c ****   //
 283:./.ccls_cache/home/carver/Documents/stm32_with_linux/medical/Libraries/src/max30102.c ****   //   *puch_data=(uint8_t) ch_i2c_data;
 284:./.ccls_cache/home/carver/Documents/stm32_with_linux/medical/Libraries/src/max30102.c ****   MAX30102_IIC_Read_One_Byte(I2C_WRITE_ADDR, uch_addr, puch_data);
 285:./.ccls_cache/home/carver/Documents/stm32_with_linux/medical/Libraries/src/max30102.c **** }
 286:./.ccls_cache/home/carver/Documents/stm32_with_linux/medical/Libraries/src/max30102.c **** 
 287:./.ccls_cache/home/carver/Documents/stm32_with_linux/medical/Libraries/src/max30102.c **** void maxim_max30102_read_fifo(uint32_t *pun_red_led, uint32_t *pun_ir_led) {
 288:./.ccls_cache/home/carver/Documents/stm32_with_linux/medical/Libraries/src/max30102.c ****   uint32_t un_temp;
 289:./.ccls_cache/home/carver/Documents/stm32_with_linux/medical/Libraries/src/max30102.c ****   unsigned char uch_temp;
 290:./.ccls_cache/home/carver/Documents/stm32_with_linux/medical/Libraries/src/max30102.c ****   char ach_i2c_data[6];
 291:./.ccls_cache/home/carver/Documents/stm32_with_linux/medical/Libraries/src/max30102.c ****   *pun_red_led = 0;
 292:./.ccls_cache/home/carver/Documents/stm32_with_linux/medical/Libraries/src/max30102.c ****   *pun_ir_led = 0;
 293:./.ccls_cache/home/carver/Documents/stm32_with_linux/medical/Libraries/src/max30102.c **** 
 294:./.ccls_cache/home/carver/Documents/stm32_with_linux/medical/Libraries/src/max30102.c ****   // read and clear status register
 295:./.ccls_cache/home/carver/Documents/stm32_with_linux/medical/Libraries/src/max30102.c ****   maxim_max30102_read_reg(REG_INTR_STATUS_1, &uch_temp);
 296:./.ccls_cache/home/carver/Documents/stm32_with_linux/medical/Libraries/src/max30102.c ****   maxim_max30102_read_reg(REG_INTR_STATUS_2, &uch_temp);
 297:./.ccls_cache/home/carver/Documents/stm32_with_linux/medical/Libraries/src/max30102.c **** 
 298:./.ccls_cache/home/carver/Documents/stm32_with_linux/medical/Libraries/src/max30102.c ****   MAX30102_IIC_ReadBytes(I2C_WRITE_ADDR, REG_FIFO_DATA, (u8 *)ach_i2c_data, 6);
 299:./.ccls_cache/home/carver/Documents/stm32_with_linux/medical/Libraries/src/max30102.c **** 
 300:./.ccls_cache/home/carver/Documents/stm32_with_linux/medical/Libraries/src/max30102.c ****   un_temp = (unsigned char)ach_i2c_data[0];
 301:./.ccls_cache/home/carver/Documents/stm32_with_linux/medical/Libraries/src/max30102.c ****   un_temp <<= 16;
 302:./.ccls_cache/home/carver/Documents/stm32_with_linux/medical/Libraries/src/max30102.c ****   *pun_red_led += un_temp;
 303:./.ccls_cache/home/carver/Documents/stm32_with_linux/medical/Libraries/src/max30102.c ****   un_temp = (unsigned char)ach_i2c_data[1];
 304:./.ccls_cache/home/carver/Documents/stm32_with_linux/medical/Libraries/src/max30102.c ****   un_temp <<= 8;
 305:./.ccls_cache/home/carver/Documents/stm32_with_linux/medical/Libraries/src/max30102.c ****   *pun_red_led += un_temp;
 306:./.ccls_cache/home/carver/Documents/stm32_with_linux/medical/Libraries/src/max30102.c ****   un_temp = (unsigned char)ach_i2c_data[2];
 307:./.ccls_cache/home/carver/Documents/stm32_with_linux/medical/Libraries/src/max30102.c ****   *pun_red_led += un_temp;
 308:./.ccls_cache/home/carver/Documents/stm32_with_linux/medical/Libraries/src/max30102.c **** 
 309:./.ccls_cache/home/carver/Documents/stm32_with_linux/medical/Libraries/src/max30102.c ****   un_temp = (unsigned char)ach_i2c_data[3];
 310:./.ccls_cache/home/carver/Documents/stm32_with_linux/medical/Libraries/src/max30102.c ****   un_temp <<= 16;
 311:./.ccls_cache/home/carver/Documents/stm32_with_linux/medical/Libraries/src/max30102.c ****   *pun_ir_led += un_temp;
 312:./.ccls_cache/home/carver/Documents/stm32_with_linux/medical/Libraries/src/max30102.c ****   un_temp = (unsigned char)ach_i2c_data[4];
 313:./.ccls_cache/home/carver/Documents/stm32_with_linux/medical/Libraries/src/max30102.c ****   un_temp <<= 8;
 314:./.ccls_cache/home/carver/Documents/stm32_with_linux/medical/Libraries/src/max30102.c ****   *pun_ir_led += un_temp;
 315:./.ccls_cache/home/carver/Documents/stm32_with_linux/medical/Libraries/src/max30102.c ****   un_temp = (unsigned char)ach_i2c_data[5];
 316:./.ccls_cache/home/carver/Documents/stm32_with_linux/medical/Libraries/src/max30102.c ****   *pun_ir_led += un_temp;
 317:./.ccls_cache/home/carver/Documents/stm32_with_linux/medical/Libraries/src/max30102.c ****   *pun_red_led &= 0x03FFFF; // Mask MSB [23:18]
ARM GAS  /tmp/ccriZ1yi.s 			page 7


 318:./.ccls_cache/home/carver/Documents/stm32_with_linux/medical/Libraries/src/max30102.c ****   *pun_ir_led &= 0x03FFFF;  // Mask MSB [23:18]
 319:./.ccls_cache/home/carver/Documents/stm32_with_linux/medical/Libraries/src/max30102.c **** }
 320:./.ccls_cache/home/carver/Documents/stm32_with_linux/medical/Libraries/src/max30102.c **** 
 321:./.ccls_cache/home/carver/Documents/stm32_with_linux/medical/Libraries/src/max30102.c **** // MAX30102å¼•è„šè¾“å‡ºæ¨¡å¼æ§åˆ¶
 322:./.ccls_cache/home/carver/Documents/stm32_with_linux/medical/Libraries/src/max30102.c **** void MAX30102_IIC_SDA_OUT(void) // SDAè¾“å‡ºæ–¹å‘é…ç½®
 323:./.ccls_cache/home/carver/Documents/stm32_with_linux/medical/Libraries/src/max30102.c **** {
  27              		.loc 1 323 1 view -0
  28              		.cfi_startproc
  29              		@ args = 0, pretend = 0, frame = 8
  30              		@ frame_needed = 0, uses_anonymous_args = 0
  31 0000 00B5     		push	{lr}
  32              	.LCFI0:
  33              		.cfi_def_cfa_offset 4
  34              		.cfi_offset 14, -4
  35 0002 83B0     		sub	sp, sp, #12
  36              	.LCFI1:
  37              		.cfi_def_cfa_offset 16
 324:./.ccls_cache/home/carver/Documents/stm32_with_linux/medical/Libraries/src/max30102.c ****   GPIO_InitTypeDef GPIO_InitStructure;
  38              		.loc 1 324 3 view .LVU1
 325:./.ccls_cache/home/carver/Documents/stm32_with_linux/medical/Libraries/src/max30102.c **** 
 326:./.ccls_cache/home/carver/Documents/stm32_with_linux/medical/Libraries/src/max30102.c ****   GPIO_InitStructure.GPIO_Pin = MAX30102_IIC_SDA_PIN;
  39              		.loc 1 326 3 view .LVU2
  40              		.loc 1 326 31 is_stmt 0 view .LVU3
  41 0004 4FF48073 		mov	r3, #256
  42 0008 ADF80430 		strh	r3, [sp, #4]	@ movhi
 327:./.ccls_cache/home/carver/Documents/stm32_with_linux/medical/Libraries/src/max30102.c ****   GPIO_InitStructure.GPIO_Speed = GPIO_Speed_50MHz;
  43              		.loc 1 327 3 is_stmt 1 view .LVU4
  44              		.loc 1 327 33 is_stmt 0 view .LVU5
  45 000c 0323     		movs	r3, #3
  46 000e 8DF80630 		strb	r3, [sp, #6]
 328:./.ccls_cache/home/carver/Documents/stm32_with_linux/medical/Libraries/src/max30102.c ****   GPIO_InitStructure.GPIO_Mode = GPIO_Mode_Out_PP; // SDAæ¨æŒ½è¾“å‡º
  47              		.loc 1 328 3 is_stmt 1 view .LVU6
  48              		.loc 1 328 32 is_stmt 0 view .LVU7
  49 0012 1023     		movs	r3, #16
  50 0014 8DF80730 		strb	r3, [sp, #7]
 329:./.ccls_cache/home/carver/Documents/stm32_with_linux/medical/Libraries/src/max30102.c ****   GPIO_Init(MAX30102_IIC_PORT, &GPIO_InitStructure);
  51              		.loc 1 329 3 is_stmt 1 view .LVU8
  52 0018 01A9     		add	r1, sp, #4
  53 001a 0348     		ldr	r0, .L3
  54 001c FFF7FEFF 		bl	GPIO_Init
  55              	.LVL0:
 330:./.ccls_cache/home/carver/Documents/stm32_with_linux/medical/Libraries/src/max30102.c **** }
  56              		.loc 1 330 1 is_stmt 0 view .LVU9
  57 0020 03B0     		add	sp, sp, #12
  58              	.LCFI2:
  59              		.cfi_def_cfa_offset 4
  60              		@ sp needed
  61 0022 5DF804FB 		ldr	pc, [sp], #4
  62              	.L4:
  63 0026 00BF     		.align	2
  64              	.L3:
  65 0028 000C0140 		.word	1073810432
  66              		.cfi_endproc
  67              	.LFE41:
  69              		.section	.text.MAX30102_IIC_SDA_IN,"ax",%progbits
  70              		.align	1
  71              		.global	MAX30102_IIC_SDA_IN
ARM GAS  /tmp/ccriZ1yi.s 			page 8


  72              		.syntax unified
  73              		.thumb
  74              		.thumb_func
  76              	MAX30102_IIC_SDA_IN:
  77              	.LFB42:
 331:./.ccls_cache/home/carver/Documents/stm32_with_linux/medical/Libraries/src/max30102.c **** 
 332:./.ccls_cache/home/carver/Documents/stm32_with_linux/medical/Libraries/src/max30102.c **** void MAX30102_IIC_SDA_IN(void) // SDAè¾“å…¥æ–¹å‘é…ç½®
 333:./.ccls_cache/home/carver/Documents/stm32_with_linux/medical/Libraries/src/max30102.c **** {
  78              		.loc 1 333 1 is_stmt 1 view -0
  79              		.cfi_startproc
  80              		@ args = 0, pretend = 0, frame = 8
  81              		@ frame_needed = 0, uses_anonymous_args = 0
  82 0000 00B5     		push	{lr}
  83              	.LCFI3:
  84              		.cfi_def_cfa_offset 4
  85              		.cfi_offset 14, -4
  86 0002 83B0     		sub	sp, sp, #12
  87              	.LCFI4:
  88              		.cfi_def_cfa_offset 16
 334:./.ccls_cache/home/carver/Documents/stm32_with_linux/medical/Libraries/src/max30102.c ****   GPIO_InitTypeDef GPIO_InitStructure;
  89              		.loc 1 334 3 view .LVU11
 335:./.ccls_cache/home/carver/Documents/stm32_with_linux/medical/Libraries/src/max30102.c **** 
 336:./.ccls_cache/home/carver/Documents/stm32_with_linux/medical/Libraries/src/max30102.c ****   GPIO_InitStructure.GPIO_Pin = MAX30102_IIC_SDA_PIN;
  90              		.loc 1 336 3 view .LVU12
  91              		.loc 1 336 31 is_stmt 0 view .LVU13
  92 0004 4FF48073 		mov	r3, #256
  93 0008 ADF80430 		strh	r3, [sp, #4]	@ movhi
 337:./.ccls_cache/home/carver/Documents/stm32_with_linux/medical/Libraries/src/max30102.c ****   GPIO_InitStructure.GPIO_Speed = GPIO_Speed_50MHz;
  94              		.loc 1 337 3 is_stmt 1 view .LVU14
  95              		.loc 1 337 33 is_stmt 0 view .LVU15
  96 000c 0323     		movs	r3, #3
  97 000e 8DF80630 		strb	r3, [sp, #6]
 338:./.ccls_cache/home/carver/Documents/stm32_with_linux/medical/Libraries/src/max30102.c ****   GPIO_InitStructure.GPIO_Mode = GPIO_Mode_IPU; // SCLä¸Šæ‹‰è¾“å…¥
  98              		.loc 1 338 3 is_stmt 1 view .LVU16
  99              		.loc 1 338 32 is_stmt 0 view .LVU17
 100 0012 4823     		movs	r3, #72
 101 0014 8DF80730 		strb	r3, [sp, #7]
 339:./.ccls_cache/home/carver/Documents/stm32_with_linux/medical/Libraries/src/max30102.c ****   GPIO_Init(MAX30102_IIC_PORT, &GPIO_InitStructure);
 102              		.loc 1 339 3 is_stmt 1 view .LVU18
 103 0018 01A9     		add	r1, sp, #4
 104 001a 0348     		ldr	r0, .L7
 105 001c FFF7FEFF 		bl	GPIO_Init
 106              	.LVL1:
 340:./.ccls_cache/home/carver/Documents/stm32_with_linux/medical/Libraries/src/max30102.c **** }
 107              		.loc 1 340 1 is_stmt 0 view .LVU19
 108 0020 03B0     		add	sp, sp, #12
 109              	.LCFI5:
 110              		.cfi_def_cfa_offset 4
 111              		@ sp needed
 112 0022 5DF804FB 		ldr	pc, [sp], #4
 113              	.L8:
 114 0026 00BF     		.align	2
 115              	.L7:
 116 0028 000C0140 		.word	1073810432
 117              		.cfi_endproc
 118              	.LFE42:
 120              		.section	.text.MAX30102_IIC_Init,"ax",%progbits
ARM GAS  /tmp/ccriZ1yi.s 			page 9


 121              		.align	1
 122              		.global	MAX30102_IIC_Init
 123              		.syntax unified
 124              		.thumb
 125              		.thumb_func
 127              	MAX30102_IIC_Init:
 128              	.LFB43:
 341:./.ccls_cache/home/carver/Documents/stm32_with_linux/medical/Libraries/src/max30102.c **** 
 342:./.ccls_cache/home/carver/Documents/stm32_with_linux/medical/Libraries/src/max30102.c **** // åˆå§‹åŒ–IIC
 343:./.ccls_cache/home/carver/Documents/stm32_with_linux/medical/Libraries/src/max30102.c **** void MAX30102_IIC_Init(void) {
 129              		.loc 1 343 30 is_stmt 1 view -0
 130              		.cfi_startproc
 131              		@ args = 0, pretend = 0, frame = 8
 132              		@ frame_needed = 0, uses_anonymous_args = 0
 133 0000 00B5     		push	{lr}
 134              	.LCFI6:
 135              		.cfi_def_cfa_offset 4
 136              		.cfi_offset 14, -4
 137 0002 83B0     		sub	sp, sp, #12
 138              	.LCFI7:
 139              		.cfi_def_cfa_offset 16
 344:./.ccls_cache/home/carver/Documents/stm32_with_linux/medical/Libraries/src/max30102.c ****   GPIO_InitTypeDef GPIO_InitStructure;
 140              		.loc 1 344 3 view .LVU21
 345:./.ccls_cache/home/carver/Documents/stm32_with_linux/medical/Libraries/src/max30102.c ****   // RCC->APB2ENR|=1<<4;//å…ˆä½¿èƒ½å¤–è®¾IO PORTCæ—¶é’Ÿ
 346:./.ccls_cache/home/carver/Documents/stm32_with_linux/medical/Libraries/src/max30102.c ****   RCC_APB2PeriphClockCmd(RCC_APB2Periph_GPIOB, ENABLE);
 141              		.loc 1 346 3 view .LVU22
 142 0004 0121     		movs	r1, #1
 143 0006 0820     		movs	r0, #8
 144 0008 FFF7FEFF 		bl	RCC_APB2PeriphClockCmd
 145              	.LVL2:
 347:./.ccls_cache/home/carver/Documents/stm32_with_linux/medical/Libraries/src/max30102.c **** 
 348:./.ccls_cache/home/carver/Documents/stm32_with_linux/medical/Libraries/src/max30102.c ****   GPIO_InitStructure.GPIO_Pin = MAX30102_IIC_SCL_PIN | MAX30102_IIC_SDA_PIN;
 146              		.loc 1 348 3 view .LVU23
 147              		.loc 1 348 31 is_stmt 0 view .LVU24
 148 000c 4FF4C073 		mov	r3, #384
 149 0010 ADF80430 		strh	r3, [sp, #4]	@ movhi
 349:./.ccls_cache/home/carver/Documents/stm32_with_linux/medical/Libraries/src/max30102.c ****   GPIO_InitStructure.GPIO_Mode = GPIO_Mode_Out_PP; // æ¨æŒ½è¾“å‡º
 150              		.loc 1 349 3 is_stmt 1 view .LVU25
 151              		.loc 1 349 32 is_stmt 0 view .LVU26
 152 0014 1023     		movs	r3, #16
 153 0016 8DF80730 		strb	r3, [sp, #7]
 350:./.ccls_cache/home/carver/Documents/stm32_with_linux/medical/Libraries/src/max30102.c ****   GPIO_InitStructure.GPIO_Speed = GPIO_Speed_50MHz;
 154              		.loc 1 350 3 is_stmt 1 view .LVU27
 155              		.loc 1 350 33 is_stmt 0 view .LVU28
 156 001a 0323     		movs	r3, #3
 157 001c 8DF80630 		strb	r3, [sp, #6]
 351:./.ccls_cache/home/carver/Documents/stm32_with_linux/medical/Libraries/src/max30102.c ****   GPIO_Init(MAX30102_IIC_PORT, &GPIO_InitStructure);
 158              		.loc 1 351 3 is_stmt 1 view .LVU29
 159 0020 01A9     		add	r1, sp, #4
 160 0022 0648     		ldr	r0, .L11
 161 0024 FFF7FEFF 		bl	GPIO_Init
 162              	.LVL3:
 352:./.ccls_cache/home/carver/Documents/stm32_with_linux/medical/Libraries/src/max30102.c **** 
 353:./.ccls_cache/home/carver/Documents/stm32_with_linux/medical/Libraries/src/max30102.c ****   MAX30102_IIC_SCL = 1;
 163              		.loc 1 353 3 view .LVU30
 164              		.loc 1 353 20 is_stmt 0 view .LVU31
 165 0028 054B     		ldr	r3, .L11+4
ARM GAS  /tmp/ccriZ1yi.s 			page 10


 166 002a 0122     		movs	r2, #1
 167 002c C3F89C21 		str	r2, [r3, #412]
 354:./.ccls_cache/home/carver/Documents/stm32_with_linux/medical/Libraries/src/max30102.c ****   MAX30102_IIC_SDA = 1;
 168              		.loc 1 354 3 is_stmt 1 view .LVU32
 169              		.loc 1 354 20 is_stmt 0 view .LVU33
 170 0030 C3F8A021 		str	r2, [r3, #416]
 355:./.ccls_cache/home/carver/Documents/stm32_with_linux/medical/Libraries/src/max30102.c **** }
 171              		.loc 1 355 1 view .LVU34
 172 0034 03B0     		add	sp, sp, #12
 173              	.LCFI8:
 174              		.cfi_def_cfa_offset 4
 175              		@ sp needed
 176 0036 5DF804FB 		ldr	pc, [sp], #4
 177              	.L12:
 178 003a 00BF     		.align	2
 179              	.L11:
 180 003c 000C0140 		.word	1073810432
 181 0040 00802142 		.word	1109491712
 182              		.cfi_endproc
 183              	.LFE43:
 185              		.section	.text.MAX30102_IIC_Start,"ax",%progbits
 186              		.align	1
 187              		.global	MAX30102_IIC_Start
 188              		.syntax unified
 189              		.thumb
 190              		.thumb_func
 192              	MAX30102_IIC_Start:
 193              	.LFB44:
 356:./.ccls_cache/home/carver/Documents/stm32_with_linux/medical/Libraries/src/max30102.c **** // äº§ç”ŸIICèµ·å§‹ä¿¡å·
 357:./.ccls_cache/home/carver/Documents/stm32_with_linux/medical/Libraries/src/max30102.c **** void MAX30102_IIC_Start(void) {
 194              		.loc 1 357 31 is_stmt 1 view -0
 195              		.cfi_startproc
 196              		@ args = 0, pretend = 0, frame = 0
 197              		@ frame_needed = 0, uses_anonymous_args = 0
 198 0000 38B5     		push	{r3, r4, r5, lr}
 199              	.LCFI9:
 200              		.cfi_def_cfa_offset 16
 201              		.cfi_offset 3, -16
 202              		.cfi_offset 4, -12
 203              		.cfi_offset 5, -8
 204              		.cfi_offset 14, -4
 358:./.ccls_cache/home/carver/Documents/stm32_with_linux/medical/Libraries/src/max30102.c ****   MAX30102_IIC_SDA_OUT(); // sdaçº¿è¾“å‡º
 205              		.loc 1 358 3 view .LVU36
 206 0002 FFF7FEFF 		bl	MAX30102_IIC_SDA_OUT
 207              	.LVL4:
 359:./.ccls_cache/home/carver/Documents/stm32_with_linux/medical/Libraries/src/max30102.c ****   MAX30102_IIC_SDA = 1;
 208              		.loc 1 359 3 view .LVU37
 209              		.loc 1 359 20 is_stmt 0 view .LVU38
 210 0006 094C     		ldr	r4, .L15
 211 0008 0123     		movs	r3, #1
 212 000a C4F8A031 		str	r3, [r4, #416]
 360:./.ccls_cache/home/carver/Documents/stm32_with_linux/medical/Libraries/src/max30102.c ****   MAX30102_IIC_SCL = 1;
 213              		.loc 1 360 3 is_stmt 1 view .LVU39
 214              		.loc 1 360 20 is_stmt 0 view .LVU40
 215 000e C4F89C31 		str	r3, [r4, #412]
 361:./.ccls_cache/home/carver/Documents/stm32_with_linux/medical/Libraries/src/max30102.c ****   Delay_us(4);
 216              		.loc 1 361 3 is_stmt 1 view .LVU41
ARM GAS  /tmp/ccriZ1yi.s 			page 11


 217 0012 0420     		movs	r0, #4
 218 0014 FFF7FEFF 		bl	Delay_us
 219              	.LVL5:
 362:./.ccls_cache/home/carver/Documents/stm32_with_linux/medical/Libraries/src/max30102.c ****   MAX30102_IIC_SDA = 0; // START:when CLK is high,DATA change form high to low
 220              		.loc 1 362 3 view .LVU42
 221              		.loc 1 362 20 is_stmt 0 view .LVU43
 222 0018 0025     		movs	r5, #0
 223 001a C4F8A051 		str	r5, [r4, #416]
 363:./.ccls_cache/home/carver/Documents/stm32_with_linux/medical/Libraries/src/max30102.c ****   Delay_us(4);
 224              		.loc 1 363 3 is_stmt 1 view .LVU44
 225 001e 0420     		movs	r0, #4
 226 0020 FFF7FEFF 		bl	Delay_us
 227              	.LVL6:
 364:./.ccls_cache/home/carver/Documents/stm32_with_linux/medical/Libraries/src/max30102.c ****   MAX30102_IIC_SCL = 0; // é’³ä½I2Cæ€»çº¿ï¼Œå‡†å¤‡å‘é€æˆ–æ¥æ”¶æ•°æ®
 228              		.loc 1 364 3 view .LVU45
 229              		.loc 1 364 20 is_stmt 0 view .LVU46
 230 0024 C4F89C51 		str	r5, [r4, #412]
 365:./.ccls_cache/home/carver/Documents/stm32_with_linux/medical/Libraries/src/max30102.c **** }
 231              		.loc 1 365 1 view .LVU47
 232 0028 38BD     		pop	{r3, r4, r5, pc}
 233              	.L16:
 234 002a 00BF     		.align	2
 235              	.L15:
 236 002c 00802142 		.word	1109491712
 237              		.cfi_endproc
 238              	.LFE44:
 240              		.section	.text.MAX30102_IIC_Stop,"ax",%progbits
 241              		.align	1
 242              		.global	MAX30102_IIC_Stop
 243              		.syntax unified
 244              		.thumb
 245              		.thumb_func
 247              	MAX30102_IIC_Stop:
 248              	.LFB45:
 366:./.ccls_cache/home/carver/Documents/stm32_with_linux/medical/Libraries/src/max30102.c **** // äº§ç”ŸIICåœæ­¢ä¿¡å·
 367:./.ccls_cache/home/carver/Documents/stm32_with_linux/medical/Libraries/src/max30102.c **** void MAX30102_IIC_Stop(void) {
 249              		.loc 1 367 30 is_stmt 1 view -0
 250              		.cfi_startproc
 251              		@ args = 0, pretend = 0, frame = 0
 252              		@ frame_needed = 0, uses_anonymous_args = 0
 253 0000 10B5     		push	{r4, lr}
 254              	.LCFI10:
 255              		.cfi_def_cfa_offset 8
 256              		.cfi_offset 4, -8
 257              		.cfi_offset 14, -4
 368:./.ccls_cache/home/carver/Documents/stm32_with_linux/medical/Libraries/src/max30102.c ****   MAX30102_IIC_SDA_OUT(); // sdaçº¿è¾“å‡º
 258              		.loc 1 368 3 view .LVU49
 259 0002 FFF7FEFF 		bl	MAX30102_IIC_SDA_OUT
 260              	.LVL7:
 369:./.ccls_cache/home/carver/Documents/stm32_with_linux/medical/Libraries/src/max30102.c ****   MAX30102_IIC_SCL = 0;
 261              		.loc 1 369 3 view .LVU50
 262              		.loc 1 369 20 is_stmt 0 view .LVU51
 263 0006 094C     		ldr	r4, .L19
 264 0008 0023     		movs	r3, #0
 265 000a C4F89C31 		str	r3, [r4, #412]
 370:./.ccls_cache/home/carver/Documents/stm32_with_linux/medical/Libraries/src/max30102.c ****   MAX30102_IIC_SDA = 0; // STOP:when CLK is high DATA change form low to high
 266              		.loc 1 370 3 is_stmt 1 view .LVU52
ARM GAS  /tmp/ccriZ1yi.s 			page 12


 267              		.loc 1 370 20 is_stmt 0 view .LVU53
 268 000e C4F8A031 		str	r3, [r4, #416]
 371:./.ccls_cache/home/carver/Documents/stm32_with_linux/medical/Libraries/src/max30102.c ****   Delay_us(4);
 269              		.loc 1 371 3 is_stmt 1 view .LVU54
 270 0012 0420     		movs	r0, #4
 271 0014 FFF7FEFF 		bl	Delay_us
 272              	.LVL8:
 372:./.ccls_cache/home/carver/Documents/stm32_with_linux/medical/Libraries/src/max30102.c ****   MAX30102_IIC_SCL = 1;
 273              		.loc 1 372 3 view .LVU55
 274              		.loc 1 372 20 is_stmt 0 view .LVU56
 275 0018 0123     		movs	r3, #1
 276 001a C4F89C31 		str	r3, [r4, #412]
 373:./.ccls_cache/home/carver/Documents/stm32_with_linux/medical/Libraries/src/max30102.c ****   MAX30102_IIC_SDA = 1; // å‘é€I2Cæ€»çº¿ç»“æŸä¿¡å·
 277              		.loc 1 373 3 is_stmt 1 view .LVU57
 278              		.loc 1 373 20 is_stmt 0 view .LVU58
 279 001e C4F8A031 		str	r3, [r4, #416]
 374:./.ccls_cache/home/carver/Documents/stm32_with_linux/medical/Libraries/src/max30102.c ****   Delay_us(4);
 280              		.loc 1 374 3 is_stmt 1 view .LVU59
 281 0022 0420     		movs	r0, #4
 282 0024 FFF7FEFF 		bl	Delay_us
 283              	.LVL9:
 375:./.ccls_cache/home/carver/Documents/stm32_with_linux/medical/Libraries/src/max30102.c **** }
 284              		.loc 1 375 1 is_stmt 0 view .LVU60
 285 0028 10BD     		pop	{r4, pc}
 286              	.L20:
 287 002a 00BF     		.align	2
 288              	.L19:
 289 002c 00802142 		.word	1109491712
 290              		.cfi_endproc
 291              	.LFE45:
 293              		.section	.text.MAX30102_IIC_Wait_Ack,"ax",%progbits
 294              		.align	1
 295              		.global	MAX30102_IIC_Wait_Ack
 296              		.syntax unified
 297              		.thumb
 298              		.thumb_func
 300              	MAX30102_IIC_Wait_Ack:
 301              	.LFB46:
 376:./.ccls_cache/home/carver/Documents/stm32_with_linux/medical/Libraries/src/max30102.c **** // ç­‰å¾…åº”ç­”ä¿¡å·åˆ°æ¥
 377:./.ccls_cache/home/carver/Documents/stm32_with_linux/medical/Libraries/src/max30102.c **** // è¿”å›å€¼ï¼š1ï¼Œæ¥æ”¶åº”ç­”å¤±è´¥
 378:./.ccls_cache/home/carver/Documents/stm32_with_linux/medical/Libraries/src/max30102.c **** //         0ï¼Œæ¥æ”¶åº”ç­”æˆåŠŸ
 379:./.ccls_cache/home/carver/Documents/stm32_with_linux/medical/Libraries/src/max30102.c **** u8 MAX30102_IIC_Wait_Ack(void) {
 302              		.loc 1 379 32 is_stmt 1 view -0
 303              		.cfi_startproc
 304              		@ args = 0, pretend = 0, frame = 0
 305              		@ frame_needed = 0, uses_anonymous_args = 0
 306 0000 38B5     		push	{r3, r4, r5, lr}
 307              	.LCFI11:
 308              		.cfi_def_cfa_offset 16
 309              		.cfi_offset 3, -16
 310              		.cfi_offset 4, -12
 311              		.cfi_offset 5, -8
 312              		.cfi_offset 14, -4
 380:./.ccls_cache/home/carver/Documents/stm32_with_linux/medical/Libraries/src/max30102.c ****   u8 ucErrTime = 0;
 313              		.loc 1 380 3 view .LVU62
 314              	.LVL10:
 381:./.ccls_cache/home/carver/Documents/stm32_with_linux/medical/Libraries/src/max30102.c ****   MAX30102_IIC_SDA_IN(); // SDAè®¾ç½®ä¸ºè¾“å…¥
ARM GAS  /tmp/ccriZ1yi.s 			page 13


 315              		.loc 1 381 3 view .LVU63
 316 0002 FFF7FEFF 		bl	MAX30102_IIC_SDA_IN
 317              	.LVL11:
 382:./.ccls_cache/home/carver/Documents/stm32_with_linux/medical/Libraries/src/max30102.c ****   MAX30102_IIC_SDA = 1;
 318              		.loc 1 382 3 view .LVU64
 319              		.loc 1 382 20 is_stmt 0 view .LVU65
 320 0006 0F4D     		ldr	r5, .L27
 321 0008 0124     		movs	r4, #1
 322 000a C5F8A041 		str	r4, [r5, #416]
 383:./.ccls_cache/home/carver/Documents/stm32_with_linux/medical/Libraries/src/max30102.c ****   Delay_us(1);
 323              		.loc 1 383 3 is_stmt 1 view .LVU66
 324 000e 2046     		mov	r0, r4
 325 0010 FFF7FEFF 		bl	Delay_us
 326              	.LVL12:
 384:./.ccls_cache/home/carver/Documents/stm32_with_linux/medical/Libraries/src/max30102.c ****   MAX30102_IIC_SCL = 1;
 327              		.loc 1 384 3 view .LVU67
 328              		.loc 1 384 20 is_stmt 0 view .LVU68
 329 0014 C5F89C41 		str	r4, [r5, #412]
 385:./.ccls_cache/home/carver/Documents/stm32_with_linux/medical/Libraries/src/max30102.c ****   Delay_us(1);
 330              		.loc 1 385 3 is_stmt 1 view .LVU69
 331 0018 2046     		mov	r0, r4
 332 001a FFF7FEFF 		bl	Delay_us
 333              	.LVL13:
 386:./.ccls_cache/home/carver/Documents/stm32_with_linux/medical/Libraries/src/max30102.c ****   while (MAX30102_READ_SDA) {
 334              		.loc 1 386 3 view .LVU70
 380:./.ccls_cache/home/carver/Documents/stm32_with_linux/medical/Libraries/src/max30102.c ****   MAX30102_IIC_SDA_IN(); // SDAè®¾ç½®ä¸ºè¾“å…¥
 335              		.loc 1 380 6 is_stmt 0 view .LVU71
 336 001e 0023     		movs	r3, #0
 337              	.LVL14:
 338              	.L22:
 339              		.loc 1 386 10 is_stmt 1 view .LVU72
 340 0020 084A     		ldr	r2, .L27
 341 0022 D2F82021 		ldr	r2, [r2, #288]
 342 0026 3AB1     		cbz	r2, .L26
 387:./.ccls_cache/home/carver/Documents/stm32_with_linux/medical/Libraries/src/max30102.c ****     ucErrTime++;
 343              		.loc 1 387 5 view .LVU73
 344              		.loc 1 387 14 is_stmt 0 view .LVU74
 345 0028 0133     		adds	r3, r3, #1
 346              	.LVL15:
 347              		.loc 1 387 14 view .LVU75
 348 002a DBB2     		uxtb	r3, r3
 349              	.LVL16:
 388:./.ccls_cache/home/carver/Documents/stm32_with_linux/medical/Libraries/src/max30102.c ****     if (ucErrTime > 250) {
 350              		.loc 1 388 5 is_stmt 1 view .LVU76
 351              		.loc 1 388 8 is_stmt 0 view .LVU77
 352 002c FA2B     		cmp	r3, #250
 353 002e F7D9     		bls	.L22
 389:./.ccls_cache/home/carver/Documents/stm32_with_linux/medical/Libraries/src/max30102.c ****       MAX30102_IIC_Stop();
 354              		.loc 1 389 7 is_stmt 1 view .LVU78
 355 0030 FFF7FEFF 		bl	MAX30102_IIC_Stop
 356              	.LVL17:
 390:./.ccls_cache/home/carver/Documents/stm32_with_linux/medical/Libraries/src/max30102.c ****       return 1;
 357              		.loc 1 390 7 view .LVU79
 358              		.loc 1 390 14 is_stmt 0 view .LVU80
 359 0034 0120     		movs	r0, #1
 360 0036 03E0     		b	.L23
 361              	.LVL18:
ARM GAS  /tmp/ccriZ1yi.s 			page 14


 362              	.L26:
 391:./.ccls_cache/home/carver/Documents/stm32_with_linux/medical/Libraries/src/max30102.c ****     }
 392:./.ccls_cache/home/carver/Documents/stm32_with_linux/medical/Libraries/src/max30102.c ****   }
 393:./.ccls_cache/home/carver/Documents/stm32_with_linux/medical/Libraries/src/max30102.c ****   MAX30102_IIC_SCL = 0; // æ—¶é’Ÿè¾“å‡º0
 363              		.loc 1 393 3 is_stmt 1 view .LVU81
 364              		.loc 1 393 20 is_stmt 0 view .LVU82
 365 0038 0020     		movs	r0, #0
 366 003a 024B     		ldr	r3, .L27
 367              	.LVL19:
 368              		.loc 1 393 20 view .LVU83
 369 003c C3F89C01 		str	r0, [r3, #412]
 394:./.ccls_cache/home/carver/Documents/stm32_with_linux/medical/Libraries/src/max30102.c ****   return 0;
 370              		.loc 1 394 3 is_stmt 1 view .LVU84
 371              	.LVL20:
 372              	.L23:
 395:./.ccls_cache/home/carver/Documents/stm32_with_linux/medical/Libraries/src/max30102.c **** }
 373              		.loc 1 395 1 is_stmt 0 view .LVU85
 374 0040 38BD     		pop	{r3, r4, r5, pc}
 375              	.L28:
 376 0042 00BF     		.align	2
 377              	.L27:
 378 0044 00802142 		.word	1109491712
 379              		.cfi_endproc
 380              	.LFE46:
 382              		.section	.text.MAX30102_IIC_Ack,"ax",%progbits
 383              		.align	1
 384              		.global	MAX30102_IIC_Ack
 385              		.syntax unified
 386              		.thumb
 387              		.thumb_func
 389              	MAX30102_IIC_Ack:
 390              	.LFB47:
 396:./.ccls_cache/home/carver/Documents/stm32_with_linux/medical/Libraries/src/max30102.c **** // äº§ç”ŸACKåº”ç­”
 397:./.ccls_cache/home/carver/Documents/stm32_with_linux/medical/Libraries/src/max30102.c **** void MAX30102_IIC_Ack(void) {
 391              		.loc 1 397 29 is_stmt 1 view -0
 392              		.cfi_startproc
 393              		@ args = 0, pretend = 0, frame = 0
 394              		@ frame_needed = 0, uses_anonymous_args = 0
 395 0000 38B5     		push	{r3, r4, r5, lr}
 396              	.LCFI12:
 397              		.cfi_def_cfa_offset 16
 398              		.cfi_offset 3, -16
 399              		.cfi_offset 4, -12
 400              		.cfi_offset 5, -8
 401              		.cfi_offset 14, -4
 398:./.ccls_cache/home/carver/Documents/stm32_with_linux/medical/Libraries/src/max30102.c ****   MAX30102_IIC_SCL = 0;
 402              		.loc 1 398 3 view .LVU87
 403              		.loc 1 398 20 is_stmt 0 view .LVU88
 404 0002 0A4C     		ldr	r4, .L31
 405 0004 0025     		movs	r5, #0
 406 0006 C4F89C51 		str	r5, [r4, #412]
 399:./.ccls_cache/home/carver/Documents/stm32_with_linux/medical/Libraries/src/max30102.c ****   MAX30102_IIC_SDA_OUT();
 407              		.loc 1 399 3 is_stmt 1 view .LVU89
 408 000a FFF7FEFF 		bl	MAX30102_IIC_SDA_OUT
 409              	.LVL21:
 400:./.ccls_cache/home/carver/Documents/stm32_with_linux/medical/Libraries/src/max30102.c ****   MAX30102_IIC_SDA = 0;
 410              		.loc 1 400 3 view .LVU90
ARM GAS  /tmp/ccriZ1yi.s 			page 15


 411              		.loc 1 400 20 is_stmt 0 view .LVU91
 412 000e C4F8A051 		str	r5, [r4, #416]
 401:./.ccls_cache/home/carver/Documents/stm32_with_linux/medical/Libraries/src/max30102.c ****   Delay_us(2);
 413              		.loc 1 401 3 is_stmt 1 view .LVU92
 414 0012 0220     		movs	r0, #2
 415 0014 FFF7FEFF 		bl	Delay_us
 416              	.LVL22:
 402:./.ccls_cache/home/carver/Documents/stm32_with_linux/medical/Libraries/src/max30102.c ****   MAX30102_IIC_SCL = 1;
 417              		.loc 1 402 3 view .LVU93
 418              		.loc 1 402 20 is_stmt 0 view .LVU94
 419 0018 0123     		movs	r3, #1
 420 001a C4F89C31 		str	r3, [r4, #412]
 403:./.ccls_cache/home/carver/Documents/stm32_with_linux/medical/Libraries/src/max30102.c ****   Delay_us(2);
 421              		.loc 1 403 3 is_stmt 1 view .LVU95
 422 001e 0220     		movs	r0, #2
 423 0020 FFF7FEFF 		bl	Delay_us
 424              	.LVL23:
 404:./.ccls_cache/home/carver/Documents/stm32_with_linux/medical/Libraries/src/max30102.c ****   MAX30102_IIC_SCL = 0;
 425              		.loc 1 404 3 view .LVU96
 426              		.loc 1 404 20 is_stmt 0 view .LVU97
 427 0024 C4F89C51 		str	r5, [r4, #412]
 405:./.ccls_cache/home/carver/Documents/stm32_with_linux/medical/Libraries/src/max30102.c **** }
 428              		.loc 1 405 1 view .LVU98
 429 0028 38BD     		pop	{r3, r4, r5, pc}
 430              	.L32:
 431 002a 00BF     		.align	2
 432              	.L31:
 433 002c 00802142 		.word	1109491712
 434              		.cfi_endproc
 435              	.LFE47:
 437              		.section	.text.MAX30102_IIC_NAck,"ax",%progbits
 438              		.align	1
 439              		.global	MAX30102_IIC_NAck
 440              		.syntax unified
 441              		.thumb
 442              		.thumb_func
 444              	MAX30102_IIC_NAck:
 445              	.LFB48:
 406:./.ccls_cache/home/carver/Documents/stm32_with_linux/medical/Libraries/src/max30102.c **** // ä¸äº§ç”ŸACKåº”ç­”
 407:./.ccls_cache/home/carver/Documents/stm32_with_linux/medical/Libraries/src/max30102.c **** void MAX30102_IIC_NAck(void) {
 446              		.loc 1 407 30 is_stmt 1 view -0
 447              		.cfi_startproc
 448              		@ args = 0, pretend = 0, frame = 0
 449              		@ frame_needed = 0, uses_anonymous_args = 0
 450 0000 70B5     		push	{r4, r5, r6, lr}
 451              	.LCFI13:
 452              		.cfi_def_cfa_offset 16
 453              		.cfi_offset 4, -16
 454              		.cfi_offset 5, -12
 455              		.cfi_offset 6, -8
 456              		.cfi_offset 14, -4
 408:./.ccls_cache/home/carver/Documents/stm32_with_linux/medical/Libraries/src/max30102.c ****   MAX30102_IIC_SCL = 0;
 457              		.loc 1 408 3 view .LVU100
 458              		.loc 1 408 20 is_stmt 0 view .LVU101
 459 0002 0A4C     		ldr	r4, .L35
 460 0004 0025     		movs	r5, #0
 461 0006 C4F89C51 		str	r5, [r4, #412]
ARM GAS  /tmp/ccriZ1yi.s 			page 16


 409:./.ccls_cache/home/carver/Documents/stm32_with_linux/medical/Libraries/src/max30102.c ****   MAX30102_IIC_SDA_OUT();
 462              		.loc 1 409 3 is_stmt 1 view .LVU102
 463 000a FFF7FEFF 		bl	MAX30102_IIC_SDA_OUT
 464              	.LVL24:
 410:./.ccls_cache/home/carver/Documents/stm32_with_linux/medical/Libraries/src/max30102.c ****   MAX30102_IIC_SDA = 1;
 465              		.loc 1 410 3 view .LVU103
 466              		.loc 1 410 20 is_stmt 0 view .LVU104
 467 000e 0126     		movs	r6, #1
 468 0010 C4F8A061 		str	r6, [r4, #416]
 411:./.ccls_cache/home/carver/Documents/stm32_with_linux/medical/Libraries/src/max30102.c ****   Delay_us(2);
 469              		.loc 1 411 3 is_stmt 1 view .LVU105
 470 0014 0220     		movs	r0, #2
 471 0016 FFF7FEFF 		bl	Delay_us
 472              	.LVL25:
 412:./.ccls_cache/home/carver/Documents/stm32_with_linux/medical/Libraries/src/max30102.c ****   MAX30102_IIC_SCL = 1;
 473              		.loc 1 412 3 view .LVU106
 474              		.loc 1 412 20 is_stmt 0 view .LVU107
 475 001a C4F89C61 		str	r6, [r4, #412]
 413:./.ccls_cache/home/carver/Documents/stm32_with_linux/medical/Libraries/src/max30102.c ****   Delay_us(2);
 476              		.loc 1 413 3 is_stmt 1 view .LVU108
 477 001e 0220     		movs	r0, #2
 478 0020 FFF7FEFF 		bl	Delay_us
 479              	.LVL26:
 414:./.ccls_cache/home/carver/Documents/stm32_with_linux/medical/Libraries/src/max30102.c ****   MAX30102_IIC_SCL = 0;
 480              		.loc 1 414 3 view .LVU109
 481              		.loc 1 414 20 is_stmt 0 view .LVU110
 482 0024 C4F89C51 		str	r5, [r4, #412]
 415:./.ccls_cache/home/carver/Documents/stm32_with_linux/medical/Libraries/src/max30102.c **** }
 483              		.loc 1 415 1 view .LVU111
 484 0028 70BD     		pop	{r4, r5, r6, pc}
 485              	.L36:
 486 002a 00BF     		.align	2
 487              	.L35:
 488 002c 00802142 		.word	1109491712
 489              		.cfi_endproc
 490              	.LFE48:
 492              		.section	.text.MAX30102_IIC_Send_Byte,"ax",%progbits
 493              		.align	1
 494              		.global	MAX30102_IIC_Send_Byte
 495              		.syntax unified
 496              		.thumb
 497              		.thumb_func
 499              	MAX30102_IIC_Send_Byte:
 500              	.LVL27:
 501              	.LFB49:
 416:./.ccls_cache/home/carver/Documents/stm32_with_linux/medical/Libraries/src/max30102.c **** // IICå‘é€ä¸€ä¸ªå­—èŠ‚
 417:./.ccls_cache/home/carver/Documents/stm32_with_linux/medical/Libraries/src/max30102.c **** // è¿”å›ä»æœºæœ‰æ— åº”ç­”
 418:./.ccls_cache/home/carver/Documents/stm32_with_linux/medical/Libraries/src/max30102.c **** // 1ï¼Œæœ‰åº”ç­”
 419:./.ccls_cache/home/carver/Documents/stm32_with_linux/medical/Libraries/src/max30102.c **** // 0ï¼Œæ— åº”ç­”
 420:./.ccls_cache/home/carver/Documents/stm32_with_linux/medical/Libraries/src/max30102.c **** void MAX30102_IIC_Send_Byte(u8 txd) {
 502              		.loc 1 420 37 is_stmt 1 view -0
 503              		.cfi_startproc
 504              		@ args = 0, pretend = 0, frame = 0
 505              		@ frame_needed = 0, uses_anonymous_args = 0
 506              		.loc 1 420 37 is_stmt 0 view .LVU113
 507 0000 70B5     		push	{r4, r5, r6, lr}
 508              	.LCFI14:
ARM GAS  /tmp/ccriZ1yi.s 			page 17


 509              		.cfi_def_cfa_offset 16
 510              		.cfi_offset 4, -16
 511              		.cfi_offset 5, -12
 512              		.cfi_offset 6, -8
 513              		.cfi_offset 14, -4
 514 0002 0546     		mov	r5, r0
 421:./.ccls_cache/home/carver/Documents/stm32_with_linux/medical/Libraries/src/max30102.c ****   u8 t;
 515              		.loc 1 421 3 is_stmt 1 view .LVU114
 422:./.ccls_cache/home/carver/Documents/stm32_with_linux/medical/Libraries/src/max30102.c ****   MAX30102_IIC_SDA_OUT();
 516              		.loc 1 422 3 view .LVU115
 517 0004 FFF7FEFF 		bl	MAX30102_IIC_SDA_OUT
 518              	.LVL28:
 423:./.ccls_cache/home/carver/Documents/stm32_with_linux/medical/Libraries/src/max30102.c ****   MAX30102_IIC_SCL = 0; // æ‹‰ä½æ—¶é’Ÿå¼€å§‹æ•°æ®ä¼ è¾“
 519              		.loc 1 423 3 view .LVU116
 520              		.loc 1 423 20 is_stmt 0 view .LVU117
 521 0008 0024     		movs	r4, #0
 522 000a 0F4B     		ldr	r3, .L41
 523 000c C3F89C41 		str	r4, [r3, #412]
 424:./.ccls_cache/home/carver/Documents/stm32_with_linux/medical/Libraries/src/max30102.c ****   for (t = 0; t < 8; t++) {
 524              		.loc 1 424 3 is_stmt 1 view .LVU118
 525              	.LVL29:
 526              		.loc 1 424 3 is_stmt 0 view .LVU119
 527 0010 16E0     		b	.L38
 528              	.LVL30:
 529              	.L39:
 425:./.ccls_cache/home/carver/Documents/stm32_with_linux/medical/Libraries/src/max30102.c ****     MAX30102_IIC_SDA = (txd & 0x80) >> 7;
 530              		.loc 1 425 5 is_stmt 1 view .LVU120
 531              		.loc 1 425 37 is_stmt 0 view .LVU121
 532 0012 EB09     		lsrs	r3, r5, #7
 533              		.loc 1 425 22 view .LVU122
 534 0014 0C4E     		ldr	r6, .L41
 535 0016 C6F8A031 		str	r3, [r6, #416]
 426:./.ccls_cache/home/carver/Documents/stm32_with_linux/medical/Libraries/src/max30102.c ****     txd <<= 1;
 536              		.loc 1 426 5 is_stmt 1 view .LVU123
 537              		.loc 1 426 9 is_stmt 0 view .LVU124
 538 001a 6D00     		lsls	r5, r5, #1
 539              	.LVL31:
 540              		.loc 1 426 9 view .LVU125
 541 001c EDB2     		uxtb	r5, r5
 542              	.LVL32:
 427:./.ccls_cache/home/carver/Documents/stm32_with_linux/medical/Libraries/src/max30102.c ****     Delay_us(2); // å¯¹TEA5767è¿™ä¸‰ä¸ªå»¶æ—¶éƒ½æ˜¯å¿…é¡»çš„
 543              		.loc 1 427 5 is_stmt 1 view .LVU126
 544 001e 0220     		movs	r0, #2
 545 0020 FFF7FEFF 		bl	Delay_us
 546              	.LVL33:
 428:./.ccls_cache/home/carver/Documents/stm32_with_linux/medical/Libraries/src/max30102.c ****     MAX30102_IIC_SCL = 1;
 547              		.loc 1 428 5 view .LVU127
 548              		.loc 1 428 22 is_stmt 0 view .LVU128
 549 0024 0123     		movs	r3, #1
 550 0026 C6F89C31 		str	r3, [r6, #412]
 429:./.ccls_cache/home/carver/Documents/stm32_with_linux/medical/Libraries/src/max30102.c ****     Delay_us(2);
 551              		.loc 1 429 5 is_stmt 1 view .LVU129
 552 002a 0220     		movs	r0, #2
 553 002c FFF7FEFF 		bl	Delay_us
 554              	.LVL34:
 430:./.ccls_cache/home/carver/Documents/stm32_with_linux/medical/Libraries/src/max30102.c ****     MAX30102_IIC_SCL = 0;
 555              		.loc 1 430 5 view .LVU130
ARM GAS  /tmp/ccriZ1yi.s 			page 18


 556              		.loc 1 430 22 is_stmt 0 view .LVU131
 557 0030 0023     		movs	r3, #0
 558 0032 C6F89C31 		str	r3, [r6, #412]
 431:./.ccls_cache/home/carver/Documents/stm32_with_linux/medical/Libraries/src/max30102.c ****     Delay_us(2);
 559              		.loc 1 431 5 is_stmt 1 view .LVU132
 560 0036 0220     		movs	r0, #2
 561 0038 FFF7FEFF 		bl	Delay_us
 562              	.LVL35:
 424:./.ccls_cache/home/carver/Documents/stm32_with_linux/medical/Libraries/src/max30102.c ****     MAX30102_IIC_SDA = (txd & 0x80) >> 7;
 563              		.loc 1 424 23 discriminator 3 view .LVU133
 564 003c 0134     		adds	r4, r4, #1
 565              	.LVL36:
 424:./.ccls_cache/home/carver/Documents/stm32_with_linux/medical/Libraries/src/max30102.c ****     MAX30102_IIC_SDA = (txd & 0x80) >> 7;
 566              		.loc 1 424 23 is_stmt 0 discriminator 3 view .LVU134
 567 003e E4B2     		uxtb	r4, r4
 568              	.LVL37:
 569              	.L38:
 424:./.ccls_cache/home/carver/Documents/stm32_with_linux/medical/Libraries/src/max30102.c ****     MAX30102_IIC_SDA = (txd & 0x80) >> 7;
 570              		.loc 1 424 17 is_stmt 1 discriminator 1 view .LVU135
 571 0040 072C     		cmp	r4, #7
 572 0042 E6D9     		bls	.L39
 432:./.ccls_cache/home/carver/Documents/stm32_with_linux/medical/Libraries/src/max30102.c ****   }
 433:./.ccls_cache/home/carver/Documents/stm32_with_linux/medical/Libraries/src/max30102.c **** }
 573              		.loc 1 433 1 is_stmt 0 view .LVU136
 574 0044 70BD     		pop	{r4, r5, r6, pc}
 575              	.LVL38:
 576              	.L42:
 577              		.loc 1 433 1 view .LVU137
 578 0046 00BF     		.align	2
 579              	.L41:
 580 0048 00802142 		.word	1109491712
 581              		.cfi_endproc
 582              	.LFE49:
 584              		.section	.text.max30102_Bus_Write,"ax",%progbits
 585              		.align	1
 586              		.global	max30102_Bus_Write
 587              		.syntax unified
 588              		.thumb
 589              		.thumb_func
 591              	max30102_Bus_Write:
 592              	.LVL39:
 593              	.LFB32:
   4:./.ccls_cache/home/carver/Documents/stm32_with_linux/medical/Libraries/src/max30102.c **** 
 594              		.loc 1 4 58 is_stmt 1 view -0
 595              		.cfi_startproc
 596              		@ args = 0, pretend = 0, frame = 0
 597              		@ frame_needed = 0, uses_anonymous_args = 0
   4:./.ccls_cache/home/carver/Documents/stm32_with_linux/medical/Libraries/src/max30102.c **** 
 598              		.loc 1 4 58 is_stmt 0 view .LVU139
 599 0000 38B5     		push	{r3, r4, r5, lr}
 600              	.LCFI15:
 601              		.cfi_def_cfa_offset 16
 602              		.cfi_offset 3, -16
 603              		.cfi_offset 4, -12
 604              		.cfi_offset 5, -8
 605              		.cfi_offset 14, -4
 606 0002 0446     		mov	r4, r0
ARM GAS  /tmp/ccriZ1yi.s 			page 19


 607 0004 0D46     		mov	r5, r1
   9:./.ccls_cache/home/carver/Documents/stm32_with_linux/medical/Libraries/src/max30102.c **** 
 608              		.loc 1 9 3 is_stmt 1 view .LVU140
 609 0006 FFF7FEFF 		bl	MAX30102_IIC_Start
 610              	.LVL40:
  12:./.ccls_cache/home/carver/Documents/stm32_with_linux/medical/Libraries/src/max30102.c **** 
 611              		.loc 1 12 3 view .LVU141
 612 000a AE20     		movs	r0, #174
 613 000c FFF7FEFF 		bl	MAX30102_IIC_Send_Byte
 614              	.LVL41:
  15:./.ccls_cache/home/carver/Documents/stm32_with_linux/medical/Libraries/src/max30102.c ****     goto cmd_fail; /* EEPROMå™¨ä»¶æ— åº”ç­” */
 615              		.loc 1 15 3 view .LVU142
  15:./.ccls_cache/home/carver/Documents/stm32_with_linux/medical/Libraries/src/max30102.c ****     goto cmd_fail; /* EEPROMå™¨ä»¶æ— åº”ç­” */
 616              		.loc 1 15 7 is_stmt 0 view .LVU143
 617 0010 FFF7FEFF 		bl	MAX30102_IIC_Wait_Ack
 618              	.LVL42:
  15:./.ccls_cache/home/carver/Documents/stm32_with_linux/medical/Libraries/src/max30102.c ****     goto cmd_fail; /* EEPROMå™¨ä»¶æ— åº”ç­” */
 619              		.loc 1 15 6 discriminator 1 view .LVU144
 620 0014 18B1     		cbz	r0, .L47
 621              	.L44:
  39:./.ccls_cache/home/carver/Documents/stm32_with_linux/medical/Libraries/src/max30102.c ****   return 0;
 622              		.loc 1 39 3 is_stmt 1 view .LVU145
 623 0016 FFF7FEFF 		bl	MAX30102_IIC_Stop
 624              	.LVL43:
  40:./.ccls_cache/home/carver/Documents/stm32_with_linux/medical/Libraries/src/max30102.c **** }
 625              		.loc 1 40 3 view .LVU146
  40:./.ccls_cache/home/carver/Documents/stm32_with_linux/medical/Libraries/src/max30102.c **** }
 626              		.loc 1 40 10 is_stmt 0 view .LVU147
 627 001a 0020     		movs	r0, #0
 628              	.L45:
  41:./.ccls_cache/home/carver/Documents/stm32_with_linux/medical/Libraries/src/max30102.c **** 
 629              		.loc 1 41 1 view .LVU148
 630 001c 38BD     		pop	{r3, r4, r5, pc}
 631              	.LVL44:
 632              	.L47:
  20:./.ccls_cache/home/carver/Documents/stm32_with_linux/medical/Libraries/src/max30102.c ****   if (MAX30102_IIC_Wait_Ack() != 0) {
 633              		.loc 1 20 3 is_stmt 1 view .LVU149
 634 001e 2046     		mov	r0, r4
 635 0020 FFF7FEFF 		bl	MAX30102_IIC_Send_Byte
 636              	.LVL45:
  21:./.ccls_cache/home/carver/Documents/stm32_with_linux/medical/Libraries/src/max30102.c ****     goto cmd_fail; /* EEPROMå™¨ä»¶æ— åº”ç­” */
 637              		.loc 1 21 3 view .LVU150
  21:./.ccls_cache/home/carver/Documents/stm32_with_linux/medical/Libraries/src/max30102.c ****     goto cmd_fail; /* EEPROMå™¨ä»¶æ— åº”ç­” */
 638              		.loc 1 21 7 is_stmt 0 view .LVU151
 639 0024 FFF7FEFF 		bl	MAX30102_IIC_Wait_Ack
 640              	.LVL46:
  21:./.ccls_cache/home/carver/Documents/stm32_with_linux/medical/Libraries/src/max30102.c ****     goto cmd_fail; /* EEPROMå™¨ä»¶æ— åº”ç­” */
 641              		.loc 1 21 6 discriminator 1 view .LVU152
 642 0028 0028     		cmp	r0, #0
 643 002a F4D1     		bne	.L44
  26:./.ccls_cache/home/carver/Documents/stm32_with_linux/medical/Libraries/src/max30102.c **** 
 644              		.loc 1 26 3 is_stmt 1 view .LVU153
 645 002c 2846     		mov	r0, r5
 646 002e FFF7FEFF 		bl	MAX30102_IIC_Send_Byte
 647              	.LVL47:
  29:./.ccls_cache/home/carver/Documents/stm32_with_linux/medical/Libraries/src/max30102.c ****     goto cmd_fail; /* EEPROMå™¨ä»¶æ— åº”ç­” */
 648              		.loc 1 29 3 view .LVU154
ARM GAS  /tmp/ccriZ1yi.s 			page 20


  29:./.ccls_cache/home/carver/Documents/stm32_with_linux/medical/Libraries/src/max30102.c ****     goto cmd_fail; /* EEPROMå™¨ä»¶æ— åº”ç­” */
 649              		.loc 1 29 7 is_stmt 0 view .LVU155
 650 0032 FFF7FEFF 		bl	MAX30102_IIC_Wait_Ack
 651              	.LVL48:
  29:./.ccls_cache/home/carver/Documents/stm32_with_linux/medical/Libraries/src/max30102.c ****     goto cmd_fail; /* EEPROMå™¨ä»¶æ— åº”ç­” */
 652              		.loc 1 29 6 discriminator 1 view .LVU156
 653 0036 0028     		cmp	r0, #0
 654 0038 EDD1     		bne	.L44
  34:./.ccls_cache/home/carver/Documents/stm32_with_linux/medical/Libraries/src/max30102.c ****   return 1; /* æ‰§è¡ŒæˆåŠŸ */
 655              		.loc 1 34 3 is_stmt 1 view .LVU157
 656 003a FFF7FEFF 		bl	MAX30102_IIC_Stop
 657              	.LVL49:
  35:./.ccls_cache/home/carver/Documents/stm32_with_linux/medical/Libraries/src/max30102.c **** 
 658              		.loc 1 35 3 view .LVU158
  35:./.ccls_cache/home/carver/Documents/stm32_with_linux/medical/Libraries/src/max30102.c **** 
 659              		.loc 1 35 10 is_stmt 0 view .LVU159
 660 003e 0120     		movs	r0, #1
 661 0040 ECE7     		b	.L45
 662              		.cfi_endproc
 663              	.LFE32:
 665              		.section	.text.MAX30102_Reset,"ax",%progbits
 666              		.align	1
 667              		.global	MAX30102_Reset
 668              		.syntax unified
 669              		.thumb
 670              		.thumb_func
 672              	MAX30102_Reset:
 673              	.LFB37:
 262:./.ccls_cache/home/carver/Documents/stm32_with_linux/medical/Libraries/src/max30102.c ****   max30102_Bus_Write(REG_MODE_CONFIG, 0x40);
 674              		.loc 1 262 27 is_stmt 1 view -0
 675              		.cfi_startproc
 676              		@ args = 0, pretend = 0, frame = 0
 677              		@ frame_needed = 0, uses_anonymous_args = 0
 678 0000 08B5     		push	{r3, lr}
 679              	.LCFI16:
 680              		.cfi_def_cfa_offset 8
 681              		.cfi_offset 3, -8
 682              		.cfi_offset 14, -4
 263:./.ccls_cache/home/carver/Documents/stm32_with_linux/medical/Libraries/src/max30102.c ****   max30102_Bus_Write(REG_MODE_CONFIG, 0x40);
 683              		.loc 1 263 3 view .LVU161
 684 0002 4021     		movs	r1, #64
 685 0004 0920     		movs	r0, #9
 686 0006 FFF7FEFF 		bl	max30102_Bus_Write
 687              	.LVL50:
 264:./.ccls_cache/home/carver/Documents/stm32_with_linux/medical/Libraries/src/max30102.c **** }
 688              		.loc 1 264 3 view .LVU162
 689 000a 4021     		movs	r1, #64
 690 000c 0920     		movs	r0, #9
 691 000e FFF7FEFF 		bl	max30102_Bus_Write
 692              	.LVL51:
 265:./.ccls_cache/home/carver/Documents/stm32_with_linux/medical/Libraries/src/max30102.c **** 
 693              		.loc 1 265 1 is_stmt 0 view .LVU163
 694 0012 08BD     		pop	{r3, pc}
 695              		.cfi_endproc
 696              	.LFE37:
 698              		.section	.text.MAX30102_Init,"ax",%progbits
 699              		.align	1
ARM GAS  /tmp/ccriZ1yi.s 			page 21


 700              		.global	MAX30102_Init
 701              		.syntax unified
 702              		.thumb
 703              		.thumb_func
 705              	MAX30102_Init:
 706              	.LFB36:
 217:./.ccls_cache/home/carver/Documents/stm32_with_linux/medical/Libraries/src/max30102.c ****   GPIO_InitTypeDef GPIO_InitStructure;
 707              		.loc 1 217 26 is_stmt 1 view -0
 708              		.cfi_startproc
 709              		@ args = 0, pretend = 0, frame = 8
 710              		@ frame_needed = 0, uses_anonymous_args = 0
 711 0000 00B5     		push	{lr}
 712              	.LCFI17:
 713              		.cfi_def_cfa_offset 4
 714              		.cfi_offset 14, -4
 715 0002 83B0     		sub	sp, sp, #12
 716              	.LCFI18:
 717              		.cfi_def_cfa_offset 16
 218:./.ccls_cache/home/carver/Documents/stm32_with_linux/medical/Libraries/src/max30102.c **** 
 718              		.loc 1 218 3 view .LVU165
 220:./.ccls_cache/home/carver/Documents/stm32_with_linux/medical/Libraries/src/max30102.c ****   GPIO_InitStructure.GPIO_Pin = GPIO_Pin_14;
 719              		.loc 1 220 3 view .LVU166
 720 0004 0121     		movs	r1, #1
 721 0006 0820     		movs	r0, #8
 722 0008 FFF7FEFF 		bl	RCC_APB2PeriphClockCmd
 723              	.LVL52:
 221:./.ccls_cache/home/carver/Documents/stm32_with_linux/medical/Libraries/src/max30102.c ****   GPIO_InitStructure.GPIO_Mode = GPIO_Mode_IPU;
 724              		.loc 1 221 3 view .LVU167
 221:./.ccls_cache/home/carver/Documents/stm32_with_linux/medical/Libraries/src/max30102.c ****   GPIO_InitStructure.GPIO_Mode = GPIO_Mode_IPU;
 725              		.loc 1 221 31 is_stmt 0 view .LVU168
 726 000c 4FF48043 		mov	r3, #16384
 727 0010 ADF80430 		strh	r3, [sp, #4]	@ movhi
 222:./.ccls_cache/home/carver/Documents/stm32_with_linux/medical/Libraries/src/max30102.c ****   GPIO_Init(GPIOB, &GPIO_InitStructure);
 728              		.loc 1 222 3 is_stmt 1 view .LVU169
 222:./.ccls_cache/home/carver/Documents/stm32_with_linux/medical/Libraries/src/max30102.c ****   GPIO_Init(GPIOB, &GPIO_InitStructure);
 729              		.loc 1 222 32 is_stmt 0 view .LVU170
 730 0014 4823     		movs	r3, #72
 731 0016 8DF80730 		strb	r3, [sp, #7]
 223:./.ccls_cache/home/carver/Documents/stm32_with_linux/medical/Libraries/src/max30102.c **** 
 732              		.loc 1 223 3 is_stmt 1 view .LVU171
 733 001a 01A9     		add	r1, sp, #4
 734 001c 1A48     		ldr	r0, .L52
 735 001e FFF7FEFF 		bl	GPIO_Init
 736              	.LVL53:
 225:./.ccls_cache/home/carver/Documents/stm32_with_linux/medical/Libraries/src/max30102.c **** 
 737              		.loc 1 225 3 view .LVU172
 738 0022 FFF7FEFF 		bl	MAX30102_IIC_Init
 739              	.LVL54:
 227:./.ccls_cache/home/carver/Documents/stm32_with_linux/medical/Libraries/src/max30102.c **** 
 740              		.loc 1 227 3 view .LVU173
 741 0026 FFF7FEFF 		bl	MAX30102_Reset
 742              	.LVL55:
 242:./.ccls_cache/home/carver/Documents/stm32_with_linux/medical/Libraries/src/max30102.c ****   max30102_Bus_Write(REG_INTR_ENABLE_2, 0x00);
 743              		.loc 1 242 3 view .LVU174
 744 002a C021     		movs	r1, #192
 745 002c 0220     		movs	r0, #2
 746 002e FFF7FEFF 		bl	max30102_Bus_Write
ARM GAS  /tmp/ccriZ1yi.s 			page 22


 747              	.LVL56:
 243:./.ccls_cache/home/carver/Documents/stm32_with_linux/medical/Libraries/src/max30102.c ****   max30102_Bus_Write(REG_FIFO_WR_PTR, 0x00); // FIFO_WR_PTR[4:0]
 748              		.loc 1 243 3 view .LVU175
 749 0032 0021     		movs	r1, #0
 750 0034 0320     		movs	r0, #3
 751 0036 FFF7FEFF 		bl	max30102_Bus_Write
 752              	.LVL57:
 244:./.ccls_cache/home/carver/Documents/stm32_with_linux/medical/Libraries/src/max30102.c ****   max30102_Bus_Write(REG_OVF_COUNTER, 0x00); // OVF_COUNTER[4:0]
 753              		.loc 1 244 3 view .LVU176
 754 003a 0021     		movs	r1, #0
 755 003c 0420     		movs	r0, #4
 756 003e FFF7FEFF 		bl	max30102_Bus_Write
 757              	.LVL58:
 245:./.ccls_cache/home/carver/Documents/stm32_with_linux/medical/Libraries/src/max30102.c ****   max30102_Bus_Write(REG_FIFO_RD_PTR, 0x00); // FIFO_RD_PTR[4:0]
 758              		.loc 1 245 3 view .LVU177
 759 0042 0021     		movs	r1, #0
 760 0044 0520     		movs	r0, #5
 761 0046 FFF7FEFF 		bl	max30102_Bus_Write
 762              	.LVL59:
 246:./.ccls_cache/home/carver/Documents/stm32_with_linux/medical/Libraries/src/max30102.c ****   max30102_Bus_Write(
 763              		.loc 1 246 3 view .LVU178
 764 004a 0021     		movs	r1, #0
 765 004c 0620     		movs	r0, #6
 766 004e FFF7FEFF 		bl	max30102_Bus_Write
 767              	.LVL60:
 247:./.ccls_cache/home/carver/Documents/stm32_with_linux/medical/Libraries/src/max30102.c ****       REG_FIFO_CONFIG,
 768              		.loc 1 247 3 view .LVU179
 769 0052 0F21     		movs	r1, #15
 770 0054 0820     		movs	r0, #8
 771 0056 FFF7FEFF 		bl	max30102_Bus_Write
 772              	.LVL61:
 250:./.ccls_cache/home/carver/Documents/stm32_with_linux/medical/Libraries/src/max30102.c ****       REG_MODE_CONFIG,
 773              		.loc 1 250 3 view .LVU180
 774 005a 0321     		movs	r1, #3
 775 005c 0920     		movs	r0, #9
 776 005e FFF7FEFF 		bl	max30102_Bus_Write
 777              	.LVL62:
 253:./.ccls_cache/home/carver/Documents/stm32_with_linux/medical/Libraries/src/max30102.c ****                      0x27); // SPO2_ADC range = 4096nA, SPO2 sample rate (100
 778              		.loc 1 253 3 view .LVU181
 779 0062 2721     		movs	r1, #39
 780 0064 0A20     		movs	r0, #10
 781 0066 FFF7FEFF 		bl	max30102_Bus_Write
 782              	.LVL63:
 256:./.ccls_cache/home/carver/Documents/stm32_with_linux/medical/Libraries/src/max30102.c ****   max30102_Bus_Write(REG_LED2_PA, 0x24); // Choose value for ~ 7mA for LED2
 783              		.loc 1 256 3 view .LVU182
 784 006a 2421     		movs	r1, #36
 785 006c 0C20     		movs	r0, #12
 786 006e FFF7FEFF 		bl	max30102_Bus_Write
 787              	.LVL64:
 257:./.ccls_cache/home/carver/Documents/stm32_with_linux/medical/Libraries/src/max30102.c ****   max30102_Bus_Write(REG_PILOT_PA,
 788              		.loc 1 257 3 view .LVU183
 789 0072 2421     		movs	r1, #36
 790 0074 0D20     		movs	r0, #13
 791 0076 FFF7FEFF 		bl	max30102_Bus_Write
 792              	.LVL65:
 258:./.ccls_cache/home/carver/Documents/stm32_with_linux/medical/Libraries/src/max30102.c ****                      0x7f); // Choose value for ~ 25mA for Pilot LED
 793              		.loc 1 258 3 view .LVU184
ARM GAS  /tmp/ccriZ1yi.s 			page 23


 794 007a 7F21     		movs	r1, #127
 795 007c 1020     		movs	r0, #16
 796 007e FFF7FEFF 		bl	max30102_Bus_Write
 797              	.LVL66:
 260:./.ccls_cache/home/carver/Documents/stm32_with_linux/medical/Libraries/src/max30102.c **** 
 798              		.loc 1 260 1 is_stmt 0 view .LVU185
 799 0082 03B0     		add	sp, sp, #12
 800              	.LCFI19:
 801              		.cfi_def_cfa_offset 4
 802              		@ sp needed
 803 0084 5DF804FB 		ldr	pc, [sp], #4
 804              	.L53:
 805              		.align	2
 806              	.L52:
 807 0088 000C0140 		.word	1073810432
 808              		.cfi_endproc
 809              	.LFE36:
 811              		.section	.text.MAX30102_IIC_Read_Byte,"ax",%progbits
 812              		.align	1
 813              		.global	MAX30102_IIC_Read_Byte
 814              		.syntax unified
 815              		.thumb
 816              		.thumb_func
 818              	MAX30102_IIC_Read_Byte:
 819              	.LVL67:
 820              	.LFB50:
 434:./.ccls_cache/home/carver/Documents/stm32_with_linux/medical/Libraries/src/max30102.c **** // è¯»1ä¸ªå­—èŠ‚ï¼Œack=1æ—¶ï¼Œå‘é€ACKï¼Œack=0ï¼Œå‘é€nACK
 435:./.ccls_cache/home/carver/Documents/stm32_with_linux/medical/Libraries/src/max30102.c **** u8 MAX30102_IIC_Read_Byte(unsigned char ack) {
 821              		.loc 1 435 46 is_stmt 1 view -0
 822              		.cfi_startproc
 823              		@ args = 0, pretend = 0, frame = 0
 824              		@ frame_needed = 0, uses_anonymous_args = 0
 825              		.loc 1 435 46 is_stmt 0 view .LVU187
 826 0000 F8B5     		push	{r3, r4, r5, r6, r7, lr}
 827              	.LCFI20:
 828              		.cfi_def_cfa_offset 24
 829              		.cfi_offset 3, -24
 830              		.cfi_offset 4, -20
 831              		.cfi_offset 5, -16
 832              		.cfi_offset 6, -12
 833              		.cfi_offset 7, -8
 834              		.cfi_offset 14, -4
 835 0002 0746     		mov	r7, r0
 436:./.ccls_cache/home/carver/Documents/stm32_with_linux/medical/Libraries/src/max30102.c ****   unsigned char i, receive = 0;
 836              		.loc 1 436 3 is_stmt 1 view .LVU188
 837              	.LVL68:
 437:./.ccls_cache/home/carver/Documents/stm32_with_linux/medical/Libraries/src/max30102.c ****   MAX30102_IIC_SDA_IN(); // SDAè®¾ç½®ä¸ºè¾“å…¥
 838              		.loc 1 437 3 view .LVU189
 839 0004 FFF7FEFF 		bl	MAX30102_IIC_SDA_IN
 840              	.LVL69:
 438:./.ccls_cache/home/carver/Documents/stm32_with_linux/medical/Libraries/src/max30102.c ****   for (i = 0; i < 8; i++) {
 841              		.loc 1 438 3 view .LVU190
 436:./.ccls_cache/home/carver/Documents/stm32_with_linux/medical/Libraries/src/max30102.c ****   unsigned char i, receive = 0;
 842              		.loc 1 436 20 is_stmt 0 view .LVU191
 843 0008 0024     		movs	r4, #0
 844              		.loc 1 438 10 view .LVU192
 845 000a 2546     		mov	r5, r4
ARM GAS  /tmp/ccriZ1yi.s 			page 24


 846              		.loc 1 438 3 view .LVU193
 847 000c 04E0     		b	.L55
 848              	.LVL70:
 849              	.L56:
 439:./.ccls_cache/home/carver/Documents/stm32_with_linux/medical/Libraries/src/max30102.c ****     MAX30102_IIC_SCL = 0;
 440:./.ccls_cache/home/carver/Documents/stm32_with_linux/medical/Libraries/src/max30102.c ****     Delay_us(2);
 441:./.ccls_cache/home/carver/Documents/stm32_with_linux/medical/Libraries/src/max30102.c ****     MAX30102_IIC_SCL = 1;
 442:./.ccls_cache/home/carver/Documents/stm32_with_linux/medical/Libraries/src/max30102.c ****     receive <<= 1;
 443:./.ccls_cache/home/carver/Documents/stm32_with_linux/medical/Libraries/src/max30102.c ****     if (MAX30102_READ_SDA)
 444:./.ccls_cache/home/carver/Documents/stm32_with_linux/medical/Libraries/src/max30102.c ****       receive++;
 445:./.ccls_cache/home/carver/Documents/stm32_with_linux/medical/Libraries/src/max30102.c ****     Delay_us(1);
 850              		.loc 1 445 5 is_stmt 1 view .LVU194
 851 000e 0120     		movs	r0, #1
 852 0010 FFF7FEFF 		bl	Delay_us
 853              	.LVL71:
 438:./.ccls_cache/home/carver/Documents/stm32_with_linux/medical/Libraries/src/max30102.c ****   for (i = 0; i < 8; i++) {
 854              		.loc 1 438 23 discriminator 2 view .LVU195
 855 0014 0135     		adds	r5, r5, #1
 856              	.LVL72:
 438:./.ccls_cache/home/carver/Documents/stm32_with_linux/medical/Libraries/src/max30102.c ****   for (i = 0; i < 8; i++) {
 857              		.loc 1 438 23 is_stmt 0 discriminator 2 view .LVU196
 858 0016 EDB2     		uxtb	r5, r5
 859              	.LVL73:
 860              	.L55:
 438:./.ccls_cache/home/carver/Documents/stm32_with_linux/medical/Libraries/src/max30102.c ****   for (i = 0; i < 8; i++) {
 861              		.loc 1 438 17 is_stmt 1 discriminator 1 view .LVU197
 862 0018 072D     		cmp	r5, #7
 863 001a 12D8     		bhi	.L61
 439:./.ccls_cache/home/carver/Documents/stm32_with_linux/medical/Libraries/src/max30102.c ****     MAX30102_IIC_SCL = 0;
 864              		.loc 1 439 5 view .LVU198
 439:./.ccls_cache/home/carver/Documents/stm32_with_linux/medical/Libraries/src/max30102.c ****     MAX30102_IIC_SCL = 0;
 865              		.loc 1 439 22 is_stmt 0 view .LVU199
 866 001c 0D4E     		ldr	r6, .L62
 867 001e 0023     		movs	r3, #0
 868 0020 C6F89C31 		str	r3, [r6, #412]
 440:./.ccls_cache/home/carver/Documents/stm32_with_linux/medical/Libraries/src/max30102.c ****     MAX30102_IIC_SCL = 1;
 869              		.loc 1 440 5 is_stmt 1 view .LVU200
 870 0024 0220     		movs	r0, #2
 871 0026 FFF7FEFF 		bl	Delay_us
 872              	.LVL74:
 441:./.ccls_cache/home/carver/Documents/stm32_with_linux/medical/Libraries/src/max30102.c ****     receive <<= 1;
 873              		.loc 1 441 5 view .LVU201
 441:./.ccls_cache/home/carver/Documents/stm32_with_linux/medical/Libraries/src/max30102.c ****     receive <<= 1;
 874              		.loc 1 441 22 is_stmt 0 view .LVU202
 875 002a 0123     		movs	r3, #1
 876 002c C6F89C31 		str	r3, [r6, #412]
 442:./.ccls_cache/home/carver/Documents/stm32_with_linux/medical/Libraries/src/max30102.c ****     if (MAX30102_READ_SDA)
 877              		.loc 1 442 5 is_stmt 1 view .LVU203
 442:./.ccls_cache/home/carver/Documents/stm32_with_linux/medical/Libraries/src/max30102.c ****     if (MAX30102_READ_SDA)
 878              		.loc 1 442 13 is_stmt 0 view .LVU204
 879 0030 9C40     		lsls	r4, r4, r3
 880              	.LVL75:
 442:./.ccls_cache/home/carver/Documents/stm32_with_linux/medical/Libraries/src/max30102.c ****     if (MAX30102_READ_SDA)
 881              		.loc 1 442 13 view .LVU205
 882 0032 E4B2     		uxtb	r4, r4
 883              	.LVL76:
 443:./.ccls_cache/home/carver/Documents/stm32_with_linux/medical/Libraries/src/max30102.c ****       receive++;
ARM GAS  /tmp/ccriZ1yi.s 			page 25


 884              		.loc 1 443 5 is_stmt 1 view .LVU206
 443:./.ccls_cache/home/carver/Documents/stm32_with_linux/medical/Libraries/src/max30102.c ****       receive++;
 885              		.loc 1 443 9 is_stmt 0 view .LVU207
 886 0034 D6F82031 		ldr	r3, [r6, #288]
 443:./.ccls_cache/home/carver/Documents/stm32_with_linux/medical/Libraries/src/max30102.c ****       receive++;
 887              		.loc 1 443 8 view .LVU208
 888 0038 002B     		cmp	r3, #0
 889 003a E8D0     		beq	.L56
 444:./.ccls_cache/home/carver/Documents/stm32_with_linux/medical/Libraries/src/max30102.c ****     Delay_us(1);
 890              		.loc 1 444 7 is_stmt 1 view .LVU209
 444:./.ccls_cache/home/carver/Documents/stm32_with_linux/medical/Libraries/src/max30102.c ****     Delay_us(1);
 891              		.loc 1 444 14 is_stmt 0 view .LVU210
 892 003c 0134     		adds	r4, r4, #1
 893              	.LVL77:
 444:./.ccls_cache/home/carver/Documents/stm32_with_linux/medical/Libraries/src/max30102.c ****     Delay_us(1);
 894              		.loc 1 444 14 view .LVU211
 895 003e E4B2     		uxtb	r4, r4
 896              	.LVL78:
 444:./.ccls_cache/home/carver/Documents/stm32_with_linux/medical/Libraries/src/max30102.c ****     Delay_us(1);
 897              		.loc 1 444 14 view .LVU212
 898 0040 E5E7     		b	.L56
 899              	.LVL79:
 900              	.L61:
 446:./.ccls_cache/home/carver/Documents/stm32_with_linux/medical/Libraries/src/max30102.c ****   }
 447:./.ccls_cache/home/carver/Documents/stm32_with_linux/medical/Libraries/src/max30102.c ****   if (!ack)
 901              		.loc 1 447 3 is_stmt 1 view .LVU213
 902              		.loc 1 447 6 is_stmt 0 view .LVU214
 903 0042 1FB9     		cbnz	r7, .L58
 448:./.ccls_cache/home/carver/Documents/stm32_with_linux/medical/Libraries/src/max30102.c ****     MAX30102_IIC_NAck(); // å‘é€nACK
 904              		.loc 1 448 5 is_stmt 1 view .LVU215
 905 0044 FFF7FEFF 		bl	MAX30102_IIC_NAck
 906              	.LVL80:
 907              	.L59:
 449:./.ccls_cache/home/carver/Documents/stm32_with_linux/medical/Libraries/src/max30102.c ****   else
 450:./.ccls_cache/home/carver/Documents/stm32_with_linux/medical/Libraries/src/max30102.c ****     MAX30102_IIC_Ack(); // å‘é€ACK
 451:./.ccls_cache/home/carver/Documents/stm32_with_linux/medical/Libraries/src/max30102.c ****   return receive;
 908              		.loc 1 451 3 view .LVU216
 452:./.ccls_cache/home/carver/Documents/stm32_with_linux/medical/Libraries/src/max30102.c **** }
 909              		.loc 1 452 1 is_stmt 0 view .LVU217
 910 0048 2046     		mov	r0, r4
 911 004a F8BD     		pop	{r3, r4, r5, r6, r7, pc}
 912              	.LVL81:
 913              	.L58:
 450:./.ccls_cache/home/carver/Documents/stm32_with_linux/medical/Libraries/src/max30102.c ****   return receive;
 914              		.loc 1 450 5 is_stmt 1 view .LVU218
 915 004c FFF7FEFF 		bl	MAX30102_IIC_Ack
 916              	.LVL82:
 917 0050 FAE7     		b	.L59
 918              	.L63:
 919 0052 00BF     		.align	2
 920              	.L62:
 921 0054 00802142 		.word	1109491712
 922              		.cfi_endproc
 923              	.LFE50:
 925              		.section	.text.max30102_Bus_Read,"ax",%progbits
 926              		.align	1
 927              		.global	max30102_Bus_Read
ARM GAS  /tmp/ccriZ1yi.s 			page 26


 928              		.syntax unified
 929              		.thumb
 930              		.thumb_func
 932              	max30102_Bus_Read:
 933              	.LVL83:
 934              	.LFB33:
  43:./.ccls_cache/home/carver/Documents/stm32_with_linux/medical/Libraries/src/max30102.c ****   u8 data;
 935              		.loc 1 43 43 view -0
 936              		.cfi_startproc
 937              		@ args = 0, pretend = 0, frame = 0
 938              		@ frame_needed = 0, uses_anonymous_args = 0
  43:./.ccls_cache/home/carver/Documents/stm32_with_linux/medical/Libraries/src/max30102.c ****   u8 data;
 939              		.loc 1 43 43 is_stmt 0 view .LVU220
 940 0000 10B5     		push	{r4, lr}
 941              	.LCFI21:
 942              		.cfi_def_cfa_offset 8
 943              		.cfi_offset 4, -8
 944              		.cfi_offset 14, -4
 945 0002 0446     		mov	r4, r0
  44:./.ccls_cache/home/carver/Documents/stm32_with_linux/medical/Libraries/src/max30102.c **** 
 946              		.loc 1 44 3 is_stmt 1 view .LVU221
  47:./.ccls_cache/home/carver/Documents/stm32_with_linux/medical/Libraries/src/max30102.c **** 
 947              		.loc 1 47 3 view .LVU222
 948 0004 FFF7FEFF 		bl	MAX30102_IIC_Start
 949              	.LVL84:
  50:./.ccls_cache/home/carver/Documents/stm32_with_linux/medical/Libraries/src/max30102.c **** 
 950              		.loc 1 50 3 view .LVU223
 951 0008 AE20     		movs	r0, #174
 952 000a FFF7FEFF 		bl	MAX30102_IIC_Send_Byte
 953              	.LVL85:
  53:./.ccls_cache/home/carver/Documents/stm32_with_linux/medical/Libraries/src/max30102.c ****     goto cmd_fail; /* EEPROMå™¨ä»¶æ— åº”ç­” */
 954              		.loc 1 53 3 view .LVU224
  53:./.ccls_cache/home/carver/Documents/stm32_with_linux/medical/Libraries/src/max30102.c ****     goto cmd_fail; /* EEPROMå™¨ä»¶æ— åº”ç­” */
 955              		.loc 1 53 7 is_stmt 0 view .LVU225
 956 000e FFF7FEFF 		bl	MAX30102_IIC_Wait_Ack
 957              	.LVL86:
  53:./.ccls_cache/home/carver/Documents/stm32_with_linux/medical/Libraries/src/max30102.c ****     goto cmd_fail; /* EEPROMå™¨ä»¶æ— åº”ç­” */
 958              		.loc 1 53 6 discriminator 1 view .LVU226
 959 0012 20B1     		cbz	r0, .L68
 960              	.L65:
  86:./.ccls_cache/home/carver/Documents/stm32_with_linux/medical/Libraries/src/max30102.c ****   return 0;
 961              		.loc 1 86 3 is_stmt 1 view .LVU227
 962 0014 FFF7FEFF 		bl	MAX30102_IIC_Stop
 963              	.LVL87:
  87:./.ccls_cache/home/carver/Documents/stm32_with_linux/medical/Libraries/src/max30102.c **** }
 964              		.loc 1 87 3 view .LVU228
  87:./.ccls_cache/home/carver/Documents/stm32_with_linux/medical/Libraries/src/max30102.c **** }
 965              		.loc 1 87 10 is_stmt 0 view .LVU229
 966 0018 0024     		movs	r4, #0
 967              	.LVL88:
 968              	.L66:
  88:./.ccls_cache/home/carver/Documents/stm32_with_linux/medical/Libraries/src/max30102.c **** 
 969              		.loc 1 88 1 view .LVU230
 970 001a 2046     		mov	r0, r4
 971 001c 10BD     		pop	{r4, pc}
 972              	.L68:
  58:./.ccls_cache/home/carver/Documents/stm32_with_linux/medical/Libraries/src/max30102.c ****   if (MAX30102_IIC_Wait_Ack() != 0) {
ARM GAS  /tmp/ccriZ1yi.s 			page 27


 973              		.loc 1 58 3 is_stmt 1 view .LVU231
 974 001e 2046     		mov	r0, r4
 975 0020 FFF7FEFF 		bl	MAX30102_IIC_Send_Byte
 976              	.LVL89:
  59:./.ccls_cache/home/carver/Documents/stm32_with_linux/medical/Libraries/src/max30102.c ****     goto cmd_fail; /* EEPROMå™¨ä»¶æ— åº”ç­” */
 977              		.loc 1 59 3 view .LVU232
  59:./.ccls_cache/home/carver/Documents/stm32_with_linux/medical/Libraries/src/max30102.c ****     goto cmd_fail; /* EEPROMå™¨ä»¶æ— åº”ç­” */
 978              		.loc 1 59 7 is_stmt 0 view .LVU233
 979 0024 FFF7FEFF 		bl	MAX30102_IIC_Wait_Ack
 980              	.LVL90:
  59:./.ccls_cache/home/carver/Documents/stm32_with_linux/medical/Libraries/src/max30102.c ****     goto cmd_fail; /* EEPROMå™¨ä»¶æ— åº”ç­” */
 981              		.loc 1 59 6 discriminator 1 view .LVU234
 982 0028 0028     		cmp	r0, #0
 983 002a F3D1     		bne	.L65
  64:./.ccls_cache/home/carver/Documents/stm32_with_linux/medical/Libraries/src/max30102.c **** 
 984              		.loc 1 64 3 is_stmt 1 view .LVU235
 985 002c FFF7FEFF 		bl	MAX30102_IIC_Start
 986              	.LVL91:
  67:./.ccls_cache/home/carver/Documents/stm32_with_linux/medical/Libraries/src/max30102.c **** 
 987              		.loc 1 67 3 view .LVU236
 988 0030 AF20     		movs	r0, #175
 989 0032 FFF7FEFF 		bl	MAX30102_IIC_Send_Byte
 990              	.LVL92:
  70:./.ccls_cache/home/carver/Documents/stm32_with_linux/medical/Libraries/src/max30102.c ****     goto cmd_fail; /* EEPROMå™¨ä»¶æ— åº”ç­” */
 991              		.loc 1 70 3 view .LVU237
  70:./.ccls_cache/home/carver/Documents/stm32_with_linux/medical/Libraries/src/max30102.c ****     goto cmd_fail; /* EEPROMå™¨ä»¶æ— åº”ç­” */
 992              		.loc 1 70 7 is_stmt 0 view .LVU238
 993 0036 FFF7FEFF 		bl	MAX30102_IIC_Wait_Ack
 994              	.LVL93:
  70:./.ccls_cache/home/carver/Documents/stm32_with_linux/medical/Libraries/src/max30102.c ****     goto cmd_fail; /* EEPROMå™¨ä»¶æ— åº”ç­” */
 995              		.loc 1 70 6 discriminator 1 view .LVU239
 996 003a 0028     		cmp	r0, #0
 997 003c EAD1     		bne	.L65
  76:./.ccls_cache/home/carver/Documents/stm32_with_linux/medical/Libraries/src/max30102.c **** 
 998              		.loc 1 76 5 is_stmt 1 view .LVU240
  76:./.ccls_cache/home/carver/Documents/stm32_with_linux/medical/Libraries/src/max30102.c **** 
 999              		.loc 1 76 12 is_stmt 0 view .LVU241
 1000 003e FFF7FEFF 		bl	MAX30102_IIC_Read_Byte
 1001              	.LVL94:
 1002 0042 0446     		mov	r4, r0
 1003              	.LVL95:
  78:./.ccls_cache/home/carver/Documents/stm32_with_linux/medical/Libraries/src/max30102.c ****   }
 1004              		.loc 1 78 5 is_stmt 1 view .LVU242
 1005 0044 FFF7FEFF 		bl	MAX30102_IIC_NAck
 1006              	.LVL96:
  81:./.ccls_cache/home/carver/Documents/stm32_with_linux/medical/Libraries/src/max30102.c ****   return data; /* æ‰§è¡ŒæˆåŠŸ è¿”å›dataå€¼ */
 1007              		.loc 1 81 3 view .LVU243
 1008 0048 FFF7FEFF 		bl	MAX30102_IIC_Stop
 1009              	.LVL97:
  82:./.ccls_cache/home/carver/Documents/stm32_with_linux/medical/Libraries/src/max30102.c **** 
 1010              		.loc 1 82 3 view .LVU244
  82:./.ccls_cache/home/carver/Documents/stm32_with_linux/medical/Libraries/src/max30102.c **** 
 1011              		.loc 1 82 10 is_stmt 0 view .LVU245
 1012 004c E5E7     		b	.L66
 1013              		.cfi_endproc
 1014              	.LFE33:
 1016              		.section	.text.max30102_FIFO_ReadWords,"ax",%progbits
ARM GAS  /tmp/ccriZ1yi.s 			page 28


 1017              		.align	1
 1018              		.global	max30102_FIFO_ReadWords
 1019              		.syntax unified
 1020              		.thumb
 1021              		.thumb_func
 1023              	max30102_FIFO_ReadWords:
 1024              	.LVL98:
 1025              	.LFB34:
  91:./.ccls_cache/home/carver/Documents/stm32_with_linux/medical/Libraries/src/max30102.c ****   u8 i = 0;
 1026              		.loc 1 91 40 is_stmt 1 view -0
 1027              		.cfi_startproc
 1028              		@ args = 0, pretend = 0, frame = 0
 1029              		@ frame_needed = 0, uses_anonymous_args = 0
  91:./.ccls_cache/home/carver/Documents/stm32_with_linux/medical/Libraries/src/max30102.c ****   u8 i = 0;
 1030              		.loc 1 91 40 is_stmt 0 view .LVU247
 1031 0000 2DE9F843 		push	{r3, r4, r5, r6, r7, r8, r9, lr}
 1032              	.LCFI22:
 1033              		.cfi_def_cfa_offset 32
 1034              		.cfi_offset 3, -32
 1035              		.cfi_offset 4, -28
 1036              		.cfi_offset 5, -24
 1037              		.cfi_offset 6, -20
 1038              		.cfi_offset 7, -16
 1039              		.cfi_offset 8, -12
 1040              		.cfi_offset 9, -8
 1041              		.cfi_offset 14, -4
 1042 0004 0546     		mov	r5, r0
 1043 0006 0F46     		mov	r7, r1
 1044 0008 1446     		mov	r4, r2
  92:./.ccls_cache/home/carver/Documents/stm32_with_linux/medical/Libraries/src/max30102.c ****   u8 no = count;
 1045              		.loc 1 92 3 is_stmt 1 view .LVU248
 1046              	.LVL99:
  93:./.ccls_cache/home/carver/Documents/stm32_with_linux/medical/Libraries/src/max30102.c ****   u8 data1, data2;
 1047              		.loc 1 93 3 view .LVU249
  94:./.ccls_cache/home/carver/Documents/stm32_with_linux/medical/Libraries/src/max30102.c ****   /* ç¬¬1æ­¥ï¼šå‘èµ·I2Cæ€»çº¿å¯åŠ¨ä¿¡å· */
 1048              		.loc 1 94 3 view .LVU250
  96:./.ccls_cache/home/carver/Documents/stm32_with_linux/medical/Libraries/src/max30102.c **** 
 1049              		.loc 1 96 3 view .LVU251
 1050 000a FFF7FEFF 		bl	MAX30102_IIC_Start
 1051              	.LVL100:
  99:./.ccls_cache/home/carver/Documents/stm32_with_linux/medical/Libraries/src/max30102.c **** 
 1052              		.loc 1 99 3 view .LVU252
 1053 000e AE20     		movs	r0, #174
 1054 0010 FFF7FEFF 		bl	MAX30102_IIC_Send_Byte
 1055              	.LVL101:
 102:./.ccls_cache/home/carver/Documents/stm32_with_linux/medical/Libraries/src/max30102.c ****     goto cmd_fail; /* EEPROMå™¨ä»¶æ— åº”ç­” */
 1056              		.loc 1 102 3 view .LVU253
 102:./.ccls_cache/home/carver/Documents/stm32_with_linux/medical/Libraries/src/max30102.c ****     goto cmd_fail; /* EEPROMå™¨ä»¶æ— åº”ç­” */
 1057              		.loc 1 102 7 is_stmt 0 view .LVU254
 1058 0014 FFF7FEFF 		bl	MAX30102_IIC_Wait_Ack
 1059              	.LVL102:
 102:./.ccls_cache/home/carver/Documents/stm32_with_linux/medical/Libraries/src/max30102.c ****     goto cmd_fail; /* EEPROMå™¨ä»¶æ— åº”ç­” */
 1060              		.loc 1 102 6 discriminator 1 view .LVU255
 1061 0018 18B1     		cbz	r0, .L76
 1062              	.LVL103:
 1063              	.L70:
 148:./.ccls_cache/home/carver/Documents/stm32_with_linux/medical/Libraries/src/max30102.c **** }
ARM GAS  /tmp/ccriZ1yi.s 			page 29


 1064              		.loc 1 148 3 is_stmt 1 view .LVU256
 1065 001a FFF7FEFF 		bl	MAX30102_IIC_Stop
 1066              	.LVL104:
 149:./.ccls_cache/home/carver/Documents/stm32_with_linux/medical/Libraries/src/max30102.c **** 
 1067              		.loc 1 149 1 is_stmt 0 view .LVU257
 1068 001e BDE8F883 		pop	{r3, r4, r5, r6, r7, r8, r9, pc}
 1069              	.LVL105:
 1070              	.L76:
 107:./.ccls_cache/home/carver/Documents/stm32_with_linux/medical/Libraries/src/max30102.c ****   if (MAX30102_IIC_Wait_Ack() != 0) {
 1071              		.loc 1 107 3 is_stmt 1 view .LVU258
 1072 0022 2846     		mov	r0, r5
 1073 0024 FFF7FEFF 		bl	MAX30102_IIC_Send_Byte
 1074              	.LVL106:
 108:./.ccls_cache/home/carver/Documents/stm32_with_linux/medical/Libraries/src/max30102.c ****     goto cmd_fail; /* EEPROMå™¨ä»¶æ— åº”ç­” */
 1075              		.loc 1 108 3 view .LVU259
 108:./.ccls_cache/home/carver/Documents/stm32_with_linux/medical/Libraries/src/max30102.c ****     goto cmd_fail; /* EEPROMå™¨ä»¶æ— åº”ç­” */
 1076              		.loc 1 108 7 is_stmt 0 view .LVU260
 1077 0028 FFF7FEFF 		bl	MAX30102_IIC_Wait_Ack
 1078              	.LVL107:
 108:./.ccls_cache/home/carver/Documents/stm32_with_linux/medical/Libraries/src/max30102.c ****     goto cmd_fail; /* EEPROMå™¨ä»¶æ— åº”ç­” */
 1079              		.loc 1 108 6 discriminator 1 view .LVU261
 1080 002c 0028     		cmp	r0, #0
 1081 002e F4D1     		bne	.L70
 113:./.ccls_cache/home/carver/Documents/stm32_with_linux/medical/Libraries/src/max30102.c **** 
 1082              		.loc 1 113 3 is_stmt 1 view .LVU262
 1083 0030 FFF7FEFF 		bl	MAX30102_IIC_Start
 1084              	.LVL108:
 116:./.ccls_cache/home/carver/Documents/stm32_with_linux/medical/Libraries/src/max30102.c **** 
 1085              		.loc 1 116 3 view .LVU263
 1086 0034 AF20     		movs	r0, #175
 1087 0036 FFF7FEFF 		bl	MAX30102_IIC_Send_Byte
 1088              	.LVL109:
 119:./.ccls_cache/home/carver/Documents/stm32_with_linux/medical/Libraries/src/max30102.c ****     goto cmd_fail; /* EEPROMå™¨ä»¶æ— åº”ç­” */
 1089              		.loc 1 119 3 view .LVU264
 119:./.ccls_cache/home/carver/Documents/stm32_with_linux/medical/Libraries/src/max30102.c ****     goto cmd_fail; /* EEPROMå™¨ä»¶æ— åº”ç­” */
 1090              		.loc 1 119 7 is_stmt 0 view .LVU265
 1091 003a FFF7FEFF 		bl	MAX30102_IIC_Wait_Ack
 1092              	.LVL110:
 119:./.ccls_cache/home/carver/Documents/stm32_with_linux/medical/Libraries/src/max30102.c ****     goto cmd_fail; /* EEPROMå™¨ä»¶æ— åº”ç­” */
 1093              		.loc 1 119 6 discriminator 1 view .LVU266
 1094 003e 0546     		mov	r5, r0
 1095 0040 50B1     		cbz	r0, .L71
 1096 0042 EAE7     		b	.L70
 1097              	.LVL111:
 1098              	.L78:
 135:./.ccls_cache/home/carver/Documents/stm32_with_linux/medical/Libraries/src/max30102.c ****     else
 1099              		.loc 1 135 7 is_stmt 1 view .LVU267
 1100 0044 FFF7FEFF 		bl	MAX30102_IIC_NAck
 1101              	.LVL112:
 1102              	.L73:
 138:./.ccls_cache/home/carver/Documents/stm32_with_linux/medical/Libraries/src/max30102.c **** 
 1103              		.loc 1 138 5 view .LVU268
 138:./.ccls_cache/home/carver/Documents/stm32_with_linux/medical/Libraries/src/max30102.c **** 
 1104              		.loc 1 138 42 is_stmt 0 view .LVU269
 1105 0048 46EA0926 		orr	r6, r6, r9, lsl #8
 1106              	.LVL113:
 138:./.ccls_cache/home/carver/Documents/stm32_with_linux/medical/Libraries/src/max30102.c **** 
ARM GAS  /tmp/ccriZ1yi.s 			page 30


 1107              		.loc 1 138 21 view .LVU270
 1108 004c A8F80260 		strh	r6, [r8, #2]	@ movhi
 140:./.ccls_cache/home/carver/Documents/stm32_with_linux/medical/Libraries/src/max30102.c ****     i++;
 1109              		.loc 1 140 5 is_stmt 1 view .LVU271
 140:./.ccls_cache/home/carver/Documents/stm32_with_linux/medical/Libraries/src/max30102.c ****     i++;
 1110              		.loc 1 140 7 is_stmt 0 view .LVU272
 1111 0050 013C     		subs	r4, r4, #1
 1112              	.LVL114:
 140:./.ccls_cache/home/carver/Documents/stm32_with_linux/medical/Libraries/src/max30102.c ****     i++;
 1113              		.loc 1 140 7 view .LVU273
 1114 0052 E4B2     		uxtb	r4, r4
 1115              	.LVL115:
 141:./.ccls_cache/home/carver/Documents/stm32_with_linux/medical/Libraries/src/max30102.c ****   }
 1116              		.loc 1 141 5 is_stmt 1 view .LVU274
 141:./.ccls_cache/home/carver/Documents/stm32_with_linux/medical/Libraries/src/max30102.c ****   }
 1117              		.loc 1 141 6 is_stmt 0 view .LVU275
 1118 0054 0135     		adds	r5, r5, #1
 1119              	.LVL116:
 141:./.ccls_cache/home/carver/Documents/stm32_with_linux/medical/Libraries/src/max30102.c ****   }
 1120              		.loc 1 141 6 view .LVU276
 1121 0056 EDB2     		uxtb	r5, r5
 1122              	.LVL117:
 1123              	.L71:
 124:./.ccls_cache/home/carver/Documents/stm32_with_linux/medical/Libraries/src/max30102.c ****     data1 = MAX30102_IIC_Read_Byte(0);
 1124              		.loc 1 124 10 is_stmt 1 view .LVU277
 1125 0058 04B3     		cbz	r4, .L77
 125:./.ccls_cache/home/carver/Documents/stm32_with_linux/medical/Libraries/src/max30102.c ****     MAX30102_IIC_Ack();
 1126              		.loc 1 125 5 view .LVU278
 125:./.ccls_cache/home/carver/Documents/stm32_with_linux/medical/Libraries/src/max30102.c ****     MAX30102_IIC_Ack();
 1127              		.loc 1 125 13 is_stmt 0 view .LVU279
 1128 005a 0020     		movs	r0, #0
 1129 005c FFF7FEFF 		bl	MAX30102_IIC_Read_Byte
 1130              	.LVL118:
 1131 0060 8146     		mov	r9, r0
 1132              	.LVL119:
 126:./.ccls_cache/home/carver/Documents/stm32_with_linux/medical/Libraries/src/max30102.c ****     data2 = MAX30102_IIC_Read_Byte(0);
 1133              		.loc 1 126 5 is_stmt 1 view .LVU280
 1134 0062 FFF7FEFF 		bl	MAX30102_IIC_Ack
 1135              	.LVL120:
 127:./.ccls_cache/home/carver/Documents/stm32_with_linux/medical/Libraries/src/max30102.c ****     MAX30102_IIC_Ack();
 1136              		.loc 1 127 5 view .LVU281
 127:./.ccls_cache/home/carver/Documents/stm32_with_linux/medical/Libraries/src/max30102.c ****     MAX30102_IIC_Ack();
 1137              		.loc 1 127 13 is_stmt 0 view .LVU282
 1138 0066 0020     		movs	r0, #0
 1139 0068 FFF7FEFF 		bl	MAX30102_IIC_Read_Byte
 1140              	.LVL121:
 1141 006c 0646     		mov	r6, r0
 1142              	.LVL122:
 128:./.ccls_cache/home/carver/Documents/stm32_with_linux/medical/Libraries/src/max30102.c ****     Word_Data[i][0] = (((u16)data1 << 8) | data2); //
 1143              		.loc 1 128 5 is_stmt 1 view .LVU283
 1144 006e FFF7FEFF 		bl	MAX30102_IIC_Ack
 1145              	.LVL123:
 129:./.ccls_cache/home/carver/Documents/stm32_with_linux/medical/Libraries/src/max30102.c **** 
 1146              		.loc 1 129 5 view .LVU284
 129:./.ccls_cache/home/carver/Documents/stm32_with_linux/medical/Libraries/src/max30102.c **** 
 1147              		.loc 1 129 14 is_stmt 0 view .LVU285
 1148 0072 07EB8508 		add	r8, r7, r5, lsl #2
ARM GAS  /tmp/ccriZ1yi.s 			page 31


 129:./.ccls_cache/home/carver/Documents/stm32_with_linux/medical/Libraries/src/max30102.c **** 
 1149              		.loc 1 129 42 view .LVU286
 1150 0076 46EA0926 		orr	r6, r6, r9, lsl #8
 1151              	.LVL124:
 129:./.ccls_cache/home/carver/Documents/stm32_with_linux/medical/Libraries/src/max30102.c **** 
 1152              		.loc 1 129 21 view .LVU287
 1153 007a 27F82560 		strh	r6, [r7, r5, lsl #2]	@ movhi
 131:./.ccls_cache/home/carver/Documents/stm32_with_linux/medical/Libraries/src/max30102.c ****     MAX30102_IIC_Ack();
 1154              		.loc 1 131 5 is_stmt 1 view .LVU288
 131:./.ccls_cache/home/carver/Documents/stm32_with_linux/medical/Libraries/src/max30102.c ****     MAX30102_IIC_Ack();
 1155              		.loc 1 131 13 is_stmt 0 view .LVU289
 1156 007e 0020     		movs	r0, #0
 1157 0080 FFF7FEFF 		bl	MAX30102_IIC_Read_Byte
 1158              	.LVL125:
 1159 0084 8146     		mov	r9, r0
 1160              	.LVL126:
 132:./.ccls_cache/home/carver/Documents/stm32_with_linux/medical/Libraries/src/max30102.c ****     data2 = MAX30102_IIC_Read_Byte(0);
 1161              		.loc 1 132 5 is_stmt 1 view .LVU290
 1162 0086 FFF7FEFF 		bl	MAX30102_IIC_Ack
 1163              	.LVL127:
 133:./.ccls_cache/home/carver/Documents/stm32_with_linux/medical/Libraries/src/max30102.c ****     if (1 == no)
 1164              		.loc 1 133 5 view .LVU291
 133:./.ccls_cache/home/carver/Documents/stm32_with_linux/medical/Libraries/src/max30102.c ****     if (1 == no)
 1165              		.loc 1 133 13 is_stmt 0 view .LVU292
 1166 008a 0020     		movs	r0, #0
 1167 008c FFF7FEFF 		bl	MAX30102_IIC_Read_Byte
 1168              	.LVL128:
 1169 0090 0646     		mov	r6, r0
 1170              	.LVL129:
 134:./.ccls_cache/home/carver/Documents/stm32_with_linux/medical/Libraries/src/max30102.c ****       MAX30102_IIC_NAck(); /* æœ€å1ä¸ªå­—èŠ‚è¯»å®Œåï¼ŒCPUäº§ç”ŸNACKä¿¡å·(é©±åŠ¨SDA = 1) */
 1171              		.loc 1 134 5 is_stmt 1 view .LVU293
 134:./.ccls_cache/home/carver/Documents/stm32_with_linux/medical/Libraries/src/max30102.c ****       MAX30102_IIC_NAck(); /* æœ€å1ä¸ªå­—èŠ‚è¯»å®Œåï¼ŒCPUäº§ç”ŸNACKä¿¡å·(é©±åŠ¨SDA = 1) */
 1172              		.loc 1 134 8 is_stmt 0 view .LVU294
 1173 0092 012C     		cmp	r4, #1
 1174 0094 D6D0     		beq	.L78
 137:./.ccls_cache/home/carver/Documents/stm32_with_linux/medical/Libraries/src/max30102.c ****     Word_Data[i][1] = (((u16)data1 << 8) | data2);
 1175              		.loc 1 137 7 is_stmt 1 view .LVU295
 1176 0096 FFF7FEFF 		bl	MAX30102_IIC_Ack
 1177              	.LVL130:
 1178 009a D5E7     		b	.L73
 1179              	.LVL131:
 1180              	.L77:
 144:./.ccls_cache/home/carver/Documents/stm32_with_linux/medical/Libraries/src/max30102.c **** 
 1181              		.loc 1 144 3 view .LVU296
 1182 009c FFF7FEFF 		bl	MAX30102_IIC_Stop
 1183              	.LVL132:
 1184 00a0 BBE7     		b	.L70
 1185              		.cfi_endproc
 1186              	.LFE34:
 1188              		.section	.text.max30102_FIFO_ReadBytes,"ax",%progbits
 1189              		.align	1
 1190              		.global	max30102_FIFO_ReadBytes
 1191              		.syntax unified
 1192              		.thumb
 1193              		.thumb_func
 1195              	max30102_FIFO_ReadBytes:
 1196              	.LVL133:
ARM GAS  /tmp/ccriZ1yi.s 			page 32


 1197              	.LFB35:
 151:./.ccls_cache/home/carver/Documents/stm32_with_linux/medical/Libraries/src/max30102.c ****   max30102_Bus_Read(REG_INTR_STATUS_1);
 1198              		.loc 1 151 61 view -0
 1199              		.cfi_startproc
 1200              		@ args = 0, pretend = 0, frame = 0
 1201              		@ frame_needed = 0, uses_anonymous_args = 0
 151:./.ccls_cache/home/carver/Documents/stm32_with_linux/medical/Libraries/src/max30102.c ****   max30102_Bus_Read(REG_INTR_STATUS_1);
 1202              		.loc 1 151 61 is_stmt 0 view .LVU298
 1203 0000 38B5     		push	{r3, r4, r5, lr}
 1204              	.LCFI23:
 1205              		.cfi_def_cfa_offset 16
 1206              		.cfi_offset 3, -16
 1207              		.cfi_offset 4, -12
 1208              		.cfi_offset 5, -8
 1209              		.cfi_offset 14, -4
 1210 0002 0446     		mov	r4, r0
 1211 0004 0D46     		mov	r5, r1
 152:./.ccls_cache/home/carver/Documents/stm32_with_linux/medical/Libraries/src/max30102.c ****   max30102_Bus_Read(REG_INTR_STATUS_2);
 1212              		.loc 1 152 3 is_stmt 1 view .LVU299
 1213 0006 0020     		movs	r0, #0
 1214              	.LVL134:
 152:./.ccls_cache/home/carver/Documents/stm32_with_linux/medical/Libraries/src/max30102.c ****   max30102_Bus_Read(REG_INTR_STATUS_2);
 1215              		.loc 1 152 3 is_stmt 0 view .LVU300
 1216 0008 FFF7FEFF 		bl	max30102_Bus_Read
 1217              	.LVL135:
 153:./.ccls_cache/home/carver/Documents/stm32_with_linux/medical/Libraries/src/max30102.c **** 
 1218              		.loc 1 153 3 is_stmt 1 view .LVU301
 1219 000c 0120     		movs	r0, #1
 1220 000e FFF7FEFF 		bl	max30102_Bus_Read
 1221              	.LVL136:
 156:./.ccls_cache/home/carver/Documents/stm32_with_linux/medical/Libraries/src/max30102.c **** 
 1222              		.loc 1 156 3 view .LVU302
 1223 0012 FFF7FEFF 		bl	MAX30102_IIC_Start
 1224              	.LVL137:
 159:./.ccls_cache/home/carver/Documents/stm32_with_linux/medical/Libraries/src/max30102.c **** 
 1225              		.loc 1 159 3 view .LVU303
 1226 0016 AE20     		movs	r0, #174
 1227 0018 FFF7FEFF 		bl	MAX30102_IIC_Send_Byte
 1228              	.LVL138:
 162:./.ccls_cache/home/carver/Documents/stm32_with_linux/medical/Libraries/src/max30102.c ****     goto cmd_fail; /* EEPROMå™¨ä»¶æ— åº”ç­” */
 1229              		.loc 1 162 3 view .LVU304
 162:./.ccls_cache/home/carver/Documents/stm32_with_linux/medical/Libraries/src/max30102.c ****     goto cmd_fail; /* EEPROMå™¨ä»¶æ— åº”ç­” */
 1230              		.loc 1 162 7 is_stmt 0 view .LVU305
 1231 001c FFF7FEFF 		bl	MAX30102_IIC_Wait_Ack
 1232              	.LVL139:
 162:./.ccls_cache/home/carver/Documents/stm32_with_linux/medical/Libraries/src/max30102.c ****     goto cmd_fail; /* EEPROMå™¨ä»¶æ— åº”ç­” */
 1233              		.loc 1 162 6 discriminator 1 view .LVU306
 1234 0020 10B1     		cbz	r0, .L82
 1235              	.L80:
 196:./.ccls_cache/home/carver/Documents/stm32_with_linux/medical/Libraries/src/max30102.c **** 
 1236              		.loc 1 196 3 is_stmt 1 view .LVU307
 1237 0022 FFF7FEFF 		bl	MAX30102_IIC_Stop
 1238              	.LVL140:
 215:./.ccls_cache/home/carver/Documents/stm32_with_linux/medical/Libraries/src/max30102.c **** 
 1239              		.loc 1 215 1 is_stmt 0 view .LVU308
 1240 0026 38BD     		pop	{r3, r4, r5, pc}
 1241              	.LVL141:
ARM GAS  /tmp/ccriZ1yi.s 			page 33


 1242              	.L82:
 167:./.ccls_cache/home/carver/Documents/stm32_with_linux/medical/Libraries/src/max30102.c ****   if (MAX30102_IIC_Wait_Ack() != 0) {
 1243              		.loc 1 167 3 is_stmt 1 view .LVU309
 1244 0028 2046     		mov	r0, r4
 1245 002a FFF7FEFF 		bl	MAX30102_IIC_Send_Byte
 1246              	.LVL142:
 168:./.ccls_cache/home/carver/Documents/stm32_with_linux/medical/Libraries/src/max30102.c ****     goto cmd_fail; /* EEPROMå™¨ä»¶æ— åº”ç­” */
 1247              		.loc 1 168 3 view .LVU310
 168:./.ccls_cache/home/carver/Documents/stm32_with_linux/medical/Libraries/src/max30102.c ****     goto cmd_fail; /* EEPROMå™¨ä»¶æ— åº”ç­” */
 1248              		.loc 1 168 7 is_stmt 0 view .LVU311
 1249 002e FFF7FEFF 		bl	MAX30102_IIC_Wait_Ack
 1250              	.LVL143:
 168:./.ccls_cache/home/carver/Documents/stm32_with_linux/medical/Libraries/src/max30102.c ****     goto cmd_fail; /* EEPROMå™¨ä»¶æ— åº”ç­” */
 1251              		.loc 1 168 6 discriminator 1 view .LVU312
 1252 0032 0028     		cmp	r0, #0
 1253 0034 F5D1     		bne	.L80
 173:./.ccls_cache/home/carver/Documents/stm32_with_linux/medical/Libraries/src/max30102.c **** 
 1254              		.loc 1 173 3 is_stmt 1 view .LVU313
 1255 0036 FFF7FEFF 		bl	MAX30102_IIC_Start
 1256              	.LVL144:
 176:./.ccls_cache/home/carver/Documents/stm32_with_linux/medical/Libraries/src/max30102.c **** 
 1257              		.loc 1 176 3 view .LVU314
 1258 003a AF20     		movs	r0, #175
 1259 003c FFF7FEFF 		bl	MAX30102_IIC_Send_Byte
 1260              	.LVL145:
 179:./.ccls_cache/home/carver/Documents/stm32_with_linux/medical/Libraries/src/max30102.c ****     goto cmd_fail; /* EEPROMå™¨ä»¶æ— åº”ç­” */
 1261              		.loc 1 179 3 view .LVU315
 179:./.ccls_cache/home/carver/Documents/stm32_with_linux/medical/Libraries/src/max30102.c ****     goto cmd_fail; /* EEPROMå™¨ä»¶æ— åº”ç­” */
 1262              		.loc 1 179 7 is_stmt 0 view .LVU316
 1263 0040 FFF7FEFF 		bl	MAX30102_IIC_Wait_Ack
 1264              	.LVL146:
 179:./.ccls_cache/home/carver/Documents/stm32_with_linux/medical/Libraries/src/max30102.c ****     goto cmd_fail; /* EEPROMå™¨ä»¶æ— åº”ç­” */
 1265              		.loc 1 179 6 discriminator 1 view .LVU317
 1266 0044 0028     		cmp	r0, #0
 1267 0046 ECD1     		bne	.L80
 184:./.ccls_cache/home/carver/Documents/stm32_with_linux/medical/Libraries/src/max30102.c ****   Data[1] = MAX30102_IIC_Read_Byte(1);
 1268              		.loc 1 184 3 is_stmt 1 view .LVU318
 184:./.ccls_cache/home/carver/Documents/stm32_with_linux/medical/Libraries/src/max30102.c ****   Data[1] = MAX30102_IIC_Read_Byte(1);
 1269              		.loc 1 184 13 is_stmt 0 view .LVU319
 1270 0048 0120     		movs	r0, #1
 1271 004a FFF7FEFF 		bl	MAX30102_IIC_Read_Byte
 1272              	.LVL147:
 184:./.ccls_cache/home/carver/Documents/stm32_with_linux/medical/Libraries/src/max30102.c ****   Data[1] = MAX30102_IIC_Read_Byte(1);
 1273              		.loc 1 184 11 discriminator 1 view .LVU320
 1274 004e 2870     		strb	r0, [r5]
 185:./.ccls_cache/home/carver/Documents/stm32_with_linux/medical/Libraries/src/max30102.c ****   Data[2] = MAX30102_IIC_Read_Byte(1);
 1275              		.loc 1 185 3 is_stmt 1 view .LVU321
 185:./.ccls_cache/home/carver/Documents/stm32_with_linux/medical/Libraries/src/max30102.c ****   Data[2] = MAX30102_IIC_Read_Byte(1);
 1276              		.loc 1 185 13 is_stmt 0 view .LVU322
 1277 0050 0120     		movs	r0, #1
 1278 0052 FFF7FEFF 		bl	MAX30102_IIC_Read_Byte
 1279              	.LVL148:
 185:./.ccls_cache/home/carver/Documents/stm32_with_linux/medical/Libraries/src/max30102.c ****   Data[2] = MAX30102_IIC_Read_Byte(1);
 1280              		.loc 1 185 11 discriminator 1 view .LVU323
 1281 0056 6870     		strb	r0, [r5, #1]
 186:./.ccls_cache/home/carver/Documents/stm32_with_linux/medical/Libraries/src/max30102.c ****   Data[3] = MAX30102_IIC_Read_Byte(1);
 1282              		.loc 1 186 3 is_stmt 1 view .LVU324
ARM GAS  /tmp/ccriZ1yi.s 			page 34


 186:./.ccls_cache/home/carver/Documents/stm32_with_linux/medical/Libraries/src/max30102.c ****   Data[3] = MAX30102_IIC_Read_Byte(1);
 1283              		.loc 1 186 13 is_stmt 0 view .LVU325
 1284 0058 0120     		movs	r0, #1
 1285 005a FFF7FEFF 		bl	MAX30102_IIC_Read_Byte
 1286              	.LVL149:
 186:./.ccls_cache/home/carver/Documents/stm32_with_linux/medical/Libraries/src/max30102.c ****   Data[3] = MAX30102_IIC_Read_Byte(1);
 1287              		.loc 1 186 11 discriminator 1 view .LVU326
 1288 005e A870     		strb	r0, [r5, #2]
 187:./.ccls_cache/home/carver/Documents/stm32_with_linux/medical/Libraries/src/max30102.c ****   Data[4] = MAX30102_IIC_Read_Byte(1);
 1289              		.loc 1 187 3 is_stmt 1 view .LVU327
 187:./.ccls_cache/home/carver/Documents/stm32_with_linux/medical/Libraries/src/max30102.c ****   Data[4] = MAX30102_IIC_Read_Byte(1);
 1290              		.loc 1 187 13 is_stmt 0 view .LVU328
 1291 0060 0120     		movs	r0, #1
 1292 0062 FFF7FEFF 		bl	MAX30102_IIC_Read_Byte
 1293              	.LVL150:
 187:./.ccls_cache/home/carver/Documents/stm32_with_linux/medical/Libraries/src/max30102.c ****   Data[4] = MAX30102_IIC_Read_Byte(1);
 1294              		.loc 1 187 11 discriminator 1 view .LVU329
 1295 0066 E870     		strb	r0, [r5, #3]
 188:./.ccls_cache/home/carver/Documents/stm32_with_linux/medical/Libraries/src/max30102.c ****   Data[5] = MAX30102_IIC_Read_Byte(0);
 1296              		.loc 1 188 3 is_stmt 1 view .LVU330
 188:./.ccls_cache/home/carver/Documents/stm32_with_linux/medical/Libraries/src/max30102.c ****   Data[5] = MAX30102_IIC_Read_Byte(0);
 1297              		.loc 1 188 13 is_stmt 0 view .LVU331
 1298 0068 0120     		movs	r0, #1
 1299 006a FFF7FEFF 		bl	MAX30102_IIC_Read_Byte
 1300              	.LVL151:
 188:./.ccls_cache/home/carver/Documents/stm32_with_linux/medical/Libraries/src/max30102.c ****   Data[5] = MAX30102_IIC_Read_Byte(0);
 1301              		.loc 1 188 11 discriminator 1 view .LVU332
 1302 006e 2871     		strb	r0, [r5, #4]
 189:./.ccls_cache/home/carver/Documents/stm32_with_linux/medical/Libraries/src/max30102.c ****   /* æœ€å1ä¸ªå­—èŠ‚è¯»å®Œåï¼ŒCPUäº§ç”ŸNACKä¿¡å·(é©±åŠ¨SDA = 1) */
 1303              		.loc 1 189 3 is_stmt 1 view .LVU333
 189:./.ccls_cache/home/carver/Documents/stm32_with_linux/medical/Libraries/src/max30102.c ****   /* æœ€å1ä¸ªå­—èŠ‚è¯»å®Œåï¼ŒCPUäº§ç”ŸNACKä¿¡å·(é©±åŠ¨SDA = 1) */
 1304              		.loc 1 189 13 is_stmt 0 view .LVU334
 1305 0070 0020     		movs	r0, #0
 1306 0072 FFF7FEFF 		bl	MAX30102_IIC_Read_Byte
 1307              	.LVL152:
 189:./.ccls_cache/home/carver/Documents/stm32_with_linux/medical/Libraries/src/max30102.c ****   /* æœ€å1ä¸ªå­—èŠ‚è¯»å®Œåï¼ŒCPUäº§ç”ŸNACKä¿¡å·(é©±åŠ¨SDA = 1) */
 1308              		.loc 1 189 11 discriminator 1 view .LVU335
 1309 0076 6871     		strb	r0, [r5, #5]
 192:./.ccls_cache/home/carver/Documents/stm32_with_linux/medical/Libraries/src/max30102.c **** 
 1310              		.loc 1 192 3 is_stmt 1 view .LVU336
 1311 0078 FFF7FEFF 		bl	MAX30102_IIC_Stop
 1312              	.LVL153:
 1313 007c D1E7     		b	.L80
 1314              		.cfi_endproc
 1315              	.LFE35:
 1317              		.section	.text.MAX30102_IIC_WriteBytes,"ax",%progbits
 1318              		.align	1
 1319              		.global	MAX30102_IIC_WriteBytes
 1320              		.syntax unified
 1321              		.thumb
 1322              		.thumb_func
 1324              	MAX30102_IIC_WriteBytes:
 1325              	.LVL154:
 1326              	.LFB51:
 453:./.ccls_cache/home/carver/Documents/stm32_with_linux/medical/Libraries/src/max30102.c **** 
 454:./.ccls_cache/home/carver/Documents/stm32_with_linux/medical/Libraries/src/max30102.c **** void MAX30102_IIC_WriteBytes(u8 WriteAddr, u8 *data, u8 dataLength) {
 1327              		.loc 1 454 69 view -0
ARM GAS  /tmp/ccriZ1yi.s 			page 35


 1328              		.cfi_startproc
 1329              		@ args = 0, pretend = 0, frame = 0
 1330              		@ frame_needed = 0, uses_anonymous_args = 0
 1331              		.loc 1 454 69 is_stmt 0 view .LVU338
 1332 0000 70B5     		push	{r4, r5, r6, lr}
 1333              	.LCFI24:
 1334              		.cfi_def_cfa_offset 16
 1335              		.cfi_offset 4, -16
 1336              		.cfi_offset 5, -12
 1337              		.cfi_offset 6, -8
 1338              		.cfi_offset 14, -4
 1339 0002 0446     		mov	r4, r0
 1340 0004 0E46     		mov	r6, r1
 1341 0006 1546     		mov	r5, r2
 455:./.ccls_cache/home/carver/Documents/stm32_with_linux/medical/Libraries/src/max30102.c ****   u8 i;
 1342              		.loc 1 455 3 is_stmt 1 view .LVU339
 456:./.ccls_cache/home/carver/Documents/stm32_with_linux/medical/Libraries/src/max30102.c ****   MAX30102_IIC_Start();
 1343              		.loc 1 456 3 view .LVU340
 1344 0008 FFF7FEFF 		bl	MAX30102_IIC_Start
 1345              	.LVL155:
 457:./.ccls_cache/home/carver/Documents/stm32_with_linux/medical/Libraries/src/max30102.c **** 
 458:./.ccls_cache/home/carver/Documents/stm32_with_linux/medical/Libraries/src/max30102.c ****   MAX30102_IIC_Send_Byte(WriteAddr); // å‘é€å†™å‘½ä»¤
 1346              		.loc 1 458 3 view .LVU341
 1347 000c 2046     		mov	r0, r4
 1348 000e FFF7FEFF 		bl	MAX30102_IIC_Send_Byte
 1349              	.LVL156:
 459:./.ccls_cache/home/carver/Documents/stm32_with_linux/medical/Libraries/src/max30102.c ****   MAX30102_IIC_Wait_Ack();
 1350              		.loc 1 459 3 view .LVU342
 1351 0012 FFF7FEFF 		bl	MAX30102_IIC_Wait_Ack
 1352              	.LVL157:
 460:./.ccls_cache/home/carver/Documents/stm32_with_linux/medical/Libraries/src/max30102.c **** 
 461:./.ccls_cache/home/carver/Documents/stm32_with_linux/medical/Libraries/src/max30102.c ****   for (i = 0; i < dataLength; i++) {
 1353              		.loc 1 461 3 view .LVU343
 1354              		.loc 1 461 10 is_stmt 0 view .LVU344
 1355 0016 0024     		movs	r4, #0
 1356              	.LVL158:
 1357              		.loc 1 461 3 view .LVU345
 1358 0018 06E0     		b	.L84
 1359              	.LVL159:
 1360              	.L85:
 462:./.ccls_cache/home/carver/Documents/stm32_with_linux/medical/Libraries/src/max30102.c ****     MAX30102_IIC_Send_Byte(data[i]);
 1361              		.loc 1 462 5 is_stmt 1 view .LVU346
 1362 001a 305D     		ldrb	r0, [r6, r4]	@ zero_extendqisi2
 1363 001c FFF7FEFF 		bl	MAX30102_IIC_Send_Byte
 1364              	.LVL160:
 463:./.ccls_cache/home/carver/Documents/stm32_with_linux/medical/Libraries/src/max30102.c ****     MAX30102_IIC_Wait_Ack();
 1365              		.loc 1 463 5 view .LVU347
 1366 0020 FFF7FEFF 		bl	MAX30102_IIC_Wait_Ack
 1367              	.LVL161:
 461:./.ccls_cache/home/carver/Documents/stm32_with_linux/medical/Libraries/src/max30102.c ****     MAX30102_IIC_Send_Byte(data[i]);
 1368              		.loc 1 461 32 discriminator 3 view .LVU348
 1369 0024 0134     		adds	r4, r4, #1
 1370              	.LVL162:
 461:./.ccls_cache/home/carver/Documents/stm32_with_linux/medical/Libraries/src/max30102.c ****     MAX30102_IIC_Send_Byte(data[i]);
 1371              		.loc 1 461 32 is_stmt 0 discriminator 3 view .LVU349
 1372 0026 E4B2     		uxtb	r4, r4
 1373              	.LVL163:
ARM GAS  /tmp/ccriZ1yi.s 			page 36


 1374              	.L84:
 461:./.ccls_cache/home/carver/Documents/stm32_with_linux/medical/Libraries/src/max30102.c ****     MAX30102_IIC_Send_Byte(data[i]);
 1375              		.loc 1 461 17 is_stmt 1 discriminator 1 view .LVU350
 1376 0028 AC42     		cmp	r4, r5
 1377 002a F6D3     		bcc	.L85
 464:./.ccls_cache/home/carver/Documents/stm32_with_linux/medical/Libraries/src/max30102.c ****   }
 465:./.ccls_cache/home/carver/Documents/stm32_with_linux/medical/Libraries/src/max30102.c ****   MAX30102_IIC_Stop(); // äº§ç”Ÿä¸€ä¸ªåœæ­¢æ¡ä»¶
 1378              		.loc 1 465 3 view .LVU351
 1379 002c FFF7FEFF 		bl	MAX30102_IIC_Stop
 1380              	.LVL164:
 466:./.ccls_cache/home/carver/Documents/stm32_with_linux/medical/Libraries/src/max30102.c ****   Delay_ms(10);
 1381              		.loc 1 466 3 view .LVU352
 1382 0030 0A20     		movs	r0, #10
 1383 0032 FFF7FEFF 		bl	Delay_ms
 1384              	.LVL165:
 467:./.ccls_cache/home/carver/Documents/stm32_with_linux/medical/Libraries/src/max30102.c **** }
 1385              		.loc 1 467 1 is_stmt 0 view .LVU353
 1386 0036 70BD     		pop	{r4, r5, r6, pc}
 1387              		.loc 1 467 1 view .LVU354
 1388              		.cfi_endproc
 1389              	.LFE51:
 1391              		.section	.text.MAX30102_IIC_ReadBytes,"ax",%progbits
 1392              		.align	1
 1393              		.global	MAX30102_IIC_ReadBytes
 1394              		.syntax unified
 1395              		.thumb
 1396              		.thumb_func
 1398              	MAX30102_IIC_ReadBytes:
 1399              	.LVL166:
 1400              	.LFB52:
 468:./.ccls_cache/home/carver/Documents/stm32_with_linux/medical/Libraries/src/max30102.c **** 
 469:./.ccls_cache/home/carver/Documents/stm32_with_linux/medical/Libraries/src/max30102.c **** void MAX30102_IIC_ReadBytes(u8 deviceAddr, u8 writeAddr, u8 *data,
 470:./.ccls_cache/home/carver/Documents/stm32_with_linux/medical/Libraries/src/max30102.c ****                             u8 dataLength) {
 1401              		.loc 1 470 44 is_stmt 1 view -0
 1402              		.cfi_startproc
 1403              		@ args = 0, pretend = 0, frame = 0
 1404              		@ frame_needed = 0, uses_anonymous_args = 0
 1405              		.loc 1 470 44 is_stmt 0 view .LVU356
 1406 0000 F8B5     		push	{r3, r4, r5, r6, r7, lr}
 1407              	.LCFI25:
 1408              		.cfi_def_cfa_offset 24
 1409              		.cfi_offset 3, -24
 1410              		.cfi_offset 4, -20
 1411              		.cfi_offset 5, -16
 1412              		.cfi_offset 6, -12
 1413              		.cfi_offset 7, -8
 1414              		.cfi_offset 14, -4
 1415 0002 0446     		mov	r4, r0
 1416 0004 0F46     		mov	r7, r1
 1417 0006 1646     		mov	r6, r2
 1418 0008 1D46     		mov	r5, r3
 471:./.ccls_cache/home/carver/Documents/stm32_with_linux/medical/Libraries/src/max30102.c ****   u8 i;
 1419              		.loc 1 471 3 is_stmt 1 view .LVU357
 472:./.ccls_cache/home/carver/Documents/stm32_with_linux/medical/Libraries/src/max30102.c ****   MAX30102_IIC_Start();
 1420              		.loc 1 472 3 view .LVU358
 1421 000a FFF7FEFF 		bl	MAX30102_IIC_Start
 1422              	.LVL167:
ARM GAS  /tmp/ccriZ1yi.s 			page 37


 473:./.ccls_cache/home/carver/Documents/stm32_with_linux/medical/Libraries/src/max30102.c **** 
 474:./.ccls_cache/home/carver/Documents/stm32_with_linux/medical/Libraries/src/max30102.c ****   MAX30102_IIC_Send_Byte(deviceAddr); // å‘é€å†™å‘½ä»¤
 1423              		.loc 1 474 3 view .LVU359
 1424 000e 2046     		mov	r0, r4
 1425 0010 FFF7FEFF 		bl	MAX30102_IIC_Send_Byte
 1426              	.LVL168:
 475:./.ccls_cache/home/carver/Documents/stm32_with_linux/medical/Libraries/src/max30102.c ****   MAX30102_IIC_Wait_Ack();
 1427              		.loc 1 475 3 view .LVU360
 1428 0014 FFF7FEFF 		bl	MAX30102_IIC_Wait_Ack
 1429              	.LVL169:
 476:./.ccls_cache/home/carver/Documents/stm32_with_linux/medical/Libraries/src/max30102.c ****   MAX30102_IIC_Send_Byte(writeAddr);
 1430              		.loc 1 476 3 view .LVU361
 1431 0018 3846     		mov	r0, r7
 1432 001a FFF7FEFF 		bl	MAX30102_IIC_Send_Byte
 1433              	.LVL170:
 477:./.ccls_cache/home/carver/Documents/stm32_with_linux/medical/Libraries/src/max30102.c ****   MAX30102_IIC_Wait_Ack();
 1434              		.loc 1 477 3 view .LVU362
 1435 001e FFF7FEFF 		bl	MAX30102_IIC_Wait_Ack
 1436              	.LVL171:
 478:./.ccls_cache/home/carver/Documents/stm32_with_linux/medical/Libraries/src/max30102.c ****   MAX30102_IIC_Send_Byte(deviceAddr | 0X01); // è¿›å…¥æ¥æ”¶æ¨¡å¼
 1437              		.loc 1 478 3 view .LVU363
 1438 0022 44F00100 		orr	r0, r4, #1
 1439 0026 FFF7FEFF 		bl	MAX30102_IIC_Send_Byte
 1440              	.LVL172:
 479:./.ccls_cache/home/carver/Documents/stm32_with_linux/medical/Libraries/src/max30102.c ****   MAX30102_IIC_Wait_Ack();
 1441              		.loc 1 479 3 view .LVU364
 1442 002a FFF7FEFF 		bl	MAX30102_IIC_Wait_Ack
 1443              	.LVL173:
 480:./.ccls_cache/home/carver/Documents/stm32_with_linux/medical/Libraries/src/max30102.c **** 
 481:./.ccls_cache/home/carver/Documents/stm32_with_linux/medical/Libraries/src/max30102.c ****   for (i = 0; i < dataLength - 1; i++) {
 1444              		.loc 1 481 3 view .LVU365
 1445              		.loc 1 481 10 is_stmt 0 view .LVU366
 1446 002e 0024     		movs	r4, #0
 1447              	.LVL174:
 1448              		.loc 1 481 3 view .LVU367
 1449 0030 05E0     		b	.L88
 1450              	.LVL175:
 1451              	.L89:
 482:./.ccls_cache/home/carver/Documents/stm32_with_linux/medical/Libraries/src/max30102.c ****     data[i] = MAX30102_IIC_Read_Byte(1);
 1452              		.loc 1 482 5 is_stmt 1 view .LVU368
 1453              		.loc 1 482 15 is_stmt 0 view .LVU369
 1454 0032 0120     		movs	r0, #1
 1455 0034 FFF7FEFF 		bl	MAX30102_IIC_Read_Byte
 1456              	.LVL176:
 1457              		.loc 1 482 13 discriminator 1 view .LVU370
 1458 0038 3055     		strb	r0, [r6, r4]
 481:./.ccls_cache/home/carver/Documents/stm32_with_linux/medical/Libraries/src/max30102.c ****     data[i] = MAX30102_IIC_Read_Byte(1);
 1459              		.loc 1 481 36 is_stmt 1 discriminator 3 view .LVU371
 1460 003a 0134     		adds	r4, r4, #1
 1461              	.LVL177:
 481:./.ccls_cache/home/carver/Documents/stm32_with_linux/medical/Libraries/src/max30102.c ****     data[i] = MAX30102_IIC_Read_Byte(1);
 1462              		.loc 1 481 36 is_stmt 0 discriminator 3 view .LVU372
 1463 003c E4B2     		uxtb	r4, r4
 1464              	.LVL178:
 1465              	.L88:
 481:./.ccls_cache/home/carver/Documents/stm32_with_linux/medical/Libraries/src/max30102.c ****     data[i] = MAX30102_IIC_Read_Byte(1);
 1466              		.loc 1 481 17 is_stmt 1 discriminator 1 view .LVU373
ARM GAS  /tmp/ccriZ1yi.s 			page 38


 481:./.ccls_cache/home/carver/Documents/stm32_with_linux/medical/Libraries/src/max30102.c ****     data[i] = MAX30102_IIC_Read_Byte(1);
 1467              		.loc 1 481 30 is_stmt 0 discriminator 1 view .LVU374
 1468 003e 691E     		subs	r1, r5, #1
 481:./.ccls_cache/home/carver/Documents/stm32_with_linux/medical/Libraries/src/max30102.c ****     data[i] = MAX30102_IIC_Read_Byte(1);
 1469              		.loc 1 481 17 discriminator 1 view .LVU375
 1470 0040 8C42     		cmp	r4, r1
 1471 0042 F6DB     		blt	.L89
 483:./.ccls_cache/home/carver/Documents/stm32_with_linux/medical/Libraries/src/max30102.c ****   }
 484:./.ccls_cache/home/carver/Documents/stm32_with_linux/medical/Libraries/src/max30102.c ****   data[dataLength - 1] = MAX30102_IIC_Read_Byte(0);
 1472              		.loc 1 484 3 is_stmt 1 view .LVU376
 1473              		.loc 1 484 7 is_stmt 0 view .LVU377
 1474 0044 0D46     		mov	r5, r1
 1475              	.LVL179:
 1476              		.loc 1 484 26 view .LVU378
 1477 0046 0020     		movs	r0, #0
 1478 0048 FFF7FEFF 		bl	MAX30102_IIC_Read_Byte
 1479              	.LVL180:
 1480              		.loc 1 484 24 discriminator 1 view .LVU379
 1481 004c 7055     		strb	r0, [r6, r5]
 485:./.ccls_cache/home/carver/Documents/stm32_with_linux/medical/Libraries/src/max30102.c ****   MAX30102_IIC_Stop(); // äº§ç”Ÿä¸€ä¸ªåœæ­¢æ¡ä»¶
 1482              		.loc 1 485 3 is_stmt 1 view .LVU380
 1483 004e FFF7FEFF 		bl	MAX30102_IIC_Stop
 1484              	.LVL181:
 486:./.ccls_cache/home/carver/Documents/stm32_with_linux/medical/Libraries/src/max30102.c ****   Delay_ms(10);
 1485              		.loc 1 486 3 view .LVU381
 1486 0052 0A20     		movs	r0, #10
 1487 0054 FFF7FEFF 		bl	Delay_ms
 1488              	.LVL182:
 487:./.ccls_cache/home/carver/Documents/stm32_with_linux/medical/Libraries/src/max30102.c **** }
 1489              		.loc 1 487 1 is_stmt 0 view .LVU382
 1490 0058 F8BD     		pop	{r3, r4, r5, r6, r7, pc}
 1491              		.loc 1 487 1 view .LVU383
 1492              		.cfi_endproc
 1493              	.LFE52:
 1495              		.section	.text.MAX30102_IIC_Read_One_Byte,"ax",%progbits
 1496              		.align	1
 1497              		.global	MAX30102_IIC_Read_One_Byte
 1498              		.syntax unified
 1499              		.thumb
 1500              		.thumb_func
 1502              	MAX30102_IIC_Read_One_Byte:
 1503              	.LVL183:
 1504              	.LFB53:
 488:./.ccls_cache/home/carver/Documents/stm32_with_linux/medical/Libraries/src/max30102.c **** 
 489:./.ccls_cache/home/carver/Documents/stm32_with_linux/medical/Libraries/src/max30102.c **** void MAX30102_IIC_Read_One_Byte(u8 daddr, u8 addr, u8 *data) {
 1505              		.loc 1 489 62 is_stmt 1 view -0
 1506              		.cfi_startproc
 1507              		@ args = 0, pretend = 0, frame = 0
 1508              		@ frame_needed = 0, uses_anonymous_args = 0
 1509              		.loc 1 489 62 is_stmt 0 view .LVU385
 1510 0000 70B5     		push	{r4, r5, r6, lr}
 1511              	.LCFI26:
 1512              		.cfi_def_cfa_offset 16
 1513              		.cfi_offset 4, -16
 1514              		.cfi_offset 5, -12
 1515              		.cfi_offset 6, -8
 1516              		.cfi_offset 14, -4
ARM GAS  /tmp/ccriZ1yi.s 			page 39


 1517 0002 0446     		mov	r4, r0
 1518 0004 0E46     		mov	r6, r1
 1519 0006 1546     		mov	r5, r2
 490:./.ccls_cache/home/carver/Documents/stm32_with_linux/medical/Libraries/src/max30102.c ****   MAX30102_IIC_Start();
 1520              		.loc 1 490 3 is_stmt 1 view .LVU386
 1521 0008 FFF7FEFF 		bl	MAX30102_IIC_Start
 1522              	.LVL184:
 491:./.ccls_cache/home/carver/Documents/stm32_with_linux/medical/Libraries/src/max30102.c **** 
 492:./.ccls_cache/home/carver/Documents/stm32_with_linux/medical/Libraries/src/max30102.c ****   MAX30102_IIC_Send_Byte(daddr); // å‘é€å†™å‘½ä»¤
 1523              		.loc 1 492 3 view .LVU387
 1524 000c 2046     		mov	r0, r4
 1525 000e FFF7FEFF 		bl	MAX30102_IIC_Send_Byte
 1526              	.LVL185:
 493:./.ccls_cache/home/carver/Documents/stm32_with_linux/medical/Libraries/src/max30102.c ****   MAX30102_IIC_Wait_Ack();
 1527              		.loc 1 493 3 view .LVU388
 1528 0012 FFF7FEFF 		bl	MAX30102_IIC_Wait_Ack
 1529              	.LVL186:
 494:./.ccls_cache/home/carver/Documents/stm32_with_linux/medical/Libraries/src/max30102.c ****   MAX30102_IIC_Send_Byte(addr); // å‘é€åœ°å€
 1530              		.loc 1 494 3 view .LVU389
 1531 0016 3046     		mov	r0, r6
 1532 0018 FFF7FEFF 		bl	MAX30102_IIC_Send_Byte
 1533              	.LVL187:
 495:./.ccls_cache/home/carver/Documents/stm32_with_linux/medical/Libraries/src/max30102.c ****   MAX30102_IIC_Wait_Ack();
 1534              		.loc 1 495 3 view .LVU390
 1535 001c FFF7FEFF 		bl	MAX30102_IIC_Wait_Ack
 1536              	.LVL188:
 496:./.ccls_cache/home/carver/Documents/stm32_with_linux/medical/Libraries/src/max30102.c ****   MAX30102_IIC_Start();
 1537              		.loc 1 496 3 view .LVU391
 1538 0020 FFF7FEFF 		bl	MAX30102_IIC_Start
 1539              	.LVL189:
 497:./.ccls_cache/home/carver/Documents/stm32_with_linux/medical/Libraries/src/max30102.c ****   MAX30102_IIC_Send_Byte(daddr | 0X01); // è¿›å…¥æ¥æ”¶æ¨¡å¼
 1540              		.loc 1 497 3 view .LVU392
 1541 0024 44F00100 		orr	r0, r4, #1
 1542 0028 FFF7FEFF 		bl	MAX30102_IIC_Send_Byte
 1543              	.LVL190:
 498:./.ccls_cache/home/carver/Documents/stm32_with_linux/medical/Libraries/src/max30102.c ****   MAX30102_IIC_Wait_Ack();
 1544              		.loc 1 498 3 view .LVU393
 1545 002c FFF7FEFF 		bl	MAX30102_IIC_Wait_Ack
 1546              	.LVL191:
 499:./.ccls_cache/home/carver/Documents/stm32_with_linux/medical/Libraries/src/max30102.c ****   *data = MAX30102_IIC_Read_Byte(0);
 1547              		.loc 1 499 3 view .LVU394
 1548              		.loc 1 499 11 is_stmt 0 view .LVU395
 1549 0030 0020     		movs	r0, #0
 1550 0032 FFF7FEFF 		bl	MAX30102_IIC_Read_Byte
 1551              	.LVL192:
 1552              		.loc 1 499 9 discriminator 1 view .LVU396
 1553 0036 2870     		strb	r0, [r5]
 500:./.ccls_cache/home/carver/Documents/stm32_with_linux/medical/Libraries/src/max30102.c ****   MAX30102_IIC_Stop(); // äº§ç”Ÿä¸€ä¸ªåœæ­¢æ¡ä»¶
 1554              		.loc 1 500 3 is_stmt 1 view .LVU397
 1555 0038 FFF7FEFF 		bl	MAX30102_IIC_Stop
 1556              	.LVL193:
 501:./.ccls_cache/home/carver/Documents/stm32_with_linux/medical/Libraries/src/max30102.c **** }
 1557              		.loc 1 501 1 is_stmt 0 view .LVU398
 1558 003c 70BD     		pop	{r4, r5, r6, pc}
 1559              		.loc 1 501 1 view .LVU399
 1560              		.cfi_endproc
 1561              	.LFE53:
ARM GAS  /tmp/ccriZ1yi.s 			page 40


 1563              		.section	.text.maxim_max30102_read_reg,"ax",%progbits
 1564              		.align	1
 1565              		.global	maxim_max30102_read_reg
 1566              		.syntax unified
 1567              		.thumb
 1568              		.thumb_func
 1570              	maxim_max30102_read_reg:
 1571              	.LVL194:
 1572              	.LFB39:
 276:./.ccls_cache/home/carver/Documents/stm32_with_linux/medical/Libraries/src/max30102.c ****   //  char ch_i2c_data;
 1573              		.loc 1 276 68 is_stmt 1 view -0
 1574              		.cfi_startproc
 1575              		@ args = 0, pretend = 0, frame = 0
 1576              		@ frame_needed = 0, uses_anonymous_args = 0
 276:./.ccls_cache/home/carver/Documents/stm32_with_linux/medical/Libraries/src/max30102.c ****   //  char ch_i2c_data;
 1577              		.loc 1 276 68 is_stmt 0 view .LVU401
 1578 0000 08B5     		push	{r3, lr}
 1579              	.LCFI27:
 1580              		.cfi_def_cfa_offset 8
 1581              		.cfi_offset 3, -8
 1582              		.cfi_offset 14, -4
 1583 0002 0A46     		mov	r2, r1
 284:./.ccls_cache/home/carver/Documents/stm32_with_linux/medical/Libraries/src/max30102.c **** }
 1584              		.loc 1 284 3 is_stmt 1 view .LVU402
 1585 0004 0146     		mov	r1, r0
 1586              	.LVL195:
 284:./.ccls_cache/home/carver/Documents/stm32_with_linux/medical/Libraries/src/max30102.c **** }
 1587              		.loc 1 284 3 is_stmt 0 view .LVU403
 1588 0006 AE20     		movs	r0, #174
 1589              	.LVL196:
 284:./.ccls_cache/home/carver/Documents/stm32_with_linux/medical/Libraries/src/max30102.c **** }
 1590              		.loc 1 284 3 view .LVU404
 1591 0008 FFF7FEFF 		bl	MAX30102_IIC_Read_One_Byte
 1592              	.LVL197:
 285:./.ccls_cache/home/carver/Documents/stm32_with_linux/medical/Libraries/src/max30102.c **** 
 1593              		.loc 1 285 1 view .LVU405
 1594 000c 08BD     		pop	{r3, pc}
 1595              		.cfi_endproc
 1596              	.LFE39:
 1598              		.section	.text.maxim_max30102_read_fifo,"ax",%progbits
 1599              		.align	1
 1600              		.global	maxim_max30102_read_fifo
 1601              		.syntax unified
 1602              		.thumb
 1603              		.thumb_func
 1605              	maxim_max30102_read_fifo:
 1606              	.LVL198:
 1607              	.LFB40:
 287:./.ccls_cache/home/carver/Documents/stm32_with_linux/medical/Libraries/src/max30102.c ****   uint32_t un_temp;
 1608              		.loc 1 287 76 is_stmt 1 view -0
 1609              		.cfi_startproc
 1610              		@ args = 0, pretend = 0, frame = 8
 1611              		@ frame_needed = 0, uses_anonymous_args = 0
 287:./.ccls_cache/home/carver/Documents/stm32_with_linux/medical/Libraries/src/max30102.c ****   uint32_t un_temp;
 1612              		.loc 1 287 76 is_stmt 0 view .LVU407
 1613 0000 70B5     		push	{r4, r5, r6, lr}
 1614              	.LCFI28:
ARM GAS  /tmp/ccriZ1yi.s 			page 41


 1615              		.cfi_def_cfa_offset 16
 1616              		.cfi_offset 4, -16
 1617              		.cfi_offset 5, -12
 1618              		.cfi_offset 6, -8
 1619              		.cfi_offset 14, -4
 1620 0002 82B0     		sub	sp, sp, #8
 1621              	.LCFI29:
 1622              		.cfi_def_cfa_offset 24
 1623 0004 0546     		mov	r5, r0
 1624 0006 0C46     		mov	r4, r1
 288:./.ccls_cache/home/carver/Documents/stm32_with_linux/medical/Libraries/src/max30102.c ****   unsigned char uch_temp;
 1625              		.loc 1 288 3 is_stmt 1 view .LVU408
 289:./.ccls_cache/home/carver/Documents/stm32_with_linux/medical/Libraries/src/max30102.c ****   char ach_i2c_data[6];
 1626              		.loc 1 289 3 view .LVU409
 290:./.ccls_cache/home/carver/Documents/stm32_with_linux/medical/Libraries/src/max30102.c ****   *pun_red_led = 0;
 1627              		.loc 1 290 3 view .LVU410
 291:./.ccls_cache/home/carver/Documents/stm32_with_linux/medical/Libraries/src/max30102.c ****   *pun_ir_led = 0;
 1628              		.loc 1 291 3 view .LVU411
 291:./.ccls_cache/home/carver/Documents/stm32_with_linux/medical/Libraries/src/max30102.c ****   *pun_ir_led = 0;
 1629              		.loc 1 291 16 is_stmt 0 view .LVU412
 1630 0008 0020     		movs	r0, #0
 1631              	.LVL199:
 291:./.ccls_cache/home/carver/Documents/stm32_with_linux/medical/Libraries/src/max30102.c ****   *pun_ir_led = 0;
 1632              		.loc 1 291 16 view .LVU413
 1633 000a 2860     		str	r0, [r5]
 292:./.ccls_cache/home/carver/Documents/stm32_with_linux/medical/Libraries/src/max30102.c **** 
 1634              		.loc 1 292 3 is_stmt 1 view .LVU414
 292:./.ccls_cache/home/carver/Documents/stm32_with_linux/medical/Libraries/src/max30102.c **** 
 1635              		.loc 1 292 15 is_stmt 0 view .LVU415
 1636 000c 0860     		str	r0, [r1]
 295:./.ccls_cache/home/carver/Documents/stm32_with_linux/medical/Libraries/src/max30102.c ****   maxim_max30102_read_reg(REG_INTR_STATUS_2, &uch_temp);
 1637              		.loc 1 295 3 is_stmt 1 view .LVU416
 1638 000e 0DF10706 		add	r6, sp, #7
 1639 0012 3146     		mov	r1, r6
 1640              	.LVL200:
 295:./.ccls_cache/home/carver/Documents/stm32_with_linux/medical/Libraries/src/max30102.c ****   maxim_max30102_read_reg(REG_INTR_STATUS_2, &uch_temp);
 1641              		.loc 1 295 3 is_stmt 0 view .LVU417
 1642 0014 FFF7FEFF 		bl	maxim_max30102_read_reg
 1643              	.LVL201:
 296:./.ccls_cache/home/carver/Documents/stm32_with_linux/medical/Libraries/src/max30102.c **** 
 1644              		.loc 1 296 3 is_stmt 1 view .LVU418
 1645 0018 3146     		mov	r1, r6
 1646 001a 0120     		movs	r0, #1
 1647 001c FFF7FEFF 		bl	maxim_max30102_read_reg
 1648              	.LVL202:
 298:./.ccls_cache/home/carver/Documents/stm32_with_linux/medical/Libraries/src/max30102.c **** 
 1649              		.loc 1 298 3 view .LVU419
 1650 0020 0623     		movs	r3, #6
 1651 0022 6A46     		mov	r2, sp
 1652 0024 0721     		movs	r1, #7
 1653 0026 AE20     		movs	r0, #174
 1654 0028 FFF7FEFF 		bl	MAX30102_IIC_ReadBytes
 1655              	.LVL203:
 300:./.ccls_cache/home/carver/Documents/stm32_with_linux/medical/Libraries/src/max30102.c ****   un_temp <<= 16;
 1656              		.loc 1 300 3 view .LVU420
 300:./.ccls_cache/home/carver/Documents/stm32_with_linux/medical/Libraries/src/max30102.c ****   un_temp <<= 16;
 1657              		.loc 1 300 40 is_stmt 0 view .LVU421
ARM GAS  /tmp/ccriZ1yi.s 			page 42


 1658 002c 9DF80020 		ldrb	r2, [sp]	@ zero_extendqisi2
 1659              	.LVL204:
 301:./.ccls_cache/home/carver/Documents/stm32_with_linux/medical/Libraries/src/max30102.c ****   *pun_red_led += un_temp;
 1660              		.loc 1 301 3 is_stmt 1 view .LVU422
 302:./.ccls_cache/home/carver/Documents/stm32_with_linux/medical/Libraries/src/max30102.c ****   un_temp = (unsigned char)ach_i2c_data[1];
 1661              		.loc 1 302 3 view .LVU423
 1662 0030 2B68     		ldr	r3, [r5]
 302:./.ccls_cache/home/carver/Documents/stm32_with_linux/medical/Libraries/src/max30102.c ****   un_temp = (unsigned char)ach_i2c_data[1];
 1663              		.loc 1 302 16 is_stmt 0 view .LVU424
 1664 0032 03EB0243 		add	r3, r3, r2, lsl #16
 1665 0036 2B60     		str	r3, [r5]
 303:./.ccls_cache/home/carver/Documents/stm32_with_linux/medical/Libraries/src/max30102.c ****   un_temp <<= 8;
 1666              		.loc 1 303 3 is_stmt 1 view .LVU425
 303:./.ccls_cache/home/carver/Documents/stm32_with_linux/medical/Libraries/src/max30102.c ****   un_temp <<= 8;
 1667              		.loc 1 303 40 is_stmt 0 view .LVU426
 1668 0038 9DF80120 		ldrb	r2, [sp, #1]	@ zero_extendqisi2
 1669              	.LVL205:
 304:./.ccls_cache/home/carver/Documents/stm32_with_linux/medical/Libraries/src/max30102.c ****   *pun_red_led += un_temp;
 1670              		.loc 1 304 3 is_stmt 1 view .LVU427
 305:./.ccls_cache/home/carver/Documents/stm32_with_linux/medical/Libraries/src/max30102.c ****   un_temp = (unsigned char)ach_i2c_data[2];
 1671              		.loc 1 305 3 view .LVU428
 305:./.ccls_cache/home/carver/Documents/stm32_with_linux/medical/Libraries/src/max30102.c ****   un_temp = (unsigned char)ach_i2c_data[2];
 1672              		.loc 1 305 16 is_stmt 0 view .LVU429
 1673 003c 03EB0223 		add	r3, r3, r2, lsl #8
 1674 0040 2B60     		str	r3, [r5]
 306:./.ccls_cache/home/carver/Documents/stm32_with_linux/medical/Libraries/src/max30102.c ****   *pun_red_led += un_temp;
 1675              		.loc 1 306 3 is_stmt 1 view .LVU430
 306:./.ccls_cache/home/carver/Documents/stm32_with_linux/medical/Libraries/src/max30102.c ****   *pun_red_led += un_temp;
 1676              		.loc 1 306 40 is_stmt 0 view .LVU431
 1677 0042 9DF80220 		ldrb	r2, [sp, #2]	@ zero_extendqisi2
 1678              	.LVL206:
 307:./.ccls_cache/home/carver/Documents/stm32_with_linux/medical/Libraries/src/max30102.c **** 
 1679              		.loc 1 307 3 is_stmt 1 view .LVU432
 307:./.ccls_cache/home/carver/Documents/stm32_with_linux/medical/Libraries/src/max30102.c **** 
 1680              		.loc 1 307 16 is_stmt 0 view .LVU433
 1681 0046 1344     		add	r3, r3, r2
 1682 0048 2B60     		str	r3, [r5]
 309:./.ccls_cache/home/carver/Documents/stm32_with_linux/medical/Libraries/src/max30102.c ****   un_temp <<= 16;
 1683              		.loc 1 309 3 is_stmt 1 view .LVU434
 309:./.ccls_cache/home/carver/Documents/stm32_with_linux/medical/Libraries/src/max30102.c ****   un_temp <<= 16;
 1684              		.loc 1 309 40 is_stmt 0 view .LVU435
 1685 004a 9DF80320 		ldrb	r2, [sp, #3]	@ zero_extendqisi2
 1686              	.LVL207:
 310:./.ccls_cache/home/carver/Documents/stm32_with_linux/medical/Libraries/src/max30102.c ****   *pun_ir_led += un_temp;
 1687              		.loc 1 310 3 is_stmt 1 view .LVU436
 311:./.ccls_cache/home/carver/Documents/stm32_with_linux/medical/Libraries/src/max30102.c ****   un_temp = (unsigned char)ach_i2c_data[4];
 1688              		.loc 1 311 3 view .LVU437
 1689 004e 2368     		ldr	r3, [r4]
 311:./.ccls_cache/home/carver/Documents/stm32_with_linux/medical/Libraries/src/max30102.c ****   un_temp = (unsigned char)ach_i2c_data[4];
 1690              		.loc 1 311 15 is_stmt 0 view .LVU438
 1691 0050 03EB0243 		add	r3, r3, r2, lsl #16
 1692 0054 2360     		str	r3, [r4]
 312:./.ccls_cache/home/carver/Documents/stm32_with_linux/medical/Libraries/src/max30102.c ****   un_temp <<= 8;
 1693              		.loc 1 312 3 is_stmt 1 view .LVU439
 312:./.ccls_cache/home/carver/Documents/stm32_with_linux/medical/Libraries/src/max30102.c ****   un_temp <<= 8;
 1694              		.loc 1 312 40 is_stmt 0 view .LVU440
 1695 0056 9DF80420 		ldrb	r2, [sp, #4]	@ zero_extendqisi2
ARM GAS  /tmp/ccriZ1yi.s 			page 43


 1696              	.LVL208:
 313:./.ccls_cache/home/carver/Documents/stm32_with_linux/medical/Libraries/src/max30102.c ****   *pun_ir_led += un_temp;
 1697              		.loc 1 313 3 is_stmt 1 view .LVU441
 314:./.ccls_cache/home/carver/Documents/stm32_with_linux/medical/Libraries/src/max30102.c ****   un_temp = (unsigned char)ach_i2c_data[5];
 1698              		.loc 1 314 3 view .LVU442
 314:./.ccls_cache/home/carver/Documents/stm32_with_linux/medical/Libraries/src/max30102.c ****   un_temp = (unsigned char)ach_i2c_data[5];
 1699              		.loc 1 314 15 is_stmt 0 view .LVU443
 1700 005a 03EB0223 		add	r3, r3, r2, lsl #8
 1701 005e 2360     		str	r3, [r4]
 315:./.ccls_cache/home/carver/Documents/stm32_with_linux/medical/Libraries/src/max30102.c ****   *pun_ir_led += un_temp;
 1702              		.loc 1 315 3 is_stmt 1 view .LVU444
 315:./.ccls_cache/home/carver/Documents/stm32_with_linux/medical/Libraries/src/max30102.c ****   *pun_ir_led += un_temp;
 1703              		.loc 1 315 40 is_stmt 0 view .LVU445
 1704 0060 9DF80520 		ldrb	r2, [sp, #5]	@ zero_extendqisi2
 1705              	.LVL209:
 316:./.ccls_cache/home/carver/Documents/stm32_with_linux/medical/Libraries/src/max30102.c ****   *pun_red_led &= 0x03FFFF; // Mask MSB [23:18]
 1706              		.loc 1 316 3 is_stmt 1 view .LVU446
 316:./.ccls_cache/home/carver/Documents/stm32_with_linux/medical/Libraries/src/max30102.c ****   *pun_red_led &= 0x03FFFF; // Mask MSB [23:18]
 1707              		.loc 1 316 15 is_stmt 0 view .LVU447
 1708 0064 1344     		add	r3, r3, r2
 1709 0066 2360     		str	r3, [r4]
 317:./.ccls_cache/home/carver/Documents/stm32_with_linux/medical/Libraries/src/max30102.c ****   *pun_ir_led &= 0x03FFFF;  // Mask MSB [23:18]
 1710              		.loc 1 317 3 is_stmt 1 view .LVU448
 1711 0068 2B68     		ldr	r3, [r5]
 317:./.ccls_cache/home/carver/Documents/stm32_with_linux/medical/Libraries/src/max30102.c ****   *pun_ir_led &= 0x03FFFF;  // Mask MSB [23:18]
 1712              		.loc 1 317 16 is_stmt 0 view .LVU449
 1713 006a C3F31103 		ubfx	r3, r3, #0, #18
 1714 006e 2B60     		str	r3, [r5]
 318:./.ccls_cache/home/carver/Documents/stm32_with_linux/medical/Libraries/src/max30102.c **** }
 1715              		.loc 1 318 3 is_stmt 1 view .LVU450
 1716 0070 2368     		ldr	r3, [r4]
 318:./.ccls_cache/home/carver/Documents/stm32_with_linux/medical/Libraries/src/max30102.c **** }
 1717              		.loc 1 318 15 is_stmt 0 view .LVU451
 1718 0072 C3F31103 		ubfx	r3, r3, #0, #18
 1719 0076 2360     		str	r3, [r4]
 319:./.ccls_cache/home/carver/Documents/stm32_with_linux/medical/Libraries/src/max30102.c **** 
 1720              		.loc 1 319 1 view .LVU452
 1721 0078 02B0     		add	sp, sp, #8
 1722              	.LCFI30:
 1723              		.cfi_def_cfa_offset 16
 1724              		@ sp needed
 1725 007a 70BD     		pop	{r4, r5, r6, pc}
 319:./.ccls_cache/home/carver/Documents/stm32_with_linux/medical/Libraries/src/max30102.c **** 
 1726              		.loc 1 319 1 view .LVU453
 1727              		.cfi_endproc
 1728              	.LFE40:
 1730              		.section	.text.MAX30102_IIC_Write_One_Byte,"ax",%progbits
 1731              		.align	1
 1732              		.global	MAX30102_IIC_Write_One_Byte
 1733              		.syntax unified
 1734              		.thumb
 1735              		.thumb_func
 1737              	MAX30102_IIC_Write_One_Byte:
 1738              	.LVL210:
 1739              	.LFB54:
 502:./.ccls_cache/home/carver/Documents/stm32_with_linux/medical/Libraries/src/max30102.c **** 
 503:./.ccls_cache/home/carver/Documents/stm32_with_linux/medical/Libraries/src/max30102.c **** void MAX30102_IIC_Write_One_Byte(u8 daddr, u8 addr, u8 data) {
ARM GAS  /tmp/ccriZ1yi.s 			page 44


 1740              		.loc 1 503 62 is_stmt 1 view -0
 1741              		.cfi_startproc
 1742              		@ args = 0, pretend = 0, frame = 0
 1743              		@ frame_needed = 0, uses_anonymous_args = 0
 1744              		.loc 1 503 62 is_stmt 0 view .LVU455
 1745 0000 70B5     		push	{r4, r5, r6, lr}
 1746              	.LCFI31:
 1747              		.cfi_def_cfa_offset 16
 1748              		.cfi_offset 4, -16
 1749              		.cfi_offset 5, -12
 1750              		.cfi_offset 6, -8
 1751              		.cfi_offset 14, -4
 1752 0002 0646     		mov	r6, r0
 1753 0004 0D46     		mov	r5, r1
 1754 0006 1446     		mov	r4, r2
 504:./.ccls_cache/home/carver/Documents/stm32_with_linux/medical/Libraries/src/max30102.c ****   MAX30102_IIC_Start();
 1755              		.loc 1 504 3 is_stmt 1 view .LVU456
 1756 0008 FFF7FEFF 		bl	MAX30102_IIC_Start
 1757              	.LVL211:
 505:./.ccls_cache/home/carver/Documents/stm32_with_linux/medical/Libraries/src/max30102.c **** 
 506:./.ccls_cache/home/carver/Documents/stm32_with_linux/medical/Libraries/src/max30102.c ****   MAX30102_IIC_Send_Byte(daddr); // å‘é€å†™å‘½ä»¤
 1758              		.loc 1 506 3 view .LVU457
 1759 000c 3046     		mov	r0, r6
 1760 000e FFF7FEFF 		bl	MAX30102_IIC_Send_Byte
 1761              	.LVL212:
 507:./.ccls_cache/home/carver/Documents/stm32_with_linux/medical/Libraries/src/max30102.c ****   MAX30102_IIC_Wait_Ack();
 1762              		.loc 1 507 3 view .LVU458
 1763 0012 FFF7FEFF 		bl	MAX30102_IIC_Wait_Ack
 1764              	.LVL213:
 508:./.ccls_cache/home/carver/Documents/stm32_with_linux/medical/Libraries/src/max30102.c ****   MAX30102_IIC_Send_Byte(addr); // å‘é€åœ°å€
 1765              		.loc 1 508 3 view .LVU459
 1766 0016 2846     		mov	r0, r5
 1767 0018 FFF7FEFF 		bl	MAX30102_IIC_Send_Byte
 1768              	.LVL214:
 509:./.ccls_cache/home/carver/Documents/stm32_with_linux/medical/Libraries/src/max30102.c ****   MAX30102_IIC_Wait_Ack();
 1769              		.loc 1 509 3 view .LVU460
 1770 001c FFF7FEFF 		bl	MAX30102_IIC_Wait_Ack
 1771              	.LVL215:
 510:./.ccls_cache/home/carver/Documents/stm32_with_linux/medical/Libraries/src/max30102.c ****   MAX30102_IIC_Send_Byte(data); // å‘é€å­—èŠ‚
 1772              		.loc 1 510 3 view .LVU461
 1773 0020 2046     		mov	r0, r4
 1774 0022 FFF7FEFF 		bl	MAX30102_IIC_Send_Byte
 1775              	.LVL216:
 511:./.ccls_cache/home/carver/Documents/stm32_with_linux/medical/Libraries/src/max30102.c ****   MAX30102_IIC_Wait_Ack();
 1776              		.loc 1 511 3 view .LVU462
 1777 0026 FFF7FEFF 		bl	MAX30102_IIC_Wait_Ack
 1778              	.LVL217:
 512:./.ccls_cache/home/carver/Documents/stm32_with_linux/medical/Libraries/src/max30102.c ****   MAX30102_IIC_Stop(); // äº§ç”Ÿä¸€ä¸ªåœæ­¢æ¡ä»¶
 1779              		.loc 1 512 3 view .LVU463
 1780 002a FFF7FEFF 		bl	MAX30102_IIC_Stop
 1781              	.LVL218:
 513:./.ccls_cache/home/carver/Documents/stm32_with_linux/medical/Libraries/src/max30102.c ****   Delay_ms(10);
 1782              		.loc 1 513 3 view .LVU464
 1783 002e 0A20     		movs	r0, #10
 1784 0030 FFF7FEFF 		bl	Delay_ms
 1785              	.LVL219:
 514:./.ccls_cache/home/carver/Documents/stm32_with_linux/medical/Libraries/src/max30102.c **** }
ARM GAS  /tmp/ccriZ1yi.s 			page 45


 1786              		.loc 1 514 1 is_stmt 0 view .LVU465
 1787 0034 70BD     		pop	{r4, r5, r6, pc}
 1788              		.loc 1 514 1 view .LVU466
 1789              		.cfi_endproc
 1790              	.LFE54:
 1792              		.section	.text.maxim_max30102_write_reg,"ax",%progbits
 1793              		.align	1
 1794              		.global	maxim_max30102_write_reg
 1795              		.syntax unified
 1796              		.thumb
 1797              		.thumb_func
 1799              	maxim_max30102_write_reg:
 1800              	.LVL220:
 1801              	.LFB38:
 267:./.ccls_cache/home/carver/Documents/stm32_with_linux/medical/Libraries/src/max30102.c ****   //  char ach_i2c_data[2];
 1802              		.loc 1 267 67 is_stmt 1 view -0
 1803              		.cfi_startproc
 1804              		@ args = 0, pretend = 0, frame = 0
 1805              		@ frame_needed = 0, uses_anonymous_args = 0
 267:./.ccls_cache/home/carver/Documents/stm32_with_linux/medical/Libraries/src/max30102.c ****   //  char ach_i2c_data[2];
 1806              		.loc 1 267 67 is_stmt 0 view .LVU468
 1807 0000 08B5     		push	{r3, lr}
 1808              	.LCFI32:
 1809              		.cfi_def_cfa_offset 8
 1810              		.cfi_offset 3, -8
 1811              		.cfi_offset 14, -4
 1812 0002 0A46     		mov	r2, r1
 273:./.ccls_cache/home/carver/Documents/stm32_with_linux/medical/Libraries/src/max30102.c **** }
 1813              		.loc 1 273 3 is_stmt 1 view .LVU469
 1814 0004 0146     		mov	r1, r0
 1815              	.LVL221:
 273:./.ccls_cache/home/carver/Documents/stm32_with_linux/medical/Libraries/src/max30102.c **** }
 1816              		.loc 1 273 3 is_stmt 0 view .LVU470
 1817 0006 AE20     		movs	r0, #174
 1818              	.LVL222:
 273:./.ccls_cache/home/carver/Documents/stm32_with_linux/medical/Libraries/src/max30102.c **** }
 1819              		.loc 1 273 3 view .LVU471
 1820 0008 FFF7FEFF 		bl	MAX30102_IIC_Write_One_Byte
 1821              	.LVL223:
 274:./.ccls_cache/home/carver/Documents/stm32_with_linux/medical/Libraries/src/max30102.c **** 
 1822              		.loc 1 274 1 view .LVU472
 1823 000c 08BD     		pop	{r3, pc}
 1824              		.cfi_endproc
 1825              	.LFE38:
 1827              		.section	.text.maxim_peaks_above_min_height,"ax",%progbits
 1828              		.align	1
 1829              		.global	maxim_peaks_above_min_height
 1830              		.syntax unified
 1831              		.thumb
 1832              		.thumb_func
 1834              	maxim_peaks_above_min_height:
 1835              	.LVL224:
 1836              	.LFB57:
 515:./.ccls_cache/home/carver/Documents/stm32_with_linux/medical/Libraries/src/max30102.c **** 
 516:./.ccls_cache/home/carver/Documents/stm32_with_linux/medical/Libraries/src/max30102.c **** const uint16_t auw_hamm[31] = {41, 276, 512, 276,
 517:./.ccls_cache/home/carver/Documents/stm32_with_linux/medical/Libraries/src/max30102.c ****                                41}; // Hamm=  long16(512* hamming(5)');
 518:./.ccls_cache/home/carver/Documents/stm32_with_linux/medical/Libraries/src/max30102.c **** // uch_spo2_table is computed as  -45.060*ratioAverage* ratioAverage + 30.354
ARM GAS  /tmp/ccriZ1yi.s 			page 46


 519:./.ccls_cache/home/carver/Documents/stm32_with_linux/medical/Libraries/src/max30102.c **** // *ratioAverage + 94.845 ;
 520:./.ccls_cache/home/carver/Documents/stm32_with_linux/medical/Libraries/src/max30102.c **** const uint8_t uch_spo2_table[184] = {
 521:./.ccls_cache/home/carver/Documents/stm32_with_linux/medical/Libraries/src/max30102.c ****     95,  95,  95,  96,  96,  96,  97,  97,  97,  97,  97,  98,  98,  98,  98,
 522:./.ccls_cache/home/carver/Documents/stm32_with_linux/medical/Libraries/src/max30102.c ****     98,  99,  99,  99,  99,  99,  99,  99,  99,  100, 100, 100, 100, 100, 100,
 523:./.ccls_cache/home/carver/Documents/stm32_with_linux/medical/Libraries/src/max30102.c ****     100, 100, 100, 100, 100, 100, 100, 100, 100, 100, 100, 100, 100, 100, 99,
 524:./.ccls_cache/home/carver/Documents/stm32_with_linux/medical/Libraries/src/max30102.c ****     99,  99,  99,  99,  99,  99,  99,  98,  98,  98,  98,  98,  98,  97,  97,
 525:./.ccls_cache/home/carver/Documents/stm32_with_linux/medical/Libraries/src/max30102.c ****     97,  97,  96,  96,  96,  96,  95,  95,  95,  94,  94,  94,  93,  93,  93,
 526:./.ccls_cache/home/carver/Documents/stm32_with_linux/medical/Libraries/src/max30102.c ****     92,  92,  92,  91,  91,  90,  90,  89,  89,  89,  88,  88,  87,  87,  86,
 527:./.ccls_cache/home/carver/Documents/stm32_with_linux/medical/Libraries/src/max30102.c ****     86,  85,  85,  84,  84,  83,  82,  82,  81,  81,  80,  80,  79,  78,  78,
 528:./.ccls_cache/home/carver/Documents/stm32_with_linux/medical/Libraries/src/max30102.c ****     77,  76,  76,  75,  74,  74,  73,  72,  72,  71,  70,  69,  69,  68,  67,
 529:./.ccls_cache/home/carver/Documents/stm32_with_linux/medical/Libraries/src/max30102.c ****     66,  66,  65,  64,  63,  62,  62,  61,  60,  59,  58,  57,  56,  56,  55,
 530:./.ccls_cache/home/carver/Documents/stm32_with_linux/medical/Libraries/src/max30102.c ****     54,  53,  52,  51,  50,  49,  48,  47,  46,  45,  44,  43,  42,  41,  40,
 531:./.ccls_cache/home/carver/Documents/stm32_with_linux/medical/Libraries/src/max30102.c ****     39,  38,  37,  36,  35,  34,  33,  31,  30,  29,  28,  27,  26,  25,  23,
 532:./.ccls_cache/home/carver/Documents/stm32_with_linux/medical/Libraries/src/max30102.c ****     22,  21,  20,  19,  17,  16,  15,  14,  12,  11,  10,  9,   7,   6,   5,
 533:./.ccls_cache/home/carver/Documents/stm32_with_linux/medical/Libraries/src/max30102.c ****     3,   2,   1};
 534:./.ccls_cache/home/carver/Documents/stm32_with_linux/medical/Libraries/src/max30102.c **** static int32_t an_dx[BUFFER_SIZE - MA4_SIZE]; // delta
 535:./.ccls_cache/home/carver/Documents/stm32_with_linux/medical/Libraries/src/max30102.c **** static int32_t an_x[BUFFER_SIZE];             // ir
 536:./.ccls_cache/home/carver/Documents/stm32_with_linux/medical/Libraries/src/max30102.c **** static int32_t an_y[BUFFER_SIZE];             // red
 537:./.ccls_cache/home/carver/Documents/stm32_with_linux/medical/Libraries/src/max30102.c **** 
 538:./.ccls_cache/home/carver/Documents/stm32_with_linux/medical/Libraries/src/max30102.c **** void maxim_heart_rate_and_oxygen_saturation(
 539:./.ccls_cache/home/carver/Documents/stm32_with_linux/medical/Libraries/src/max30102.c ****     uint32_t *pun_ir_buffer, int32_t n_ir_buffer_length,
 540:./.ccls_cache/home/carver/Documents/stm32_with_linux/medical/Libraries/src/max30102.c ****     uint32_t *pun_red_buffer, int32_t *pn_spo2, int8_t *pch_spo2_valid,
 541:./.ccls_cache/home/carver/Documents/stm32_with_linux/medical/Libraries/src/max30102.c ****     int32_t *pn_heart_rate, int8_t *pch_hr_valid)
 542:./.ccls_cache/home/carver/Documents/stm32_with_linux/medical/Libraries/src/max30102.c **** /**
 543:./.ccls_cache/home/carver/Documents/stm32_with_linux/medical/Libraries/src/max30102.c ****  * \brief        Calculate the heart rate and SpO2 level
 544:./.ccls_cache/home/carver/Documents/stm32_with_linux/medical/Libraries/src/max30102.c ****  * \par          Details
 545:./.ccls_cache/home/carver/Documents/stm32_with_linux/medical/Libraries/src/max30102.c ****  *               By detecting  peaks of PPG cycle and corresponding AC/DC of
 546:./.ccls_cache/home/carver/Documents/stm32_with_linux/medical/Libraries/src/max30102.c ****  * red/infra-red signal, the ratio for the SPO2 is computed. Since this
 547:./.ccls_cache/home/carver/Documents/stm32_with_linux/medical/Libraries/src/max30102.c ****  * algorithm is aiming for Arm M0/M3. formaula for SPO2 did not achieve the
 548:./.ccls_cache/home/carver/Documents/stm32_with_linux/medical/Libraries/src/max30102.c ****  * accuracy due to register overflow. Thus, accurate SPO2 is precalculated and
 549:./.ccls_cache/home/carver/Documents/stm32_with_linux/medical/Libraries/src/max30102.c ****  * save longo uch_spo2_table[] per each ratio.
 550:./.ccls_cache/home/carver/Documents/stm32_with_linux/medical/Libraries/src/max30102.c ****  *
 551:./.ccls_cache/home/carver/Documents/stm32_with_linux/medical/Libraries/src/max30102.c ****  * \param[in]    *pun_ir_buffer           - IR sensor data buffer
 552:./.ccls_cache/home/carver/Documents/stm32_with_linux/medical/Libraries/src/max30102.c ****  * \param[in]    n_ir_buffer_length      - IR sensor data buffer length
 553:./.ccls_cache/home/carver/Documents/stm32_with_linux/medical/Libraries/src/max30102.c ****  * \param[in]    *pun_red_buffer          - Red sensor data buffer
 554:./.ccls_cache/home/carver/Documents/stm32_with_linux/medical/Libraries/src/max30102.c ****  * \param[out]    *pn_spo2                - Calculated SpO2 value
 555:./.ccls_cache/home/carver/Documents/stm32_with_linux/medical/Libraries/src/max30102.c ****  * \param[out]    *pch_spo2_valid         - 1 if the calculated SpO2 value is
 556:./.ccls_cache/home/carver/Documents/stm32_with_linux/medical/Libraries/src/max30102.c ****  * valid
 557:./.ccls_cache/home/carver/Documents/stm32_with_linux/medical/Libraries/src/max30102.c ****  * \param[out]    *pn_heart_rate          - Calculated heart rate value
 558:./.ccls_cache/home/carver/Documents/stm32_with_linux/medical/Libraries/src/max30102.c ****  * \param[out]    *pch_hr_valid           - 1 if the calculated heart rate value
 559:./.ccls_cache/home/carver/Documents/stm32_with_linux/medical/Libraries/src/max30102.c ****  * is valid
 560:./.ccls_cache/home/carver/Documents/stm32_with_linux/medical/Libraries/src/max30102.c ****  *
 561:./.ccls_cache/home/carver/Documents/stm32_with_linux/medical/Libraries/src/max30102.c ****  * \retval       None
 562:./.ccls_cache/home/carver/Documents/stm32_with_linux/medical/Libraries/src/max30102.c ****  */
 563:./.ccls_cache/home/carver/Documents/stm32_with_linux/medical/Libraries/src/max30102.c **** {
 564:./.ccls_cache/home/carver/Documents/stm32_with_linux/medical/Libraries/src/max30102.c ****   uint32_t un_ir_mean, un_only_once;
 565:./.ccls_cache/home/carver/Documents/stm32_with_linux/medical/Libraries/src/max30102.c ****   int32_t k, n_i_ratio_count;
 566:./.ccls_cache/home/carver/Documents/stm32_with_linux/medical/Libraries/src/max30102.c ****   int32_t i, s, m, n_exact_ir_valley_locs_count, n_middle_idx;
 567:./.ccls_cache/home/carver/Documents/stm32_with_linux/medical/Libraries/src/max30102.c ****   int32_t n_th1, n_npks, n_c_min;
 568:./.ccls_cache/home/carver/Documents/stm32_with_linux/medical/Libraries/src/max30102.c ****   int32_t an_ir_valley_locs[15];
 569:./.ccls_cache/home/carver/Documents/stm32_with_linux/medical/Libraries/src/max30102.c ****   int32_t an_exact_ir_valley_locs[15];
 570:./.ccls_cache/home/carver/Documents/stm32_with_linux/medical/Libraries/src/max30102.c ****   int32_t an_dx_peak_locs[15];
 571:./.ccls_cache/home/carver/Documents/stm32_with_linux/medical/Libraries/src/max30102.c ****   int32_t n_peak_interval_sum;
 572:./.ccls_cache/home/carver/Documents/stm32_with_linux/medical/Libraries/src/max30102.c **** 
 573:./.ccls_cache/home/carver/Documents/stm32_with_linux/medical/Libraries/src/max30102.c ****   int32_t n_y_ac, n_x_ac;
 574:./.ccls_cache/home/carver/Documents/stm32_with_linux/medical/Libraries/src/max30102.c ****   int32_t n_spo2_calc;
 575:./.ccls_cache/home/carver/Documents/stm32_with_linux/medical/Libraries/src/max30102.c ****   int32_t n_y_dc_max, n_x_dc_max;
ARM GAS  /tmp/ccriZ1yi.s 			page 47


 576:./.ccls_cache/home/carver/Documents/stm32_with_linux/medical/Libraries/src/max30102.c ****   int32_t n_y_dc_max_idx, n_x_dc_max_idx;
 577:./.ccls_cache/home/carver/Documents/stm32_with_linux/medical/Libraries/src/max30102.c ****   int32_t an_ratio[5], n_ratio_average;
 578:./.ccls_cache/home/carver/Documents/stm32_with_linux/medical/Libraries/src/max30102.c ****   int32_t n_nume, n_denom;
 579:./.ccls_cache/home/carver/Documents/stm32_with_linux/medical/Libraries/src/max30102.c ****   // remove DC of ir signal
 580:./.ccls_cache/home/carver/Documents/stm32_with_linux/medical/Libraries/src/max30102.c ****   un_ir_mean = 0;
 581:./.ccls_cache/home/carver/Documents/stm32_with_linux/medical/Libraries/src/max30102.c ****   for (k = 0; k < n_ir_buffer_length; k++)
 582:./.ccls_cache/home/carver/Documents/stm32_with_linux/medical/Libraries/src/max30102.c ****     un_ir_mean += pun_ir_buffer[k];
 583:./.ccls_cache/home/carver/Documents/stm32_with_linux/medical/Libraries/src/max30102.c ****   un_ir_mean = un_ir_mean / n_ir_buffer_length;
 584:./.ccls_cache/home/carver/Documents/stm32_with_linux/medical/Libraries/src/max30102.c ****   for (k = 0; k < n_ir_buffer_length; k++)
 585:./.ccls_cache/home/carver/Documents/stm32_with_linux/medical/Libraries/src/max30102.c ****     an_x[k] = pun_ir_buffer[k] - un_ir_mean;
 586:./.ccls_cache/home/carver/Documents/stm32_with_linux/medical/Libraries/src/max30102.c **** 
 587:./.ccls_cache/home/carver/Documents/stm32_with_linux/medical/Libraries/src/max30102.c ****   // 4 pt Moving Average
 588:./.ccls_cache/home/carver/Documents/stm32_with_linux/medical/Libraries/src/max30102.c ****   for (k = 0; k < BUFFER_SIZE - MA4_SIZE; k++) {
 589:./.ccls_cache/home/carver/Documents/stm32_with_linux/medical/Libraries/src/max30102.c ****     n_denom = (an_x[k] + an_x[k + 1] + an_x[k + 2] + an_x[k + 3]);
 590:./.ccls_cache/home/carver/Documents/stm32_with_linux/medical/Libraries/src/max30102.c ****     an_x[k] = n_denom / (int32_t)4;
 591:./.ccls_cache/home/carver/Documents/stm32_with_linux/medical/Libraries/src/max30102.c ****   }
 592:./.ccls_cache/home/carver/Documents/stm32_with_linux/medical/Libraries/src/max30102.c **** 
 593:./.ccls_cache/home/carver/Documents/stm32_with_linux/medical/Libraries/src/max30102.c ****   // get difference of smoothed IR signal
 594:./.ccls_cache/home/carver/Documents/stm32_with_linux/medical/Libraries/src/max30102.c **** 
 595:./.ccls_cache/home/carver/Documents/stm32_with_linux/medical/Libraries/src/max30102.c ****   for (k = 0; k < BUFFER_SIZE - MA4_SIZE - 1; k++)
 596:./.ccls_cache/home/carver/Documents/stm32_with_linux/medical/Libraries/src/max30102.c ****     an_dx[k] = (an_x[k + 1] - an_x[k]);
 597:./.ccls_cache/home/carver/Documents/stm32_with_linux/medical/Libraries/src/max30102.c **** 
 598:./.ccls_cache/home/carver/Documents/stm32_with_linux/medical/Libraries/src/max30102.c ****   // 2-pt Moving Average to an_dx
 599:./.ccls_cache/home/carver/Documents/stm32_with_linux/medical/Libraries/src/max30102.c ****   for (k = 0; k < BUFFER_SIZE - MA4_SIZE - 2; k++) {
 600:./.ccls_cache/home/carver/Documents/stm32_with_linux/medical/Libraries/src/max30102.c ****     an_dx[k] = (an_dx[k] + an_dx[k + 1]) / 2;
 601:./.ccls_cache/home/carver/Documents/stm32_with_linux/medical/Libraries/src/max30102.c ****   }
 602:./.ccls_cache/home/carver/Documents/stm32_with_linux/medical/Libraries/src/max30102.c **** 
 603:./.ccls_cache/home/carver/Documents/stm32_with_linux/medical/Libraries/src/max30102.c ****   // hamming window
 604:./.ccls_cache/home/carver/Documents/stm32_with_linux/medical/Libraries/src/max30102.c ****   // flip wave form so that we can detect valley with peak detector
 605:./.ccls_cache/home/carver/Documents/stm32_with_linux/medical/Libraries/src/max30102.c ****   for (i = 0; i < BUFFER_SIZE - HAMMING_SIZE - MA4_SIZE - 2; i++) {
 606:./.ccls_cache/home/carver/Documents/stm32_with_linux/medical/Libraries/src/max30102.c ****     s = 0;
 607:./.ccls_cache/home/carver/Documents/stm32_with_linux/medical/Libraries/src/max30102.c ****     for (k = i; k < i + HAMMING_SIZE; k++) {
 608:./.ccls_cache/home/carver/Documents/stm32_with_linux/medical/Libraries/src/max30102.c ****       s -= an_dx[k] * auw_hamm[k - i];
 609:./.ccls_cache/home/carver/Documents/stm32_with_linux/medical/Libraries/src/max30102.c ****     }
 610:./.ccls_cache/home/carver/Documents/stm32_with_linux/medical/Libraries/src/max30102.c ****     an_dx[i] = s / (int32_t)1146; // divide by sum of auw_hamm
 611:./.ccls_cache/home/carver/Documents/stm32_with_linux/medical/Libraries/src/max30102.c ****   }
 612:./.ccls_cache/home/carver/Documents/stm32_with_linux/medical/Libraries/src/max30102.c **** 
 613:./.ccls_cache/home/carver/Documents/stm32_with_linux/medical/Libraries/src/max30102.c ****   n_th1 = 0; // threshold calculation
 614:./.ccls_cache/home/carver/Documents/stm32_with_linux/medical/Libraries/src/max30102.c ****   for (k = 0; k < BUFFER_SIZE - HAMMING_SIZE; k++) {
 615:./.ccls_cache/home/carver/Documents/stm32_with_linux/medical/Libraries/src/max30102.c ****     n_th1 += ((an_dx[k] > 0) ? an_dx[k] : ((int32_t)0 - an_dx[k]));
 616:./.ccls_cache/home/carver/Documents/stm32_with_linux/medical/Libraries/src/max30102.c ****   }
 617:./.ccls_cache/home/carver/Documents/stm32_with_linux/medical/Libraries/src/max30102.c ****   n_th1 = n_th1 / (BUFFER_SIZE - HAMMING_SIZE);
 618:./.ccls_cache/home/carver/Documents/stm32_with_linux/medical/Libraries/src/max30102.c ****   // peak location is acutally index for sharpest location of raw signal since
 619:./.ccls_cache/home/carver/Documents/stm32_with_linux/medical/Libraries/src/max30102.c ****   // we flipped the signal
 620:./.ccls_cache/home/carver/Documents/stm32_with_linux/medical/Libraries/src/max30102.c ****   maxim_find_peaks(an_dx_peak_locs, &n_npks, an_dx, BUFFER_SIZE - HAMMING_SIZE,
 621:./.ccls_cache/home/carver/Documents/stm32_with_linux/medical/Libraries/src/max30102.c ****                    n_th1, 8, 5); // peak_height, peak_distance, max_num_peaks
 622:./.ccls_cache/home/carver/Documents/stm32_with_linux/medical/Libraries/src/max30102.c **** 
 623:./.ccls_cache/home/carver/Documents/stm32_with_linux/medical/Libraries/src/max30102.c ****   n_peak_interval_sum = 0;
 624:./.ccls_cache/home/carver/Documents/stm32_with_linux/medical/Libraries/src/max30102.c ****   if (n_npks >= 2) {
 625:./.ccls_cache/home/carver/Documents/stm32_with_linux/medical/Libraries/src/max30102.c ****     for (k = 1; k < n_npks; k++)
 626:./.ccls_cache/home/carver/Documents/stm32_with_linux/medical/Libraries/src/max30102.c ****       n_peak_interval_sum += (an_dx_peak_locs[k] - an_dx_peak_locs[k - 1]);
 627:./.ccls_cache/home/carver/Documents/stm32_with_linux/medical/Libraries/src/max30102.c ****     n_peak_interval_sum = n_peak_interval_sum / (n_npks - 1);
 628:./.ccls_cache/home/carver/Documents/stm32_with_linux/medical/Libraries/src/max30102.c ****     *pn_heart_rate = (int32_t)(6000 / n_peak_interval_sum); // beats per minutes
 629:./.ccls_cache/home/carver/Documents/stm32_with_linux/medical/Libraries/src/max30102.c ****     *pch_hr_valid = 1;
 630:./.ccls_cache/home/carver/Documents/stm32_with_linux/medical/Libraries/src/max30102.c ****   } else {
 631:./.ccls_cache/home/carver/Documents/stm32_with_linux/medical/Libraries/src/max30102.c ****     *pn_heart_rate = -999;
 632:./.ccls_cache/home/carver/Documents/stm32_with_linux/medical/Libraries/src/max30102.c ****     *pch_hr_valid = 0;
ARM GAS  /tmp/ccriZ1yi.s 			page 48


 633:./.ccls_cache/home/carver/Documents/stm32_with_linux/medical/Libraries/src/max30102.c ****   }
 634:./.ccls_cache/home/carver/Documents/stm32_with_linux/medical/Libraries/src/max30102.c **** 
 635:./.ccls_cache/home/carver/Documents/stm32_with_linux/medical/Libraries/src/max30102.c ****   for (k = 0; k < n_npks; k++)
 636:./.ccls_cache/home/carver/Documents/stm32_with_linux/medical/Libraries/src/max30102.c ****     an_ir_valley_locs[k] = an_dx_peak_locs[k] + HAMMING_SIZE / 2;
 637:./.ccls_cache/home/carver/Documents/stm32_with_linux/medical/Libraries/src/max30102.c **** 
 638:./.ccls_cache/home/carver/Documents/stm32_with_linux/medical/Libraries/src/max30102.c ****   // raw value : RED(=y) and IR(=X)
 639:./.ccls_cache/home/carver/Documents/stm32_with_linux/medical/Libraries/src/max30102.c ****   // we need to assess DC and AC value of ir and red PPG.
 640:./.ccls_cache/home/carver/Documents/stm32_with_linux/medical/Libraries/src/max30102.c ****   for (k = 0; k < n_ir_buffer_length; k++) {
 641:./.ccls_cache/home/carver/Documents/stm32_with_linux/medical/Libraries/src/max30102.c ****     an_x[k] = pun_ir_buffer[k];
 642:./.ccls_cache/home/carver/Documents/stm32_with_linux/medical/Libraries/src/max30102.c ****     an_y[k] = pun_red_buffer[k];
 643:./.ccls_cache/home/carver/Documents/stm32_with_linux/medical/Libraries/src/max30102.c ****   }
 644:./.ccls_cache/home/carver/Documents/stm32_with_linux/medical/Libraries/src/max30102.c **** 
 645:./.ccls_cache/home/carver/Documents/stm32_with_linux/medical/Libraries/src/max30102.c ****   // find precise min near an_ir_valley_locs
 646:./.ccls_cache/home/carver/Documents/stm32_with_linux/medical/Libraries/src/max30102.c ****   n_exact_ir_valley_locs_count = 0;
 647:./.ccls_cache/home/carver/Documents/stm32_with_linux/medical/Libraries/src/max30102.c ****   for (k = 0; k < n_npks; k++) {
 648:./.ccls_cache/home/carver/Documents/stm32_with_linux/medical/Libraries/src/max30102.c ****     un_only_once = 1;
 649:./.ccls_cache/home/carver/Documents/stm32_with_linux/medical/Libraries/src/max30102.c ****     m = an_ir_valley_locs[k];
 650:./.ccls_cache/home/carver/Documents/stm32_with_linux/medical/Libraries/src/max30102.c ****     n_c_min = 16777216; // 2^24;
 651:./.ccls_cache/home/carver/Documents/stm32_with_linux/medical/Libraries/src/max30102.c ****     if (m + 5 < BUFFER_SIZE - HAMMING_SIZE && m - 5 > 0) {
 652:./.ccls_cache/home/carver/Documents/stm32_with_linux/medical/Libraries/src/max30102.c ****       for (i = m - 5; i < m + 5; i++)
 653:./.ccls_cache/home/carver/Documents/stm32_with_linux/medical/Libraries/src/max30102.c ****         if (an_x[i] < n_c_min) {
 654:./.ccls_cache/home/carver/Documents/stm32_with_linux/medical/Libraries/src/max30102.c ****           if (un_only_once > 0) {
 655:./.ccls_cache/home/carver/Documents/stm32_with_linux/medical/Libraries/src/max30102.c ****             un_only_once = 0;
 656:./.ccls_cache/home/carver/Documents/stm32_with_linux/medical/Libraries/src/max30102.c ****           }
 657:./.ccls_cache/home/carver/Documents/stm32_with_linux/medical/Libraries/src/max30102.c ****           n_c_min = an_x[i];
 658:./.ccls_cache/home/carver/Documents/stm32_with_linux/medical/Libraries/src/max30102.c ****           an_exact_ir_valley_locs[k] = i;
 659:./.ccls_cache/home/carver/Documents/stm32_with_linux/medical/Libraries/src/max30102.c ****         }
 660:./.ccls_cache/home/carver/Documents/stm32_with_linux/medical/Libraries/src/max30102.c ****       if (un_only_once == 0)
 661:./.ccls_cache/home/carver/Documents/stm32_with_linux/medical/Libraries/src/max30102.c ****         n_exact_ir_valley_locs_count++;
 662:./.ccls_cache/home/carver/Documents/stm32_with_linux/medical/Libraries/src/max30102.c ****     }
 663:./.ccls_cache/home/carver/Documents/stm32_with_linux/medical/Libraries/src/max30102.c ****   }
 664:./.ccls_cache/home/carver/Documents/stm32_with_linux/medical/Libraries/src/max30102.c ****   if (n_exact_ir_valley_locs_count < 2) {
 665:./.ccls_cache/home/carver/Documents/stm32_with_linux/medical/Libraries/src/max30102.c ****     *pn_spo2 = -999; // do not use SPO2 since signal ratio is out of range
 666:./.ccls_cache/home/carver/Documents/stm32_with_linux/medical/Libraries/src/max30102.c ****     *pch_spo2_valid = 0;
 667:./.ccls_cache/home/carver/Documents/stm32_with_linux/medical/Libraries/src/max30102.c ****     return;
 668:./.ccls_cache/home/carver/Documents/stm32_with_linux/medical/Libraries/src/max30102.c ****   }
 669:./.ccls_cache/home/carver/Documents/stm32_with_linux/medical/Libraries/src/max30102.c ****   // 4 pt MA
 670:./.ccls_cache/home/carver/Documents/stm32_with_linux/medical/Libraries/src/max30102.c ****   for (k = 0; k < BUFFER_SIZE - MA4_SIZE; k++) {
 671:./.ccls_cache/home/carver/Documents/stm32_with_linux/medical/Libraries/src/max30102.c ****     an_x[k] = (an_x[k] + an_x[k + 1] + an_x[k + 2] + an_x[k + 3]) / (int32_t)4;
 672:./.ccls_cache/home/carver/Documents/stm32_with_linux/medical/Libraries/src/max30102.c ****     an_y[k] = (an_y[k] + an_y[k + 1] + an_y[k + 2] + an_y[k + 3]) / (int32_t)4;
 673:./.ccls_cache/home/carver/Documents/stm32_with_linux/medical/Libraries/src/max30102.c ****   }
 674:./.ccls_cache/home/carver/Documents/stm32_with_linux/medical/Libraries/src/max30102.c **** 
 675:./.ccls_cache/home/carver/Documents/stm32_with_linux/medical/Libraries/src/max30102.c ****   // using an_exact_ir_valley_locs , find ir-red DC andir-red AC for SPO2
 676:./.ccls_cache/home/carver/Documents/stm32_with_linux/medical/Libraries/src/max30102.c ****   // calibration ratio finding AC/DC maximum of raw ir * red between two valley
 677:./.ccls_cache/home/carver/Documents/stm32_with_linux/medical/Libraries/src/max30102.c ****   // locations
 678:./.ccls_cache/home/carver/Documents/stm32_with_linux/medical/Libraries/src/max30102.c ****   n_ratio_average = 0;
 679:./.ccls_cache/home/carver/Documents/stm32_with_linux/medical/Libraries/src/max30102.c ****   n_i_ratio_count = 0;
 680:./.ccls_cache/home/carver/Documents/stm32_with_linux/medical/Libraries/src/max30102.c **** 
 681:./.ccls_cache/home/carver/Documents/stm32_with_linux/medical/Libraries/src/max30102.c ****   for (k = 0; k < 5; k++)
 682:./.ccls_cache/home/carver/Documents/stm32_with_linux/medical/Libraries/src/max30102.c ****     an_ratio[k] = 0;
 683:./.ccls_cache/home/carver/Documents/stm32_with_linux/medical/Libraries/src/max30102.c ****   for (k = 0; k < n_exact_ir_valley_locs_count; k++) {
 684:./.ccls_cache/home/carver/Documents/stm32_with_linux/medical/Libraries/src/max30102.c ****     if (an_exact_ir_valley_locs[k] > BUFFER_SIZE) {
 685:./.ccls_cache/home/carver/Documents/stm32_with_linux/medical/Libraries/src/max30102.c ****       *pn_spo2 = -999; // do not use SPO2 since valley loc is out of range
 686:./.ccls_cache/home/carver/Documents/stm32_with_linux/medical/Libraries/src/max30102.c ****       *pch_spo2_valid = 0;
 687:./.ccls_cache/home/carver/Documents/stm32_with_linux/medical/Libraries/src/max30102.c ****       return;
 688:./.ccls_cache/home/carver/Documents/stm32_with_linux/medical/Libraries/src/max30102.c ****     }
 689:./.ccls_cache/home/carver/Documents/stm32_with_linux/medical/Libraries/src/max30102.c ****   }
ARM GAS  /tmp/ccriZ1yi.s 			page 49


 690:./.ccls_cache/home/carver/Documents/stm32_with_linux/medical/Libraries/src/max30102.c ****   // find max between two valley locations
 691:./.ccls_cache/home/carver/Documents/stm32_with_linux/medical/Libraries/src/max30102.c ****   // and use ratio betwen AC compoent of Ir & Red and DC compoent of Ir & Red
 692:./.ccls_cache/home/carver/Documents/stm32_with_linux/medical/Libraries/src/max30102.c ****   // for SPO2
 693:./.ccls_cache/home/carver/Documents/stm32_with_linux/medical/Libraries/src/max30102.c **** 
 694:./.ccls_cache/home/carver/Documents/stm32_with_linux/medical/Libraries/src/max30102.c ****   for (k = 0; k < n_exact_ir_valley_locs_count - 1; k++) {
 695:./.ccls_cache/home/carver/Documents/stm32_with_linux/medical/Libraries/src/max30102.c ****     n_y_dc_max = -16777216;
 696:./.ccls_cache/home/carver/Documents/stm32_with_linux/medical/Libraries/src/max30102.c ****     n_x_dc_max = -16777216;
 697:./.ccls_cache/home/carver/Documents/stm32_with_linux/medical/Libraries/src/max30102.c ****     if (an_exact_ir_valley_locs[k + 1] - an_exact_ir_valley_locs[k] > 10) {
 698:./.ccls_cache/home/carver/Documents/stm32_with_linux/medical/Libraries/src/max30102.c ****       for (i = an_exact_ir_valley_locs[k]; i < an_exact_ir_valley_locs[k + 1];
 699:./.ccls_cache/home/carver/Documents/stm32_with_linux/medical/Libraries/src/max30102.c ****            i++) {
 700:./.ccls_cache/home/carver/Documents/stm32_with_linux/medical/Libraries/src/max30102.c ****         if (an_x[i] > n_x_dc_max) {
 701:./.ccls_cache/home/carver/Documents/stm32_with_linux/medical/Libraries/src/max30102.c ****           n_x_dc_max = an_x[i];
 702:./.ccls_cache/home/carver/Documents/stm32_with_linux/medical/Libraries/src/max30102.c ****           n_x_dc_max_idx = i;
 703:./.ccls_cache/home/carver/Documents/stm32_with_linux/medical/Libraries/src/max30102.c ****         }
 704:./.ccls_cache/home/carver/Documents/stm32_with_linux/medical/Libraries/src/max30102.c ****         if (an_y[i] > n_y_dc_max) {
 705:./.ccls_cache/home/carver/Documents/stm32_with_linux/medical/Libraries/src/max30102.c ****           n_y_dc_max = an_y[i];
 706:./.ccls_cache/home/carver/Documents/stm32_with_linux/medical/Libraries/src/max30102.c ****           n_y_dc_max_idx = i;
 707:./.ccls_cache/home/carver/Documents/stm32_with_linux/medical/Libraries/src/max30102.c ****         }
 708:./.ccls_cache/home/carver/Documents/stm32_with_linux/medical/Libraries/src/max30102.c ****       }
 709:./.ccls_cache/home/carver/Documents/stm32_with_linux/medical/Libraries/src/max30102.c ****       n_y_ac = (an_y[an_exact_ir_valley_locs[k + 1]] -
 710:./.ccls_cache/home/carver/Documents/stm32_with_linux/medical/Libraries/src/max30102.c ****                 an_y[an_exact_ir_valley_locs[k]]) *
 711:./.ccls_cache/home/carver/Documents/stm32_with_linux/medical/Libraries/src/max30102.c ****                (n_y_dc_max_idx - an_exact_ir_valley_locs[k]); // red
 712:./.ccls_cache/home/carver/Documents/stm32_with_linux/medical/Libraries/src/max30102.c ****       n_y_ac = an_y[an_exact_ir_valley_locs[k]] +
 713:./.ccls_cache/home/carver/Documents/stm32_with_linux/medical/Libraries/src/max30102.c ****                n_y_ac / (an_exact_ir_valley_locs[k + 1] -
 714:./.ccls_cache/home/carver/Documents/stm32_with_linux/medical/Libraries/src/max30102.c ****                          an_exact_ir_valley_locs[k]);
 715:./.ccls_cache/home/carver/Documents/stm32_with_linux/medical/Libraries/src/max30102.c **** 
 716:./.ccls_cache/home/carver/Documents/stm32_with_linux/medical/Libraries/src/max30102.c ****       n_y_ac = an_y[n_y_dc_max_idx] -
 717:./.ccls_cache/home/carver/Documents/stm32_with_linux/medical/Libraries/src/max30102.c ****                n_y_ac; // subracting linear DC compoenents from raw
 718:./.ccls_cache/home/carver/Documents/stm32_with_linux/medical/Libraries/src/max30102.c ****       n_x_ac = (an_x[an_exact_ir_valley_locs[k + 1]] -
 719:./.ccls_cache/home/carver/Documents/stm32_with_linux/medical/Libraries/src/max30102.c ****                 an_x[an_exact_ir_valley_locs[k]]) *
 720:./.ccls_cache/home/carver/Documents/stm32_with_linux/medical/Libraries/src/max30102.c ****                (n_x_dc_max_idx - an_exact_ir_valley_locs[k]); // ir
 721:./.ccls_cache/home/carver/Documents/stm32_with_linux/medical/Libraries/src/max30102.c ****       n_x_ac = an_x[an_exact_ir_valley_locs[k]] +
 722:./.ccls_cache/home/carver/Documents/stm32_with_linux/medical/Libraries/src/max30102.c ****                n_x_ac / (an_exact_ir_valley_locs[k + 1] -
 723:./.ccls_cache/home/carver/Documents/stm32_with_linux/medical/Libraries/src/max30102.c ****                          an_exact_ir_valley_locs[k]);
 724:./.ccls_cache/home/carver/Documents/stm32_with_linux/medical/Libraries/src/max30102.c ****       n_x_ac = an_x[n_y_dc_max_idx] -
 725:./.ccls_cache/home/carver/Documents/stm32_with_linux/medical/Libraries/src/max30102.c ****                n_x_ac; // subracting linear DC compoenents from raw
 726:./.ccls_cache/home/carver/Documents/stm32_with_linux/medical/Libraries/src/max30102.c ****       n_nume =
 727:./.ccls_cache/home/carver/Documents/stm32_with_linux/medical/Libraries/src/max30102.c ****           (n_y_ac * n_x_dc_max) >> 7; // prepare X100 to preserve floating value
 728:./.ccls_cache/home/carver/Documents/stm32_with_linux/medical/Libraries/src/max30102.c ****       n_denom = (n_x_ac * n_y_dc_max) >> 7;
 729:./.ccls_cache/home/carver/Documents/stm32_with_linux/medical/Libraries/src/max30102.c ****       if (n_denom > 0 && n_i_ratio_count < 5 && n_nume != 0) {
 730:./.ccls_cache/home/carver/Documents/stm32_with_linux/medical/Libraries/src/max30102.c ****         an_ratio[n_i_ratio_count] =
 731:./.ccls_cache/home/carver/Documents/stm32_with_linux/medical/Libraries/src/max30102.c ****             (n_nume * 20) /
 732:./.ccls_cache/home/carver/Documents/stm32_with_linux/medical/Libraries/src/max30102.c ****             n_denom; // formular is ( n_y_ac *n_x_dc_max) / ( n_x_ac
 733:./.ccls_cache/home/carver/Documents/stm32_with_linux/medical/Libraries/src/max30102.c ****                      // *n_y_dc_max) ;
 734:./.ccls_cache/home/carver/Documents/stm32_with_linux/medical/Libraries/src/max30102.c ****                      // ///*************************n_numeåŸæ¥æ˜¯*100************************//
 735:./.ccls_cache/home/carver/Documents/stm32_with_linux/medical/Libraries/src/max30102.c ****         n_i_ratio_count++;
 736:./.ccls_cache/home/carver/Documents/stm32_with_linux/medical/Libraries/src/max30102.c ****       }
 737:./.ccls_cache/home/carver/Documents/stm32_with_linux/medical/Libraries/src/max30102.c ****     }
 738:./.ccls_cache/home/carver/Documents/stm32_with_linux/medical/Libraries/src/max30102.c ****   }
 739:./.ccls_cache/home/carver/Documents/stm32_with_linux/medical/Libraries/src/max30102.c **** 
 740:./.ccls_cache/home/carver/Documents/stm32_with_linux/medical/Libraries/src/max30102.c ****   maxim_sort_ascend(an_ratio, n_i_ratio_count);
 741:./.ccls_cache/home/carver/Documents/stm32_with_linux/medical/Libraries/src/max30102.c ****   n_middle_idx = n_i_ratio_count / 2;
 742:./.ccls_cache/home/carver/Documents/stm32_with_linux/medical/Libraries/src/max30102.c **** 
 743:./.ccls_cache/home/carver/Documents/stm32_with_linux/medical/Libraries/src/max30102.c ****   if (n_middle_idx > 1)
 744:./.ccls_cache/home/carver/Documents/stm32_with_linux/medical/Libraries/src/max30102.c ****     n_ratio_average =
 745:./.ccls_cache/home/carver/Documents/stm32_with_linux/medical/Libraries/src/max30102.c ****         (an_ratio[n_middle_idx - 1] + an_ratio[n_middle_idx]) / 2; // use median
 746:./.ccls_cache/home/carver/Documents/stm32_with_linux/medical/Libraries/src/max30102.c ****   else
ARM GAS  /tmp/ccriZ1yi.s 			page 50


 747:./.ccls_cache/home/carver/Documents/stm32_with_linux/medical/Libraries/src/max30102.c ****     n_ratio_average = an_ratio[n_middle_idx];
 748:./.ccls_cache/home/carver/Documents/stm32_with_linux/medical/Libraries/src/max30102.c **** 
 749:./.ccls_cache/home/carver/Documents/stm32_with_linux/medical/Libraries/src/max30102.c ****   if (n_ratio_average > 2 && n_ratio_average < 184) {
 750:./.ccls_cache/home/carver/Documents/stm32_with_linux/medical/Libraries/src/max30102.c ****     n_spo2_calc = uch_spo2_table[n_ratio_average];
 751:./.ccls_cache/home/carver/Documents/stm32_with_linux/medical/Libraries/src/max30102.c ****     *pn_spo2 = n_spo2_calc;
 752:./.ccls_cache/home/carver/Documents/stm32_with_linux/medical/Libraries/src/max30102.c ****     *pch_spo2_valid = 1; //  float_SPO2 =  -45.060*n_ratio_average*
 753:./.ccls_cache/home/carver/Documents/stm32_with_linux/medical/Libraries/src/max30102.c ****                          //  n_ratio_average/10000 + 30.354 *n_ratio_average/100
 754:./.ccls_cache/home/carver/Documents/stm32_with_linux/medical/Libraries/src/max30102.c ****                          //  + 94.845 ;  // for comparison with table
 755:./.ccls_cache/home/carver/Documents/stm32_with_linux/medical/Libraries/src/max30102.c ****   } else {
 756:./.ccls_cache/home/carver/Documents/stm32_with_linux/medical/Libraries/src/max30102.c ****     *pn_spo2 = -999; // do not use SPO2 since signal ratio is out of range
 757:./.ccls_cache/home/carver/Documents/stm32_with_linux/medical/Libraries/src/max30102.c ****     *pch_spo2_valid = 0;
 758:./.ccls_cache/home/carver/Documents/stm32_with_linux/medical/Libraries/src/max30102.c ****   }
 759:./.ccls_cache/home/carver/Documents/stm32_with_linux/medical/Libraries/src/max30102.c **** }
 760:./.ccls_cache/home/carver/Documents/stm32_with_linux/medical/Libraries/src/max30102.c **** 
 761:./.ccls_cache/home/carver/Documents/stm32_with_linux/medical/Libraries/src/max30102.c **** void maxim_find_peaks(int32_t *pn_locs, int32_t *pn_npks, int32_t *pn_x,
 762:./.ccls_cache/home/carver/Documents/stm32_with_linux/medical/Libraries/src/max30102.c ****                       int32_t n_size, int32_t n_min_height,
 763:./.ccls_cache/home/carver/Documents/stm32_with_linux/medical/Libraries/src/max30102.c ****                       int32_t n_min_distance, int32_t n_max_num)
 764:./.ccls_cache/home/carver/Documents/stm32_with_linux/medical/Libraries/src/max30102.c **** /**
 765:./.ccls_cache/home/carver/Documents/stm32_with_linux/medical/Libraries/src/max30102.c ****  * \brief        Find peaks
 766:./.ccls_cache/home/carver/Documents/stm32_with_linux/medical/Libraries/src/max30102.c ****  * \par          Details
 767:./.ccls_cache/home/carver/Documents/stm32_with_linux/medical/Libraries/src/max30102.c ****  *               Find at most MAX_NUM peaks above MIN_HEIGHT separated by at
 768:./.ccls_cache/home/carver/Documents/stm32_with_linux/medical/Libraries/src/max30102.c ****  * least MIN_DISTANCE
 769:./.ccls_cache/home/carver/Documents/stm32_with_linux/medical/Libraries/src/max30102.c ****  *
 770:./.ccls_cache/home/carver/Documents/stm32_with_linux/medical/Libraries/src/max30102.c ****  * \retval       None
 771:./.ccls_cache/home/carver/Documents/stm32_with_linux/medical/Libraries/src/max30102.c ****  */
 772:./.ccls_cache/home/carver/Documents/stm32_with_linux/medical/Libraries/src/max30102.c **** {
 773:./.ccls_cache/home/carver/Documents/stm32_with_linux/medical/Libraries/src/max30102.c ****   maxim_peaks_above_min_height(pn_locs, pn_npks, pn_x, n_size, n_min_height);
 774:./.ccls_cache/home/carver/Documents/stm32_with_linux/medical/Libraries/src/max30102.c ****   maxim_remove_close_peaks(pn_locs, pn_npks, pn_x, n_min_distance);
 775:./.ccls_cache/home/carver/Documents/stm32_with_linux/medical/Libraries/src/max30102.c ****   *pn_npks = min(*pn_npks, n_max_num);
 776:./.ccls_cache/home/carver/Documents/stm32_with_linux/medical/Libraries/src/max30102.c **** }
 777:./.ccls_cache/home/carver/Documents/stm32_with_linux/medical/Libraries/src/max30102.c **** 
 778:./.ccls_cache/home/carver/Documents/stm32_with_linux/medical/Libraries/src/max30102.c **** void maxim_peaks_above_min_height(int32_t *pn_locs, int32_t *pn_npks,
 779:./.ccls_cache/home/carver/Documents/stm32_with_linux/medical/Libraries/src/max30102.c ****                                   int32_t *pn_x, int32_t n_size,
 780:./.ccls_cache/home/carver/Documents/stm32_with_linux/medical/Libraries/src/max30102.c ****                                   int32_t n_min_height)
 781:./.ccls_cache/home/carver/Documents/stm32_with_linux/medical/Libraries/src/max30102.c **** /**
 782:./.ccls_cache/home/carver/Documents/stm32_with_linux/medical/Libraries/src/max30102.c ****  * \brief        Find peaks above n_min_height
 783:./.ccls_cache/home/carver/Documents/stm32_with_linux/medical/Libraries/src/max30102.c ****  * \par          Details
 784:./.ccls_cache/home/carver/Documents/stm32_with_linux/medical/Libraries/src/max30102.c ****  *               Find all peaks above MIN_HEIGHT
 785:./.ccls_cache/home/carver/Documents/stm32_with_linux/medical/Libraries/src/max30102.c ****  *
 786:./.ccls_cache/home/carver/Documents/stm32_with_linux/medical/Libraries/src/max30102.c ****  * \retval       None
 787:./.ccls_cache/home/carver/Documents/stm32_with_linux/medical/Libraries/src/max30102.c ****  */
 788:./.ccls_cache/home/carver/Documents/stm32_with_linux/medical/Libraries/src/max30102.c **** {
 1837              		.loc 1 788 1 is_stmt 1 view -0
 1838              		.cfi_startproc
 1839              		@ args = 4, pretend = 0, frame = 0
 1840              		@ frame_needed = 0, uses_anonymous_args = 0
 1841              		.loc 1 788 1 is_stmt 0 view .LVU474
 1842 0000 F0B5     		push	{r4, r5, r6, r7, lr}
 1843              	.LCFI33:
 1844              		.cfi_def_cfa_offset 20
 1845              		.cfi_offset 4, -20
 1846              		.cfi_offset 5, -16
 1847              		.cfi_offset 6, -12
 1848              		.cfi_offset 7, -8
 1849              		.cfi_offset 14, -4
 1850 0002 059E     		ldr	r6, [sp, #20]
 789:./.ccls_cache/home/carver/Documents/stm32_with_linux/medical/Libraries/src/max30102.c ****   int32_t i = 1, n_width;
ARM GAS  /tmp/ccriZ1yi.s 			page 51


 1851              		.loc 1 789 3 is_stmt 1 view .LVU475
 1852              	.LVL225:
 790:./.ccls_cache/home/carver/Documents/stm32_with_linux/medical/Libraries/src/max30102.c ****   *pn_npks = 0;
 1853              		.loc 1 790 3 view .LVU476
 1854              		.loc 1 790 12 is_stmt 0 view .LVU477
 1855 0004 0024     		movs	r4, #0
 1856 0006 0C60     		str	r4, [r1]
 791:./.ccls_cache/home/carver/Documents/stm32_with_linux/medical/Libraries/src/max30102.c **** 
 792:./.ccls_cache/home/carver/Documents/stm32_with_linux/medical/Libraries/src/max30102.c ****   while (i < n_size - 1) {
 1857              		.loc 1 792 3 is_stmt 1 view .LVU478
 789:./.ccls_cache/home/carver/Documents/stm32_with_linux/medical/Libraries/src/max30102.c ****   *pn_npks = 0;
 1858              		.loc 1 789 11 is_stmt 0 view .LVU479
 1859 0008 0124     		movs	r4, #1
 1860              		.loc 1 792 9 view .LVU480
 1861 000a 19E0     		b	.L102
 1862              	.LVL226:
 1863              	.L106:
 793:./.ccls_cache/home/carver/Documents/stm32_with_linux/medical/Libraries/src/max30102.c ****     if (pn_x[i] > n_min_height &&
 794:./.ccls_cache/home/carver/Documents/stm32_with_linux/medical/Libraries/src/max30102.c ****         pn_x[i] > pn_x[i - 1]) { // find left edge of potential peaks
 795:./.ccls_cache/home/carver/Documents/stm32_with_linux/medical/Libraries/src/max30102.c ****       n_width = 1;
 796:./.ccls_cache/home/carver/Documents/stm32_with_linux/medical/Libraries/src/max30102.c ****       while (i + n_width < n_size &&
 797:./.ccls_cache/home/carver/Documents/stm32_with_linux/medical/Libraries/src/max30102.c ****              pn_x[i] == pn_x[i + n_width]) // find flat peaks
 798:./.ccls_cache/home/carver/Documents/stm32_with_linux/medical/Libraries/src/max30102.c ****         n_width++;
 1864              		.loc 1 798 9 is_stmt 1 view .LVU481
 1865              		.loc 1 798 16 is_stmt 0 view .LVU482
 1866 000c 0EF1010E 		add	lr, lr, #1
 1867              	.LVL227:
 1868              	.L104:
 796:./.ccls_cache/home/carver/Documents/stm32_with_linux/medical/Libraries/src/max30102.c ****              pn_x[i] == pn_x[i + n_width]) // find flat peaks
 1869              		.loc 1 796 35 is_stmt 1 view .LVU483
 796:./.ccls_cache/home/carver/Documents/stm32_with_linux/medical/Libraries/src/max30102.c ****              pn_x[i] == pn_x[i + n_width]) // find flat peaks
 1870              		.loc 1 796 16 is_stmt 0 view .LVU484
 1871 0010 04EB0E0C 		add	ip, r4, lr
 796:./.ccls_cache/home/carver/Documents/stm32_with_linux/medical/Libraries/src/max30102.c ****              pn_x[i] == pn_x[i + n_width]) // find flat peaks
 1872              		.loc 1 796 35 view .LVU485
 1873 0014 9C45     		cmp	ip, r3
 1874 0016 03DA     		bge	.L105
 796:./.ccls_cache/home/carver/Documents/stm32_with_linux/medical/Libraries/src/max30102.c ****              pn_x[i] == pn_x[i + n_width]) // find flat peaks
 1875              		.loc 1 796 35 discriminator 1 view .LVU486
 1876 0018 52F82C70 		ldr	r7, [r2, ip, lsl #2]
 1877 001c BD42     		cmp	r5, r7
 1878 001e F5D0     		beq	.L106
 1879              	.L105:
 799:./.ccls_cache/home/carver/Documents/stm32_with_linux/medical/Libraries/src/max30102.c ****       if (pn_x[i] > pn_x[i + n_width] &&
 1880              		.loc 1 799 7 is_stmt 1 view .LVU487
 1881              		.loc 1 799 10 is_stmt 0 view .LVU488
 1882 0020 52F82C70 		ldr	r7, [r2, ip, lsl #2]
 1883 0024 BD42     		cmp	r5, r7
 1884 0026 1DDD     		ble	.L110
 800:./.ccls_cache/home/carver/Documents/stm32_with_linux/medical/Libraries/src/max30102.c ****           (*pn_npks) < 15) { // find right edge of peaks
 1885              		.loc 1 800 12 view .LVU489
 1886 0028 0D68     		ldr	r5, [r1]
 799:./.ccls_cache/home/carver/Documents/stm32_with_linux/medical/Libraries/src/max30102.c ****       if (pn_x[i] > pn_x[i + n_width] &&
 1887              		.loc 1 799 39 discriminator 1 view .LVU490
 1888 002a 0E2D     		cmp	r5, #14
 1889 002c 1CDC     		bgt	.L111
 801:./.ccls_cache/home/carver/Documents/stm32_with_linux/medical/Libraries/src/max30102.c ****         pn_locs[(*pn_npks)++] = i;
ARM GAS  /tmp/ccriZ1yi.s 			page 52


 1890              		.loc 1 801 9 is_stmt 1 view .LVU491
 1891              		.loc 1 801 27 is_stmt 0 view .LVU492
 1892 002e 6F1C     		adds	r7, r5, #1
 1893 0030 0F60     		str	r7, [r1]
 1894              		.loc 1 801 31 view .LVU493
 1895 0032 40F82540 		str	r4, [r0, r5, lsl #2]
 802:./.ccls_cache/home/carver/Documents/stm32_with_linux/medical/Libraries/src/max30102.c ****         // for flat peaks, peak location is left edge
 803:./.ccls_cache/home/carver/Documents/stm32_with_linux/medical/Libraries/src/max30102.c ****         i += n_width + 1;
 1896              		.loc 1 803 9 is_stmt 1 view .LVU494
 1897              		.loc 1 803 22 is_stmt 0 view .LVU495
 1898 0036 0EF1010E 		add	lr, lr, #1
 1899              	.LVL228:
 1900              		.loc 1 803 11 view .LVU496
 1901 003a 7444     		add	r4, r4, lr
 1902              	.LVL229:
 1903              		.loc 1 803 11 view .LVU497
 1904 003c 00E0     		b	.L102
 1905              	.LVL230:
 1906              	.L103:
 804:./.ccls_cache/home/carver/Documents/stm32_with_linux/medical/Libraries/src/max30102.c ****       } else
 805:./.ccls_cache/home/carver/Documents/stm32_with_linux/medical/Libraries/src/max30102.c ****         i += n_width;
 806:./.ccls_cache/home/carver/Documents/stm32_with_linux/medical/Libraries/src/max30102.c ****     } else
 807:./.ccls_cache/home/carver/Documents/stm32_with_linux/medical/Libraries/src/max30102.c ****       i++;
 1907              		.loc 1 807 7 is_stmt 1 view .LVU498
 1908              		.loc 1 807 8 is_stmt 0 view .LVU499
 1909 003e 0134     		adds	r4, r4, #1
 1910              	.LVL231:
 1911              	.L102:
 792:./.ccls_cache/home/carver/Documents/stm32_with_linux/medical/Libraries/src/max30102.c ****     if (pn_x[i] > n_min_height &&
 1912              		.loc 1 792 12 is_stmt 1 view .LVU500
 792:./.ccls_cache/home/carver/Documents/stm32_with_linux/medical/Libraries/src/max30102.c ****     if (pn_x[i] > n_min_height &&
 1913              		.loc 1 792 21 is_stmt 0 view .LVU501
 1914 0040 5D1E     		subs	r5, r3, #1
 792:./.ccls_cache/home/carver/Documents/stm32_with_linux/medical/Libraries/src/max30102.c ****     if (pn_x[i] > n_min_height &&
 1915              		.loc 1 792 12 view .LVU502
 1916 0042 A542     		cmp	r5, r4
 1917 0044 12DD     		ble	.L113
 793:./.ccls_cache/home/carver/Documents/stm32_with_linux/medical/Libraries/src/max30102.c ****         pn_x[i] > pn_x[i - 1]) { // find left edge of potential peaks
 1918              		.loc 1 793 5 is_stmt 1 view .LVU503
 793:./.ccls_cache/home/carver/Documents/stm32_with_linux/medical/Libraries/src/max30102.c ****         pn_x[i] > pn_x[i - 1]) { // find left edge of potential peaks
 1919              		.loc 1 793 13 is_stmt 0 view .LVU504
 1920 0046 52F82450 		ldr	r5, [r2, r4, lsl #2]
 793:./.ccls_cache/home/carver/Documents/stm32_with_linux/medical/Libraries/src/max30102.c ****         pn_x[i] > pn_x[i - 1]) { // find left edge of potential peaks
 1921              		.loc 1 793 8 view .LVU505
 1922 004a B542     		cmp	r5, r6
 1923 004c F7DD     		ble	.L103
 794:./.ccls_cache/home/carver/Documents/stm32_with_linux/medical/Libraries/src/max30102.c ****       n_width = 1;
 1924              		.loc 1 794 23 view .LVU506
 1925 004e 04F1804C 		add	ip, r4, #1073741824
 1926 0052 0CF1FF3C 		add	ip, ip, #-1
 1927 0056 52F82C70 		ldr	r7, [r2, ip, lsl #2]
 793:./.ccls_cache/home/carver/Documents/stm32_with_linux/medical/Libraries/src/max30102.c ****         pn_x[i] > pn_x[i - 1]) { // find left edge of potential peaks
 1928              		.loc 1 793 32 discriminator 1 view .LVU507
 1929 005a BD42     		cmp	r5, r7
 1930 005c EFDD     		ble	.L103
 795:./.ccls_cache/home/carver/Documents/stm32_with_linux/medical/Libraries/src/max30102.c ****       while (i + n_width < n_size &&
 1931              		.loc 1 795 15 view .LVU508
ARM GAS  /tmp/ccriZ1yi.s 			page 53


 1932 005e 4FF0010E 		mov	lr, #1
 1933 0062 D5E7     		b	.L104
 1934              	.LVL232:
 1935              	.L110:
 805:./.ccls_cache/home/carver/Documents/stm32_with_linux/medical/Libraries/src/max30102.c ****     } else
 1936              		.loc 1 805 11 view .LVU509
 1937 0064 6446     		mov	r4, ip
 1938              	.LVL233:
 805:./.ccls_cache/home/carver/Documents/stm32_with_linux/medical/Libraries/src/max30102.c ****     } else
 1939              		.loc 1 805 11 view .LVU510
 1940 0066 EBE7     		b	.L102
 1941              	.LVL234:
 1942              	.L111:
 805:./.ccls_cache/home/carver/Documents/stm32_with_linux/medical/Libraries/src/max30102.c ****     } else
 1943              		.loc 1 805 11 view .LVU511
 1944 0068 6446     		mov	r4, ip
 1945              	.LVL235:
 805:./.ccls_cache/home/carver/Documents/stm32_with_linux/medical/Libraries/src/max30102.c ****     } else
 1946              		.loc 1 805 11 view .LVU512
 1947 006a E9E7     		b	.L102
 1948              	.LVL236:
 1949              	.L113:
 808:./.ccls_cache/home/carver/Documents/stm32_with_linux/medical/Libraries/src/max30102.c ****   }
 809:./.ccls_cache/home/carver/Documents/stm32_with_linux/medical/Libraries/src/max30102.c **** }
 1950              		.loc 1 809 1 view .LVU513
 1951 006c F0BD     		pop	{r4, r5, r6, r7, pc}
 1952              		.loc 1 809 1 view .LVU514
 1953              		.cfi_endproc
 1954              	.LFE57:
 1956              		.section	.text.maxim_sort_ascend,"ax",%progbits
 1957              		.align	1
 1958              		.global	maxim_sort_ascend
 1959              		.syntax unified
 1960              		.thumb
 1961              		.thumb_func
 1963              	maxim_sort_ascend:
 1964              	.LVL237:
 1965              	.LFB59:
 810:./.ccls_cache/home/carver/Documents/stm32_with_linux/medical/Libraries/src/max30102.c **** 
 811:./.ccls_cache/home/carver/Documents/stm32_with_linux/medical/Libraries/src/max30102.c **** void maxim_remove_close_peaks(int32_t *pn_locs, int32_t *pn_npks, int32_t *pn_x,
 812:./.ccls_cache/home/carver/Documents/stm32_with_linux/medical/Libraries/src/max30102.c ****                               int32_t n_min_distance)
 813:./.ccls_cache/home/carver/Documents/stm32_with_linux/medical/Libraries/src/max30102.c **** /**
 814:./.ccls_cache/home/carver/Documents/stm32_with_linux/medical/Libraries/src/max30102.c ****  * \brief        Remove peaks
 815:./.ccls_cache/home/carver/Documents/stm32_with_linux/medical/Libraries/src/max30102.c ****  * \par          Details
 816:./.ccls_cache/home/carver/Documents/stm32_with_linux/medical/Libraries/src/max30102.c ****  *               Remove peaks separated by less than MIN_DISTANCE
 817:./.ccls_cache/home/carver/Documents/stm32_with_linux/medical/Libraries/src/max30102.c ****  *
 818:./.ccls_cache/home/carver/Documents/stm32_with_linux/medical/Libraries/src/max30102.c ****  * \retval       None
 819:./.ccls_cache/home/carver/Documents/stm32_with_linux/medical/Libraries/src/max30102.c ****  */
 820:./.ccls_cache/home/carver/Documents/stm32_with_linux/medical/Libraries/src/max30102.c **** {
 821:./.ccls_cache/home/carver/Documents/stm32_with_linux/medical/Libraries/src/max30102.c **** 
 822:./.ccls_cache/home/carver/Documents/stm32_with_linux/medical/Libraries/src/max30102.c ****   int32_t i, j, n_old_npks, n_dist;
 823:./.ccls_cache/home/carver/Documents/stm32_with_linux/medical/Libraries/src/max30102.c **** 
 824:./.ccls_cache/home/carver/Documents/stm32_with_linux/medical/Libraries/src/max30102.c ****   /* Order peaks from large to small */
 825:./.ccls_cache/home/carver/Documents/stm32_with_linux/medical/Libraries/src/max30102.c ****   maxim_sort_indices_descend(pn_x, pn_locs, *pn_npks);
 826:./.ccls_cache/home/carver/Documents/stm32_with_linux/medical/Libraries/src/max30102.c **** 
 827:./.ccls_cache/home/carver/Documents/stm32_with_linux/medical/Libraries/src/max30102.c ****   for (i = -1; i < *pn_npks; i++) {
 828:./.ccls_cache/home/carver/Documents/stm32_with_linux/medical/Libraries/src/max30102.c ****     n_old_npks = *pn_npks;
ARM GAS  /tmp/ccriZ1yi.s 			page 54


 829:./.ccls_cache/home/carver/Documents/stm32_with_linux/medical/Libraries/src/max30102.c ****     *pn_npks = i + 1;
 830:./.ccls_cache/home/carver/Documents/stm32_with_linux/medical/Libraries/src/max30102.c ****     for (j = i + 1; j < n_old_npks; j++) {
 831:./.ccls_cache/home/carver/Documents/stm32_with_linux/medical/Libraries/src/max30102.c ****       n_dist =
 832:./.ccls_cache/home/carver/Documents/stm32_with_linux/medical/Libraries/src/max30102.c ****           pn_locs[j] -
 833:./.ccls_cache/home/carver/Documents/stm32_with_linux/medical/Libraries/src/max30102.c ****           (i == -1 ? -1
 834:./.ccls_cache/home/carver/Documents/stm32_with_linux/medical/Libraries/src/max30102.c ****                    : pn_locs[i]); // lag-zero peak of autocorr is at index -1
 835:./.ccls_cache/home/carver/Documents/stm32_with_linux/medical/Libraries/src/max30102.c ****       if (n_dist > n_min_distance || n_dist < -n_min_distance)
 836:./.ccls_cache/home/carver/Documents/stm32_with_linux/medical/Libraries/src/max30102.c ****         pn_locs[(*pn_npks)++] = pn_locs[j];
 837:./.ccls_cache/home/carver/Documents/stm32_with_linux/medical/Libraries/src/max30102.c ****     }
 838:./.ccls_cache/home/carver/Documents/stm32_with_linux/medical/Libraries/src/max30102.c ****   }
 839:./.ccls_cache/home/carver/Documents/stm32_with_linux/medical/Libraries/src/max30102.c **** 
 840:./.ccls_cache/home/carver/Documents/stm32_with_linux/medical/Libraries/src/max30102.c ****   // Resort indices longo ascending order
 841:./.ccls_cache/home/carver/Documents/stm32_with_linux/medical/Libraries/src/max30102.c ****   maxim_sort_ascend(pn_locs, *pn_npks);
 842:./.ccls_cache/home/carver/Documents/stm32_with_linux/medical/Libraries/src/max30102.c **** }
 843:./.ccls_cache/home/carver/Documents/stm32_with_linux/medical/Libraries/src/max30102.c **** 
 844:./.ccls_cache/home/carver/Documents/stm32_with_linux/medical/Libraries/src/max30102.c **** void maxim_sort_ascend(int32_t *pn_x, int32_t n_size)
 845:./.ccls_cache/home/carver/Documents/stm32_with_linux/medical/Libraries/src/max30102.c **** /**
 846:./.ccls_cache/home/carver/Documents/stm32_with_linux/medical/Libraries/src/max30102.c ****  * \brief        Sort array
 847:./.ccls_cache/home/carver/Documents/stm32_with_linux/medical/Libraries/src/max30102.c ****  * \par          Details
 848:./.ccls_cache/home/carver/Documents/stm32_with_linux/medical/Libraries/src/max30102.c ****  *               Sort array in ascending order (insertion sort algorithm)
 849:./.ccls_cache/home/carver/Documents/stm32_with_linux/medical/Libraries/src/max30102.c ****  *
 850:./.ccls_cache/home/carver/Documents/stm32_with_linux/medical/Libraries/src/max30102.c ****  * \retval       None
 851:./.ccls_cache/home/carver/Documents/stm32_with_linux/medical/Libraries/src/max30102.c ****  */
 852:./.ccls_cache/home/carver/Documents/stm32_with_linux/medical/Libraries/src/max30102.c **** {
 1966              		.loc 1 852 1 is_stmt 1 view -0
 1967              		.cfi_startproc
 1968              		@ args = 0, pretend = 0, frame = 0
 1969              		@ frame_needed = 0, uses_anonymous_args = 0
 1970              		.loc 1 852 1 is_stmt 0 view .LVU516
 1971 0000 00B5     		push	{lr}
 1972              	.LCFI34:
 1973              		.cfi_def_cfa_offset 4
 1974              		.cfi_offset 14, -4
 1975 0002 8E46     		mov	lr, r1
 853:./.ccls_cache/home/carver/Documents/stm32_with_linux/medical/Libraries/src/max30102.c ****   int32_t i, j, n_temp;
 1976              		.loc 1 853 3 is_stmt 1 view .LVU517
 854:./.ccls_cache/home/carver/Documents/stm32_with_linux/medical/Libraries/src/max30102.c ****   for (i = 1; i < n_size; i++) {
 1977              		.loc 1 854 3 view .LVU518
 1978              	.LVL238:
 1979              		.loc 1 854 10 is_stmt 0 view .LVU519
 1980 0004 4FF0010C 		mov	ip, #1
 1981              		.loc 1 854 3 view .LVU520
 1982 0008 0FE0     		b	.L115
 1983              	.LVL239:
 1984              	.L118:
 855:./.ccls_cache/home/carver/Documents/stm32_with_linux/medical/Libraries/src/max30102.c ****     n_temp = pn_x[i];
 856:./.ccls_cache/home/carver/Documents/stm32_with_linux/medical/Libraries/src/max30102.c ****     for (j = i; j > 0 && n_temp < pn_x[j - 1]; j--)
 857:./.ccls_cache/home/carver/Documents/stm32_with_linux/medical/Libraries/src/max30102.c ****       pn_x[j] = pn_x[j - 1];
 1985              		.loc 1 857 7 is_stmt 1 view .LVU521
 1986              		.loc 1 857 15 is_stmt 0 view .LVU522
 1987 000a 40F82320 		str	r2, [r0, r3, lsl #2]
 856:./.ccls_cache/home/carver/Documents/stm32_with_linux/medical/Libraries/src/max30102.c ****       pn_x[j] = pn_x[j - 1];
 1988              		.loc 1 856 49 is_stmt 1 discriminator 4 view .LVU523
 1989 000e 013B     		subs	r3, r3, #1
 1990              	.LVL240:
 1991              	.L116:
 856:./.ccls_cache/home/carver/Documents/stm32_with_linux/medical/Libraries/src/max30102.c ****       pn_x[j] = pn_x[j - 1];
ARM GAS  /tmp/ccriZ1yi.s 			page 55


 1992              		.loc 1 856 23 discriminator 1 view .LVU524
 1993 0010 002B     		cmp	r3, #0
 1994 0012 06DD     		ble	.L117
 856:./.ccls_cache/home/carver/Documents/stm32_with_linux/medical/Libraries/src/max30102.c ****       pn_x[j] = pn_x[j - 1];
 1995              		.loc 1 856 39 is_stmt 0 discriminator 3 view .LVU525
 1996 0014 03F18042 		add	r2, r3, #1073741824
 1997 0018 013A     		subs	r2, r2, #1
 1998 001a 50F82220 		ldr	r2, [r0, r2, lsl #2]
 856:./.ccls_cache/home/carver/Documents/stm32_with_linux/medical/Libraries/src/max30102.c ****       pn_x[j] = pn_x[j - 1];
 1999              		.loc 1 856 23 discriminator 3 view .LVU526
 2000 001e 8A42     		cmp	r2, r1
 2001 0020 F3DC     		bgt	.L118
 2002              	.L117:
 858:./.ccls_cache/home/carver/Documents/stm32_with_linux/medical/Libraries/src/max30102.c ****     pn_x[j] = n_temp;
 2003              		.loc 1 858 5 is_stmt 1 view .LVU527
 2004              		.loc 1 858 13 is_stmt 0 view .LVU528
 2005 0022 40F82310 		str	r1, [r0, r3, lsl #2]
 854:./.ccls_cache/home/carver/Documents/stm32_with_linux/medical/Libraries/src/max30102.c ****     n_temp = pn_x[i];
 2006              		.loc 1 854 28 is_stmt 1 discriminator 2 view .LVU529
 2007 0026 0CF1010C 		add	ip, ip, #1
 2008              	.LVL241:
 2009              	.L115:
 854:./.ccls_cache/home/carver/Documents/stm32_with_linux/medical/Libraries/src/max30102.c ****     n_temp = pn_x[i];
 2010              		.loc 1 854 17 discriminator 1 view .LVU530
 2011 002a F445     		cmp	ip, lr
 2012 002c 03DA     		bge	.L121
 855:./.ccls_cache/home/carver/Documents/stm32_with_linux/medical/Libraries/src/max30102.c ****     for (j = i; j > 0 && n_temp < pn_x[j - 1]; j--)
 2013              		.loc 1 855 5 view .LVU531
 855:./.ccls_cache/home/carver/Documents/stm32_with_linux/medical/Libraries/src/max30102.c ****     for (j = i; j > 0 && n_temp < pn_x[j - 1]; j--)
 2014              		.loc 1 855 12 is_stmt 0 view .LVU532
 2015 002e 50F82C10 		ldr	r1, [r0, ip, lsl #2]
 2016              	.LVL242:
 856:./.ccls_cache/home/carver/Documents/stm32_with_linux/medical/Libraries/src/max30102.c ****       pn_x[j] = pn_x[j - 1];
 2017              		.loc 1 856 5 is_stmt 1 view .LVU533
 856:./.ccls_cache/home/carver/Documents/stm32_with_linux/medical/Libraries/src/max30102.c ****       pn_x[j] = pn_x[j - 1];
 2018              		.loc 1 856 12 is_stmt 0 view .LVU534
 2019 0032 6346     		mov	r3, ip
 856:./.ccls_cache/home/carver/Documents/stm32_with_linux/medical/Libraries/src/max30102.c ****       pn_x[j] = pn_x[j - 1];
 2020              		.loc 1 856 5 view .LVU535
 2021 0034 ECE7     		b	.L116
 2022              	.LVL243:
 2023              	.L121:
 859:./.ccls_cache/home/carver/Documents/stm32_with_linux/medical/Libraries/src/max30102.c ****   }
 860:./.ccls_cache/home/carver/Documents/stm32_with_linux/medical/Libraries/src/max30102.c **** }
 2024              		.loc 1 860 1 view .LVU536
 2025 0036 5DF804FB 		ldr	pc, [sp], #4
 2026              		.cfi_endproc
 2027              	.LFE59:
 2029              		.section	.text.maxim_sort_indices_descend,"ax",%progbits
 2030              		.align	1
 2031              		.global	maxim_sort_indices_descend
 2032              		.syntax unified
 2033              		.thumb
 2034              		.thumb_func
 2036              	maxim_sort_indices_descend:
 2037              	.LVL244:
 2038              	.LFB60:
ARM GAS  /tmp/ccriZ1yi.s 			page 56


 861:./.ccls_cache/home/carver/Documents/stm32_with_linux/medical/Libraries/src/max30102.c **** 
 862:./.ccls_cache/home/carver/Documents/stm32_with_linux/medical/Libraries/src/max30102.c **** void maxim_sort_indices_descend(int32_t *pn_x, int32_t *pn_indx, int32_t n_size)
 863:./.ccls_cache/home/carver/Documents/stm32_with_linux/medical/Libraries/src/max30102.c **** /**
 864:./.ccls_cache/home/carver/Documents/stm32_with_linux/medical/Libraries/src/max30102.c ****  * \brief        Sort indices
 865:./.ccls_cache/home/carver/Documents/stm32_with_linux/medical/Libraries/src/max30102.c ****  * \par          Details
 866:./.ccls_cache/home/carver/Documents/stm32_with_linux/medical/Libraries/src/max30102.c ****  *               Sort indices according to descending order (insertion sort
 867:./.ccls_cache/home/carver/Documents/stm32_with_linux/medical/Libraries/src/max30102.c ****  * algorithm)
 868:./.ccls_cache/home/carver/Documents/stm32_with_linux/medical/Libraries/src/max30102.c ****  *
 869:./.ccls_cache/home/carver/Documents/stm32_with_linux/medical/Libraries/src/max30102.c ****  * \retval       None
 870:./.ccls_cache/home/carver/Documents/stm32_with_linux/medical/Libraries/src/max30102.c ****  */
 871:./.ccls_cache/home/carver/Documents/stm32_with_linux/medical/Libraries/src/max30102.c **** {
 2039              		.loc 1 871 1 is_stmt 1 view -0
 2040              		.cfi_startproc
 2041              		@ args = 0, pretend = 0, frame = 0
 2042              		@ frame_needed = 0, uses_anonymous_args = 0
 2043              		.loc 1 871 1 is_stmt 0 view .LVU538
 2044 0000 70B5     		push	{r4, r5, r6, lr}
 2045              	.LCFI35:
 2046              		.cfi_def_cfa_offset 16
 2047              		.cfi_offset 4, -16
 2048              		.cfi_offset 5, -12
 2049              		.cfi_offset 6, -8
 2050              		.cfi_offset 14, -4
 2051 0002 1546     		mov	r5, r2
 872:./.ccls_cache/home/carver/Documents/stm32_with_linux/medical/Libraries/src/max30102.c ****   int32_t i, j, n_temp;
 2052              		.loc 1 872 3 is_stmt 1 view .LVU539
 873:./.ccls_cache/home/carver/Documents/stm32_with_linux/medical/Libraries/src/max30102.c ****   for (i = 1; i < n_size; i++) {
 2053              		.loc 1 873 3 view .LVU540
 2054              	.LVL245:
 2055              		.loc 1 873 10 is_stmt 0 view .LVU541
 2056 0004 4FF0010E 		mov	lr, #1
 2057              		.loc 1 873 3 view .LVU542
 2058 0008 14E0     		b	.L123
 2059              	.LVL246:
 2060              	.L126:
 874:./.ccls_cache/home/carver/Documents/stm32_with_linux/medical/Libraries/src/max30102.c ****     n_temp = pn_indx[i];
 875:./.ccls_cache/home/carver/Documents/stm32_with_linux/medical/Libraries/src/max30102.c ****     for (j = i; j > 0 && pn_x[n_temp] > pn_x[pn_indx[j - 1]]; j--)
 876:./.ccls_cache/home/carver/Documents/stm32_with_linux/medical/Libraries/src/max30102.c ****       pn_indx[j] = pn_indx[j - 1];
 2061              		.loc 1 876 7 is_stmt 1 view .LVU543
 2062              		.loc 1 876 18 is_stmt 0 view .LVU544
 2063 000a 41F82320 		str	r2, [r1, r3, lsl #2]
 875:./.ccls_cache/home/carver/Documents/stm32_with_linux/medical/Libraries/src/max30102.c ****       pn_indx[j] = pn_indx[j - 1];
 2064              		.loc 1 875 64 is_stmt 1 discriminator 4 view .LVU545
 2065 000e 013B     		subs	r3, r3, #1
 2066              	.LVL247:
 2067              	.L124:
 875:./.ccls_cache/home/carver/Documents/stm32_with_linux/medical/Libraries/src/max30102.c ****       pn_indx[j] = pn_indx[j - 1];
 2068              		.loc 1 875 23 discriminator 1 view .LVU546
 2069 0010 002B     		cmp	r3, #0
 2070 0012 0BDD     		ble	.L125
 875:./.ccls_cache/home/carver/Documents/stm32_with_linux/medical/Libraries/src/max30102.c ****       pn_indx[j] = pn_indx[j - 1];
 2071              		.loc 1 875 53 is_stmt 0 discriminator 3 view .LVU547
 2072 0014 03F1804C 		add	ip, r3, #1073741824
 2073 0018 0CF1FF3C 		add	ip, ip, #-1
 2074 001c 51F82C20 		ldr	r2, [r1, ip, lsl #2]
 875:./.ccls_cache/home/carver/Documents/stm32_with_linux/medical/Libraries/src/max30102.c ****       pn_indx[j] = pn_indx[j - 1];
 2075              		.loc 1 875 23 discriminator 3 view .LVU548
ARM GAS  /tmp/ccriZ1yi.s 			page 57


 2076 0020 50F824C0 		ldr	ip, [r0, r4, lsl #2]
 2077 0024 50F82260 		ldr	r6, [r0, r2, lsl #2]
 2078 0028 B445     		cmp	ip, r6
 2079 002a EEDC     		bgt	.L126
 2080              	.L125:
 877:./.ccls_cache/home/carver/Documents/stm32_with_linux/medical/Libraries/src/max30102.c ****     pn_indx[j] = n_temp;
 2081              		.loc 1 877 5 is_stmt 1 view .LVU549
 2082              		.loc 1 877 16 is_stmt 0 view .LVU550
 2083 002c 41F82340 		str	r4, [r1, r3, lsl #2]
 873:./.ccls_cache/home/carver/Documents/stm32_with_linux/medical/Libraries/src/max30102.c ****     n_temp = pn_indx[i];
 2084              		.loc 1 873 28 is_stmt 1 discriminator 2 view .LVU551
 2085 0030 0EF1010E 		add	lr, lr, #1
 2086              	.LVL248:
 2087              	.L123:
 873:./.ccls_cache/home/carver/Documents/stm32_with_linux/medical/Libraries/src/max30102.c ****     n_temp = pn_indx[i];
 2088              		.loc 1 873 17 discriminator 1 view .LVU552
 2089 0034 AE45     		cmp	lr, r5
 2090 0036 03DA     		bge	.L129
 874:./.ccls_cache/home/carver/Documents/stm32_with_linux/medical/Libraries/src/max30102.c ****     for (j = i; j > 0 && pn_x[n_temp] > pn_x[pn_indx[j - 1]]; j--)
 2091              		.loc 1 874 5 view .LVU553
 874:./.ccls_cache/home/carver/Documents/stm32_with_linux/medical/Libraries/src/max30102.c ****     for (j = i; j > 0 && pn_x[n_temp] > pn_x[pn_indx[j - 1]]; j--)
 2092              		.loc 1 874 12 is_stmt 0 view .LVU554
 2093 0038 51F82E40 		ldr	r4, [r1, lr, lsl #2]
 2094              	.LVL249:
 875:./.ccls_cache/home/carver/Documents/stm32_with_linux/medical/Libraries/src/max30102.c ****       pn_indx[j] = pn_indx[j - 1];
 2095              		.loc 1 875 5 is_stmt 1 view .LVU555
 875:./.ccls_cache/home/carver/Documents/stm32_with_linux/medical/Libraries/src/max30102.c ****       pn_indx[j] = pn_indx[j - 1];
 2096              		.loc 1 875 12 is_stmt 0 view .LVU556
 2097 003c 7346     		mov	r3, lr
 875:./.ccls_cache/home/carver/Documents/stm32_with_linux/medical/Libraries/src/max30102.c ****       pn_indx[j] = pn_indx[j - 1];
 2098              		.loc 1 875 5 view .LVU557
 2099 003e E7E7     		b	.L124
 2100              	.LVL250:
 2101              	.L129:
 878:./.ccls_cache/home/carver/Documents/stm32_with_linux/medical/Libraries/src/max30102.c ****   }
 879:./.ccls_cache/home/carver/Documents/stm32_with_linux/medical/Libraries/src/max30102.c **** }
 2102              		.loc 1 879 1 view .LVU558
 2103 0040 70BD     		pop	{r4, r5, r6, pc}
 2104              		.loc 1 879 1 view .LVU559
 2105              		.cfi_endproc
 2106              	.LFE60:
 2108              		.section	.text.maxim_remove_close_peaks,"ax",%progbits
 2109              		.align	1
 2110              		.global	maxim_remove_close_peaks
 2111              		.syntax unified
 2112              		.thumb
 2113              		.thumb_func
 2115              	maxim_remove_close_peaks:
 2116              	.LVL251:
 2117              	.LFB58:
 820:./.ccls_cache/home/carver/Documents/stm32_with_linux/medical/Libraries/src/max30102.c **** 
 2118              		.loc 1 820 1 is_stmt 1 view -0
 2119              		.cfi_startproc
 2120              		@ args = 0, pretend = 0, frame = 0
 2121              		@ frame_needed = 0, uses_anonymous_args = 0
 820:./.ccls_cache/home/carver/Documents/stm32_with_linux/medical/Libraries/src/max30102.c **** 
 2122              		.loc 1 820 1 is_stmt 0 view .LVU561
ARM GAS  /tmp/ccriZ1yi.s 			page 58


 2123 0000 2DE9F041 		push	{r4, r5, r6, r7, r8, lr}
 2124              	.LCFI36:
 2125              		.cfi_def_cfa_offset 24
 2126              		.cfi_offset 4, -24
 2127              		.cfi_offset 5, -20
 2128              		.cfi_offset 6, -16
 2129              		.cfi_offset 7, -12
 2130              		.cfi_offset 8, -8
 2131              		.cfi_offset 14, -4
 2132 0004 0446     		mov	r4, r0
 2133 0006 0D46     		mov	r5, r1
 2134 0008 1046     		mov	r0, r2
 2135              	.LVL252:
 820:./.ccls_cache/home/carver/Documents/stm32_with_linux/medical/Libraries/src/max30102.c **** 
 2136              		.loc 1 820 1 view .LVU562
 2137 000a 1E46     		mov	r6, r3
 822:./.ccls_cache/home/carver/Documents/stm32_with_linux/medical/Libraries/src/max30102.c **** 
 2138              		.loc 1 822 3 is_stmt 1 view .LVU563
 825:./.ccls_cache/home/carver/Documents/stm32_with_linux/medical/Libraries/src/max30102.c **** 
 2139              		.loc 1 825 3 view .LVU564
 2140 000c 0A68     		ldr	r2, [r1]
 2141              	.LVL253:
 825:./.ccls_cache/home/carver/Documents/stm32_with_linux/medical/Libraries/src/max30102.c **** 
 2142              		.loc 1 825 3 is_stmt 0 view .LVU565
 2143 000e 2146     		mov	r1, r4
 2144              	.LVL254:
 825:./.ccls_cache/home/carver/Documents/stm32_with_linux/medical/Libraries/src/max30102.c **** 
 2145              		.loc 1 825 3 view .LVU566
 2146 0010 FFF7FEFF 		bl	maxim_sort_indices_descend
 2147              	.LVL255:
 827:./.ccls_cache/home/carver/Documents/stm32_with_linux/medical/Libraries/src/max30102.c ****     n_old_npks = *pn_npks;
 2148              		.loc 1 827 3 is_stmt 1 view .LVU567
 827:./.ccls_cache/home/carver/Documents/stm32_with_linux/medical/Libraries/src/max30102.c ****     n_old_npks = *pn_npks;
 2149              		.loc 1 827 10 is_stmt 0 view .LVU568
 2150 0014 4FF0FF30 		mov	r0, #-1
 827:./.ccls_cache/home/carver/Documents/stm32_with_linux/medical/Libraries/src/max30102.c ****     n_old_npks = *pn_npks;
 2151              		.loc 1 827 3 view .LVU569
 2152 0018 1DE0     		b	.L131
 2153              	.LVL256:
 2154              	.L138:
 834:./.ccls_cache/home/carver/Documents/stm32_with_linux/medical/Libraries/src/max30102.c ****       if (n_dist > n_min_distance || n_dist < -n_min_distance)
 2155              		.loc 1 834 20 discriminator 2 view .LVU570
 2156 001a 0746     		mov	r7, r0
 2157 001c 12E0     		b	.L133
 2158              	.LVL257:
 2159              	.L134:
 836:./.ccls_cache/home/carver/Documents/stm32_with_linux/medical/Libraries/src/max30102.c ****     }
 2160              		.loc 1 836 9 is_stmt 1 view .LVU571
 836:./.ccls_cache/home/carver/Documents/stm32_with_linux/medical/Libraries/src/max30102.c ****     }
 2161              		.loc 1 836 18 is_stmt 0 view .LVU572
 2162 001e 2B68     		ldr	r3, [r5]
 836:./.ccls_cache/home/carver/Documents/stm32_with_linux/medical/Libraries/src/max30102.c ****     }
 2163              		.loc 1 836 27 view .LVU573
 2164 0020 5F1C     		adds	r7, r3, #1
 2165 0022 2F60     		str	r7, [r5]
 836:./.ccls_cache/home/carver/Documents/stm32_with_linux/medical/Libraries/src/max30102.c ****     }
 2166              		.loc 1 836 40 view .LVU574
ARM GAS  /tmp/ccriZ1yi.s 			page 59


 2167 0024 54F80E70 		ldr	r7, [r4, lr]
 836:./.ccls_cache/home/carver/Documents/stm32_with_linux/medical/Libraries/src/max30102.c ****     }
 2168              		.loc 1 836 31 view .LVU575
 2169 0028 44F82370 		str	r7, [r4, r3, lsl #2]
 2170              	.L135:
 830:./.ccls_cache/home/carver/Documents/stm32_with_linux/medical/Libraries/src/max30102.c ****       n_dist =
 2171              		.loc 1 830 38 is_stmt 1 discriminator 2 view .LVU576
 2172 002c 0132     		adds	r2, r2, #1
 2173              	.LVL258:
 2174              	.L132:
 830:./.ccls_cache/home/carver/Documents/stm32_with_linux/medical/Libraries/src/max30102.c ****       n_dist =
 2175              		.loc 1 830 23 discriminator 1 view .LVU577
 2176 002e 9142     		cmp	r1, r2
 2177 0030 10DD     		ble	.L140
 831:./.ccls_cache/home/carver/Documents/stm32_with_linux/medical/Libraries/src/max30102.c ****           pn_locs[j] -
 2178              		.loc 1 831 7 view .LVU578
 832:./.ccls_cache/home/carver/Documents/stm32_with_linux/medical/Libraries/src/max30102.c ****           (i == -1 ? -1
 2179              		.loc 1 832 18 is_stmt 0 view .LVU579
 2180 0032 4FEA820E 		lsl	lr, r2, #2
 2181 0036 54F82230 		ldr	r3, [r4, r2, lsl #2]
 834:./.ccls_cache/home/carver/Documents/stm32_with_linux/medical/Libraries/src/max30102.c ****       if (n_dist > n_min_distance || n_dist < -n_min_distance)
 2182              		.loc 1 834 20 view .LVU580
 2183 003a B0F1FF3F 		cmp	r0, #-1
 2184 003e ECD0     		beq	.L138
 834:./.ccls_cache/home/carver/Documents/stm32_with_linux/medical/Libraries/src/max30102.c ****       if (n_dist > n_min_distance || n_dist < -n_min_distance)
 2185              		.loc 1 834 20 discriminator 1 view .LVU581
 2186 0040 54F82070 		ldr	r7, [r4, r0, lsl #2]
 2187              	.L133:
 831:./.ccls_cache/home/carver/Documents/stm32_with_linux/medical/Libraries/src/max30102.c ****           pn_locs[j] -
 2188              		.loc 1 831 14 view .LVU582
 2189 0044 A3EB070C 		sub	ip, r3, r7
 2190              	.LVL259:
 835:./.ccls_cache/home/carver/Documents/stm32_with_linux/medical/Libraries/src/max30102.c ****         pn_locs[(*pn_npks)++] = pn_locs[j];
 2191              		.loc 1 835 7 is_stmt 1 view .LVU583
 835:./.ccls_cache/home/carver/Documents/stm32_with_linux/medical/Libraries/src/max30102.c ****         pn_locs[(*pn_npks)++] = pn_locs[j];
 2192              		.loc 1 835 10 is_stmt 0 view .LVU584
 2193 0048 B445     		cmp	ip, r6
 2194 004a E8DC     		bgt	.L134
 835:./.ccls_cache/home/carver/Documents/stm32_with_linux/medical/Libraries/src/max30102.c ****         pn_locs[(*pn_npks)++] = pn_locs[j];
 2195              		.loc 1 835 47 discriminator 1 view .LVU585
 2196 004c 7342     		rsbs	r3, r6, #0
 835:./.ccls_cache/home/carver/Documents/stm32_with_linux/medical/Libraries/src/max30102.c ****         pn_locs[(*pn_npks)++] = pn_locs[j];
 2197              		.loc 1 835 35 discriminator 1 view .LVU586
 2198 004e 6345     		cmp	r3, ip
 2199 0050 ECDD     		ble	.L135
 2200 0052 E4E7     		b	.L134
 2201              	.LVL260:
 2202              	.L140:
 827:./.ccls_cache/home/carver/Documents/stm32_with_linux/medical/Libraries/src/max30102.c ****     n_old_npks = *pn_npks;
 2203              		.loc 1 827 31 discriminator 2 view .LVU587
 2204 0054 4046     		mov	r0, r8
 2205              	.LVL261:
 2206              	.L131:
 827:./.ccls_cache/home/carver/Documents/stm32_with_linux/medical/Libraries/src/max30102.c ****     n_old_npks = *pn_npks;
 2207              		.loc 1 827 18 is_stmt 1 discriminator 1 view .LVU588
 827:./.ccls_cache/home/carver/Documents/stm32_with_linux/medical/Libraries/src/max30102.c ****     n_old_npks = *pn_npks;
 2208              		.loc 1 827 20 is_stmt 0 discriminator 1 view .LVU589
ARM GAS  /tmp/ccriZ1yi.s 			page 60


 2209 0056 2968     		ldr	r1, [r5]
 827:./.ccls_cache/home/carver/Documents/stm32_with_linux/medical/Libraries/src/max30102.c ****     n_old_npks = *pn_npks;
 2210              		.loc 1 827 18 discriminator 1 view .LVU590
 2211 0058 8142     		cmp	r1, r0
 2212 005a 05DD     		ble	.L141
 828:./.ccls_cache/home/carver/Documents/stm32_with_linux/medical/Libraries/src/max30102.c ****     *pn_npks = i + 1;
 2213              		.loc 1 828 5 is_stmt 1 view .LVU591
 2214              	.LVL262:
 829:./.ccls_cache/home/carver/Documents/stm32_with_linux/medical/Libraries/src/max30102.c ****     for (j = i + 1; j < n_old_npks; j++) {
 2215              		.loc 1 829 5 view .LVU592
 829:./.ccls_cache/home/carver/Documents/stm32_with_linux/medical/Libraries/src/max30102.c ****     for (j = i + 1; j < n_old_npks; j++) {
 2216              		.loc 1 829 18 is_stmt 0 view .LVU593
 2217 005c 00F10108 		add	r8, r0, #1
 829:./.ccls_cache/home/carver/Documents/stm32_with_linux/medical/Libraries/src/max30102.c ****     for (j = i + 1; j < n_old_npks; j++) {
 2218              		.loc 1 829 14 view .LVU594
 2219 0060 C5F80080 		str	r8, [r5]
 830:./.ccls_cache/home/carver/Documents/stm32_with_linux/medical/Libraries/src/max30102.c ****       n_dist =
 2220              		.loc 1 830 5 is_stmt 1 view .LVU595
 2221              	.LVL263:
 830:./.ccls_cache/home/carver/Documents/stm32_with_linux/medical/Libraries/src/max30102.c ****       n_dist =
 2222              		.loc 1 830 12 is_stmt 0 view .LVU596
 2223 0064 4246     		mov	r2, r8
 830:./.ccls_cache/home/carver/Documents/stm32_with_linux/medical/Libraries/src/max30102.c ****       n_dist =
 2224              		.loc 1 830 5 view .LVU597
 2225 0066 E2E7     		b	.L132
 2226              	.LVL264:
 2227              	.L141:
 841:./.ccls_cache/home/carver/Documents/stm32_with_linux/medical/Libraries/src/max30102.c **** }
 2228              		.loc 1 841 3 is_stmt 1 view .LVU598
 2229 0068 2046     		mov	r0, r4
 2230              	.LVL265:
 841:./.ccls_cache/home/carver/Documents/stm32_with_linux/medical/Libraries/src/max30102.c **** }
 2231              		.loc 1 841 3 is_stmt 0 view .LVU599
 2232 006a FFF7FEFF 		bl	maxim_sort_ascend
 2233              	.LVL266:
 842:./.ccls_cache/home/carver/Documents/stm32_with_linux/medical/Libraries/src/max30102.c **** 
 2234              		.loc 1 842 1 view .LVU600
 2235 006e BDE8F081 		pop	{r4, r5, r6, r7, r8, pc}
 842:./.ccls_cache/home/carver/Documents/stm32_with_linux/medical/Libraries/src/max30102.c **** 
 2236              		.loc 1 842 1 view .LVU601
 2237              		.cfi_endproc
 2238              	.LFE58:
 2240              		.section	.text.maxim_find_peaks,"ax",%progbits
 2241              		.align	1
 2242              		.global	maxim_find_peaks
 2243              		.syntax unified
 2244              		.thumb
 2245              		.thumb_func
 2247              	maxim_find_peaks:
 2248              	.LVL267:
 2249              	.LFB56:
 772:./.ccls_cache/home/carver/Documents/stm32_with_linux/medical/Libraries/src/max30102.c ****   maxim_peaks_above_min_height(pn_locs, pn_npks, pn_x, n_size, n_min_height);
 2250              		.loc 1 772 1 is_stmt 1 view -0
 2251              		.cfi_startproc
 2252              		@ args = 12, pretend = 0, frame = 0
 2253              		@ frame_needed = 0, uses_anonymous_args = 0
 772:./.ccls_cache/home/carver/Documents/stm32_with_linux/medical/Libraries/src/max30102.c ****   maxim_peaks_above_min_height(pn_locs, pn_npks, pn_x, n_size, n_min_height);
ARM GAS  /tmp/ccriZ1yi.s 			page 61


 2254              		.loc 1 772 1 is_stmt 0 view .LVU603
 2255 0000 70B5     		push	{r4, r5, r6, lr}
 2256              	.LCFI37:
 2257              		.cfi_def_cfa_offset 16
 2258              		.cfi_offset 4, -16
 2259              		.cfi_offset 5, -12
 2260              		.cfi_offset 6, -8
 2261              		.cfi_offset 14, -4
 2262 0002 82B0     		sub	sp, sp, #8
 2263              	.LCFI38:
 2264              		.cfi_def_cfa_offset 24
 2265 0004 0546     		mov	r5, r0
 2266 0006 0C46     		mov	r4, r1
 2267 0008 1646     		mov	r6, r2
 773:./.ccls_cache/home/carver/Documents/stm32_with_linux/medical/Libraries/src/max30102.c ****   maxim_remove_close_peaks(pn_locs, pn_npks, pn_x, n_min_distance);
 2268              		.loc 1 773 3 is_stmt 1 view .LVU604
 2269 000a DDF818C0 		ldr	ip, [sp, #24]
 2270 000e CDF800C0 		str	ip, [sp]
 2271 0012 FFF7FEFF 		bl	maxim_peaks_above_min_height
 2272              	.LVL268:
 774:./.ccls_cache/home/carver/Documents/stm32_with_linux/medical/Libraries/src/max30102.c ****   *pn_npks = min(*pn_npks, n_max_num);
 2273              		.loc 1 774 3 view .LVU605
 2274 0016 079B     		ldr	r3, [sp, #28]
 2275 0018 3246     		mov	r2, r6
 2276 001a 2146     		mov	r1, r4
 2277 001c 2846     		mov	r0, r5
 2278 001e FFF7FEFF 		bl	maxim_remove_close_peaks
 2279              	.LVL269:
 775:./.ccls_cache/home/carver/Documents/stm32_with_linux/medical/Libraries/src/max30102.c **** }
 2280              		.loc 1 775 3 view .LVU606
 775:./.ccls_cache/home/carver/Documents/stm32_with_linux/medical/Libraries/src/max30102.c **** }
 2281              		.loc 1 775 14 is_stmt 0 view .LVU607
 2282 0022 2368     		ldr	r3, [r4]
 2283 0024 089A     		ldr	r2, [sp, #32]
 2284 0026 9342     		cmp	r3, r2
 2285 0028 A8BF     		it	ge
 2286 002a 1346     		movge	r3, r2
 775:./.ccls_cache/home/carver/Documents/stm32_with_linux/medical/Libraries/src/max30102.c **** }
 2287              		.loc 1 775 12 view .LVU608
 2288 002c 2360     		str	r3, [r4]
