ARM GAS  /tmp/cck3xhcJ.s 			page 1


   1              		.cpu cortex-m3
   2              		.arch armv7-m
   3              		.fpu softvfp
   4              		.eabi_attribute 20, 1
   5              		.eabi_attribute 21, 1
   6              		.eabi_attribute 23, 3
   7              		.eabi_attribute 24, 1
   8              		.eabi_attribute 25, 1
   9              		.eabi_attribute 26, 1
  10              		.eabi_attribute 30, 1
  11              		.eabi_attribute 34, 1
  12              		.eabi_attribute 18, 4
  13              		.file	"stm32f10x_i2c.c"
  14              		.text
  15              	.Ltext0:
  16              		.cfi_sections	.debug_frame
  17              		.file 1 "./Drivers/src/stm32f10x_i2c.c"
  18              		.section	.text.I2C_DeInit,"ax",%progbits
  19              		.align	1
  20              		.global	I2C_DeInit
  21              		.syntax unified
  22              		.thumb
  23              		.thumb_func
  25              	I2C_DeInit:
  26              	.LVL0:
  27              	.LFB29:
   1:./Drivers/src/stm32f10x_i2c.c **** /**
   2:./Drivers/src/stm32f10x_i2c.c ****   ******************************************************************************
   3:./Drivers/src/stm32f10x_i2c.c ****   * @file    stm32f10x_i2c.c
   4:./Drivers/src/stm32f10x_i2c.c ****   * @author  MCD Application Team
   5:./Drivers/src/stm32f10x_i2c.c ****   * @version V3.6.2
   6:./Drivers/src/stm32f10x_i2c.c ****   * @date    17-September-2021
   7:./Drivers/src/stm32f10x_i2c.c ****   * @brief   This file provides all the I2C firmware functions.
   8:./Drivers/src/stm32f10x_i2c.c ****   ******************************************************************************
   9:./Drivers/src/stm32f10x_i2c.c ****   * @attention
  10:./Drivers/src/stm32f10x_i2c.c ****   *
  11:./Drivers/src/stm32f10x_i2c.c ****   * Copyright (c) 2012 STMicroelectronics.
  12:./Drivers/src/stm32f10x_i2c.c ****   * All rights reserved.
  13:./Drivers/src/stm32f10x_i2c.c ****   *
  14:./Drivers/src/stm32f10x_i2c.c ****   * This software is licensed under terms that can be found in the LICENSE file
  15:./Drivers/src/stm32f10x_i2c.c ****   * in the root directory of this software component.
  16:./Drivers/src/stm32f10x_i2c.c ****   * If no LICENSE file comes with this software, it is provided AS-IS.
  17:./Drivers/src/stm32f10x_i2c.c ****   *
  18:./Drivers/src/stm32f10x_i2c.c ****   ******************************************************************************
  19:./Drivers/src/stm32f10x_i2c.c ****   */
  20:./Drivers/src/stm32f10x_i2c.c **** 
  21:./Drivers/src/stm32f10x_i2c.c **** /* Includes ------------------------------------------------------------------*/
  22:./Drivers/src/stm32f10x_i2c.c **** #include "stm32f10x_i2c.h"
  23:./Drivers/src/stm32f10x_i2c.c **** #include "stm32f10x_rcc.h"
  24:./Drivers/src/stm32f10x_i2c.c **** 
  25:./Drivers/src/stm32f10x_i2c.c **** 
  26:./Drivers/src/stm32f10x_i2c.c **** /** @addtogroup STM32F10x_StdPeriph_Driver
  27:./Drivers/src/stm32f10x_i2c.c ****   * @{
  28:./Drivers/src/stm32f10x_i2c.c ****   */
  29:./Drivers/src/stm32f10x_i2c.c **** 
  30:./Drivers/src/stm32f10x_i2c.c **** /** @defgroup I2C 
  31:./Drivers/src/stm32f10x_i2c.c ****   * @brief I2C driver modules
ARM GAS  /tmp/cck3xhcJ.s 			page 2


  32:./Drivers/src/stm32f10x_i2c.c ****   * @{
  33:./Drivers/src/stm32f10x_i2c.c ****   */ 
  34:./Drivers/src/stm32f10x_i2c.c **** 
  35:./Drivers/src/stm32f10x_i2c.c **** /** @defgroup I2C_Private_TypesDefinitions
  36:./Drivers/src/stm32f10x_i2c.c ****   * @{
  37:./Drivers/src/stm32f10x_i2c.c ****   */
  38:./Drivers/src/stm32f10x_i2c.c **** 
  39:./Drivers/src/stm32f10x_i2c.c **** /**
  40:./Drivers/src/stm32f10x_i2c.c ****   * @}
  41:./Drivers/src/stm32f10x_i2c.c ****   */
  42:./Drivers/src/stm32f10x_i2c.c **** 
  43:./Drivers/src/stm32f10x_i2c.c **** /** @defgroup I2C_Private_Defines
  44:./Drivers/src/stm32f10x_i2c.c ****   * @{
  45:./Drivers/src/stm32f10x_i2c.c ****   */
  46:./Drivers/src/stm32f10x_i2c.c **** 
  47:./Drivers/src/stm32f10x_i2c.c **** /* I2C SPE mask */
  48:./Drivers/src/stm32f10x_i2c.c **** #define CR1_PE_Set              ((uint16_t)0x0001)
  49:./Drivers/src/stm32f10x_i2c.c **** #define CR1_PE_Reset            ((uint16_t)0xFFFE)
  50:./Drivers/src/stm32f10x_i2c.c **** 
  51:./Drivers/src/stm32f10x_i2c.c **** /* I2C START mask */
  52:./Drivers/src/stm32f10x_i2c.c **** #define CR1_START_Set           ((uint16_t)0x0100)
  53:./Drivers/src/stm32f10x_i2c.c **** #define CR1_START_Reset         ((uint16_t)0xFEFF)
  54:./Drivers/src/stm32f10x_i2c.c **** 
  55:./Drivers/src/stm32f10x_i2c.c **** /* I2C STOP mask */
  56:./Drivers/src/stm32f10x_i2c.c **** #define CR1_STOP_Set            ((uint16_t)0x0200)
  57:./Drivers/src/stm32f10x_i2c.c **** #define CR1_STOP_Reset          ((uint16_t)0xFDFF)
  58:./Drivers/src/stm32f10x_i2c.c **** 
  59:./Drivers/src/stm32f10x_i2c.c **** /* I2C ACK mask */
  60:./Drivers/src/stm32f10x_i2c.c **** #define CR1_ACK_Set             ((uint16_t)0x0400)
  61:./Drivers/src/stm32f10x_i2c.c **** #define CR1_ACK_Reset           ((uint16_t)0xFBFF)
  62:./Drivers/src/stm32f10x_i2c.c **** 
  63:./Drivers/src/stm32f10x_i2c.c **** /* I2C ENGC mask */
  64:./Drivers/src/stm32f10x_i2c.c **** #define CR1_ENGC_Set            ((uint16_t)0x0040)
  65:./Drivers/src/stm32f10x_i2c.c **** #define CR1_ENGC_Reset          ((uint16_t)0xFFBF)
  66:./Drivers/src/stm32f10x_i2c.c **** 
  67:./Drivers/src/stm32f10x_i2c.c **** /* I2C SWRST mask */
  68:./Drivers/src/stm32f10x_i2c.c **** #define CR1_SWRST_Set           ((uint16_t)0x8000)
  69:./Drivers/src/stm32f10x_i2c.c **** #define CR1_SWRST_Reset         ((uint16_t)0x7FFF)
  70:./Drivers/src/stm32f10x_i2c.c **** 
  71:./Drivers/src/stm32f10x_i2c.c **** /* I2C PEC mask */
  72:./Drivers/src/stm32f10x_i2c.c **** #define CR1_PEC_Set             ((uint16_t)0x1000)
  73:./Drivers/src/stm32f10x_i2c.c **** #define CR1_PEC_Reset           ((uint16_t)0xEFFF)
  74:./Drivers/src/stm32f10x_i2c.c **** 
  75:./Drivers/src/stm32f10x_i2c.c **** /* I2C ENPEC mask */
  76:./Drivers/src/stm32f10x_i2c.c **** #define CR1_ENPEC_Set           ((uint16_t)0x0020)
  77:./Drivers/src/stm32f10x_i2c.c **** #define CR1_ENPEC_Reset         ((uint16_t)0xFFDF)
  78:./Drivers/src/stm32f10x_i2c.c **** 
  79:./Drivers/src/stm32f10x_i2c.c **** /* I2C ENARP mask */
  80:./Drivers/src/stm32f10x_i2c.c **** #define CR1_ENARP_Set           ((uint16_t)0x0010)
  81:./Drivers/src/stm32f10x_i2c.c **** #define CR1_ENARP_Reset         ((uint16_t)0xFFEF)
  82:./Drivers/src/stm32f10x_i2c.c **** 
  83:./Drivers/src/stm32f10x_i2c.c **** /* I2C NOSTRETCH mask */
  84:./Drivers/src/stm32f10x_i2c.c **** #define CR1_NOSTRETCH_Set       ((uint16_t)0x0080)
  85:./Drivers/src/stm32f10x_i2c.c **** #define CR1_NOSTRETCH_Reset     ((uint16_t)0xFF7F)
  86:./Drivers/src/stm32f10x_i2c.c **** 
  87:./Drivers/src/stm32f10x_i2c.c **** /* I2C registers Masks */
  88:./Drivers/src/stm32f10x_i2c.c **** #define CR1_CLEAR_Mask          ((uint16_t)0xFBF5)
ARM GAS  /tmp/cck3xhcJ.s 			page 3


  89:./Drivers/src/stm32f10x_i2c.c **** 
  90:./Drivers/src/stm32f10x_i2c.c **** /* I2C DMAEN mask */
  91:./Drivers/src/stm32f10x_i2c.c **** #define CR2_DMAEN_Set           ((uint16_t)0x0800)
  92:./Drivers/src/stm32f10x_i2c.c **** #define CR2_DMAEN_Reset         ((uint16_t)0xF7FF)
  93:./Drivers/src/stm32f10x_i2c.c **** 
  94:./Drivers/src/stm32f10x_i2c.c **** /* I2C LAST mask */
  95:./Drivers/src/stm32f10x_i2c.c **** #define CR2_LAST_Set            ((uint16_t)0x1000)
  96:./Drivers/src/stm32f10x_i2c.c **** #define CR2_LAST_Reset          ((uint16_t)0xEFFF)
  97:./Drivers/src/stm32f10x_i2c.c **** 
  98:./Drivers/src/stm32f10x_i2c.c **** /* I2C FREQ mask */
  99:./Drivers/src/stm32f10x_i2c.c **** #define CR2_FREQ_Reset          ((uint16_t)0xFFC0)
 100:./Drivers/src/stm32f10x_i2c.c **** 
 101:./Drivers/src/stm32f10x_i2c.c **** /* I2C ADD0 mask */
 102:./Drivers/src/stm32f10x_i2c.c **** #define OAR1_ADD0_Set           ((uint16_t)0x0001)
 103:./Drivers/src/stm32f10x_i2c.c **** #define OAR1_ADD0_Reset         ((uint16_t)0xFFFE)
 104:./Drivers/src/stm32f10x_i2c.c **** 
 105:./Drivers/src/stm32f10x_i2c.c **** /* I2C ENDUAL mask */
 106:./Drivers/src/stm32f10x_i2c.c **** #define OAR2_ENDUAL_Set         ((uint16_t)0x0001)
 107:./Drivers/src/stm32f10x_i2c.c **** #define OAR2_ENDUAL_Reset       ((uint16_t)0xFFFE)
 108:./Drivers/src/stm32f10x_i2c.c **** 
 109:./Drivers/src/stm32f10x_i2c.c **** /* I2C ADD2 mask */
 110:./Drivers/src/stm32f10x_i2c.c **** #define OAR2_ADD2_Reset         ((uint16_t)0xFF01)
 111:./Drivers/src/stm32f10x_i2c.c **** 
 112:./Drivers/src/stm32f10x_i2c.c **** /* I2C F/S mask */
 113:./Drivers/src/stm32f10x_i2c.c **** #define CCR_FS_Set              ((uint16_t)0x8000)
 114:./Drivers/src/stm32f10x_i2c.c **** 
 115:./Drivers/src/stm32f10x_i2c.c **** /* I2C CCR mask */
 116:./Drivers/src/stm32f10x_i2c.c **** #define CCR_CCR_Set             ((uint16_t)0x0FFF)
 117:./Drivers/src/stm32f10x_i2c.c **** 
 118:./Drivers/src/stm32f10x_i2c.c **** /* I2C FLAG mask */
 119:./Drivers/src/stm32f10x_i2c.c **** #define FLAG_Mask               ((uint32_t)0x00FFFFFF)
 120:./Drivers/src/stm32f10x_i2c.c **** 
 121:./Drivers/src/stm32f10x_i2c.c **** /* I2C Interrupt Enable mask */
 122:./Drivers/src/stm32f10x_i2c.c **** #define ITEN_Mask               ((uint32_t)0x07000000)
 123:./Drivers/src/stm32f10x_i2c.c **** 
 124:./Drivers/src/stm32f10x_i2c.c **** /**
 125:./Drivers/src/stm32f10x_i2c.c ****   * @}
 126:./Drivers/src/stm32f10x_i2c.c ****   */
 127:./Drivers/src/stm32f10x_i2c.c **** 
 128:./Drivers/src/stm32f10x_i2c.c **** /** @defgroup I2C_Private_Macros
 129:./Drivers/src/stm32f10x_i2c.c ****   * @{
 130:./Drivers/src/stm32f10x_i2c.c ****   */
 131:./Drivers/src/stm32f10x_i2c.c **** 
 132:./Drivers/src/stm32f10x_i2c.c **** /**
 133:./Drivers/src/stm32f10x_i2c.c ****   * @}
 134:./Drivers/src/stm32f10x_i2c.c ****   */
 135:./Drivers/src/stm32f10x_i2c.c **** 
 136:./Drivers/src/stm32f10x_i2c.c **** /** @defgroup I2C_Private_Variables
 137:./Drivers/src/stm32f10x_i2c.c ****   * @{
 138:./Drivers/src/stm32f10x_i2c.c ****   */
 139:./Drivers/src/stm32f10x_i2c.c **** 
 140:./Drivers/src/stm32f10x_i2c.c **** /**
 141:./Drivers/src/stm32f10x_i2c.c ****   * @}
 142:./Drivers/src/stm32f10x_i2c.c ****   */
 143:./Drivers/src/stm32f10x_i2c.c **** 
 144:./Drivers/src/stm32f10x_i2c.c **** /** @defgroup I2C_Private_FunctionPrototypes
 145:./Drivers/src/stm32f10x_i2c.c ****   * @{
ARM GAS  /tmp/cck3xhcJ.s 			page 4


 146:./Drivers/src/stm32f10x_i2c.c ****   */
 147:./Drivers/src/stm32f10x_i2c.c **** 
 148:./Drivers/src/stm32f10x_i2c.c **** /**
 149:./Drivers/src/stm32f10x_i2c.c ****   * @}
 150:./Drivers/src/stm32f10x_i2c.c ****   */
 151:./Drivers/src/stm32f10x_i2c.c **** 
 152:./Drivers/src/stm32f10x_i2c.c **** /** @defgroup I2C_Private_Functions
 153:./Drivers/src/stm32f10x_i2c.c ****   * @{
 154:./Drivers/src/stm32f10x_i2c.c ****   */
 155:./Drivers/src/stm32f10x_i2c.c **** 
 156:./Drivers/src/stm32f10x_i2c.c **** /**
 157:./Drivers/src/stm32f10x_i2c.c ****   * @brief  Deinitializes the I2Cx peripheral registers to their default reset values.
 158:./Drivers/src/stm32f10x_i2c.c ****   * @param  I2Cx: where x can be 1 or 2 to select the I2C peripheral.
 159:./Drivers/src/stm32f10x_i2c.c ****   * @retval None
 160:./Drivers/src/stm32f10x_i2c.c ****   */
 161:./Drivers/src/stm32f10x_i2c.c **** void I2C_DeInit(I2C_TypeDef* I2Cx)
 162:./Drivers/src/stm32f10x_i2c.c **** {
  28              		.loc 1 162 1 view -0
  29              		.cfi_startproc
  30              		@ args = 0, pretend = 0, frame = 0
  31              		@ frame_needed = 0, uses_anonymous_args = 0
  32              		.loc 1 162 1 is_stmt 0 view .LVU1
  33 0000 08B5     		push	{r3, lr}
  34              	.LCFI0:
  35              		.cfi_def_cfa_offset 8
  36              		.cfi_offset 3, -8
  37              		.cfi_offset 14, -4
 163:./Drivers/src/stm32f10x_i2c.c ****   /* Check the parameters */
 164:./Drivers/src/stm32f10x_i2c.c ****   assert_param(IS_I2C_ALL_PERIPH(I2Cx));
  38              		.loc 1 164 3 is_stmt 1 view .LVU2
 165:./Drivers/src/stm32f10x_i2c.c **** 
 166:./Drivers/src/stm32f10x_i2c.c ****   if (I2Cx == I2C1)
  39              		.loc 1 166 3 view .LVU3
  40              		.loc 1 166 6 is_stmt 0 view .LVU4
  41 0002 0C4B     		ldr	r3, .L6
  42 0004 9842     		cmp	r0, r3
  43 0006 0AD0     		beq	.L5
 167:./Drivers/src/stm32f10x_i2c.c ****   {
 168:./Drivers/src/stm32f10x_i2c.c ****     /* Enable I2C1 reset state */
 169:./Drivers/src/stm32f10x_i2c.c ****     RCC_APB1PeriphResetCmd(RCC_APB1Periph_I2C1, ENABLE);
 170:./Drivers/src/stm32f10x_i2c.c ****     /* Release I2C1 from reset state */
 171:./Drivers/src/stm32f10x_i2c.c ****     RCC_APB1PeriphResetCmd(RCC_APB1Periph_I2C1, DISABLE);
 172:./Drivers/src/stm32f10x_i2c.c ****   }
 173:./Drivers/src/stm32f10x_i2c.c ****   else
 174:./Drivers/src/stm32f10x_i2c.c ****   {
 175:./Drivers/src/stm32f10x_i2c.c ****     /* Enable I2C2 reset state */
 176:./Drivers/src/stm32f10x_i2c.c ****     RCC_APB1PeriphResetCmd(RCC_APB1Periph_I2C2, ENABLE);
  44              		.loc 1 176 5 is_stmt 1 view .LVU5
  45 0008 0121     		movs	r1, #1
  46 000a 4FF48000 		mov	r0, #4194304
  47              	.LVL1:
  48              		.loc 1 176 5 is_stmt 0 view .LVU6
  49 000e FFF7FEFF 		bl	RCC_APB1PeriphResetCmd
  50              	.LVL2:
 177:./Drivers/src/stm32f10x_i2c.c ****     /* Release I2C2 from reset state */
 178:./Drivers/src/stm32f10x_i2c.c ****     RCC_APB1PeriphResetCmd(RCC_APB1Periph_I2C2, DISABLE);
  51              		.loc 1 178 5 is_stmt 1 view .LVU7
ARM GAS  /tmp/cck3xhcJ.s 			page 5


  52 0012 0021     		movs	r1, #0
  53 0014 4FF48000 		mov	r0, #4194304
  54 0018 FFF7FEFF 		bl	RCC_APB1PeriphResetCmd
  55              	.LVL3:
  56              	.L1:
 179:./Drivers/src/stm32f10x_i2c.c ****   }
 180:./Drivers/src/stm32f10x_i2c.c **** }
  57              		.loc 1 180 1 is_stmt 0 view .LVU8
  58 001c 08BD     		pop	{r3, pc}
  59              	.LVL4:
  60              	.L5:
 169:./Drivers/src/stm32f10x_i2c.c ****     /* Release I2C1 from reset state */
  61              		.loc 1 169 5 is_stmt 1 view .LVU9
  62 001e 0121     		movs	r1, #1
  63 0020 4FF40010 		mov	r0, #2097152
  64              	.LVL5:
 169:./Drivers/src/stm32f10x_i2c.c ****     /* Release I2C1 from reset state */
  65              		.loc 1 169 5 is_stmt 0 view .LVU10
  66 0024 FFF7FEFF 		bl	RCC_APB1PeriphResetCmd
  67              	.LVL6:
 171:./Drivers/src/stm32f10x_i2c.c ****   }
  68              		.loc 1 171 5 is_stmt 1 view .LVU11
  69 0028 0021     		movs	r1, #0
  70 002a 4FF40010 		mov	r0, #2097152
  71 002e FFF7FEFF 		bl	RCC_APB1PeriphResetCmd
  72              	.LVL7:
  73 0032 F3E7     		b	.L1
  74              	.L7:
  75              		.align	2
  76              	.L6:
  77 0034 00540040 		.word	1073763328
  78              		.cfi_endproc
  79              	.LFE29:
  81              		.section	.text.I2C_Init,"ax",%progbits
  82              		.align	1
  83              		.global	I2C_Init
  84              		.syntax unified
  85              		.thumb
  86              		.thumb_func
  88              	I2C_Init:
  89              	.LVL8:
  90              	.LFB30:
 181:./Drivers/src/stm32f10x_i2c.c **** 
 182:./Drivers/src/stm32f10x_i2c.c **** /**
 183:./Drivers/src/stm32f10x_i2c.c ****   * @brief  Initializes the I2Cx peripheral according to the specified 
 184:./Drivers/src/stm32f10x_i2c.c ****   *   parameters in the I2C_InitStruct.
 185:./Drivers/src/stm32f10x_i2c.c ****   * @param  I2Cx: where x can be 1 or 2 to select the I2C peripheral.
 186:./Drivers/src/stm32f10x_i2c.c ****   * @param  I2C_InitStruct: pointer to a I2C_InitTypeDef structure that
 187:./Drivers/src/stm32f10x_i2c.c ****   *   contains the configuration information for the specified I2C peripheral.
 188:./Drivers/src/stm32f10x_i2c.c ****   * @retval None
 189:./Drivers/src/stm32f10x_i2c.c ****   */
 190:./Drivers/src/stm32f10x_i2c.c **** void I2C_Init(I2C_TypeDef* I2Cx, I2C_InitTypeDef* I2C_InitStruct)
 191:./Drivers/src/stm32f10x_i2c.c **** {
  91              		.loc 1 191 1 view -0
  92              		.cfi_startproc
  93              		@ args = 0, pretend = 0, frame = 24
  94              		@ frame_needed = 0, uses_anonymous_args = 0
ARM GAS  /tmp/cck3xhcJ.s 			page 6


  95              		.loc 1 191 1 is_stmt 0 view .LVU13
  96 0000 70B5     		push	{r4, r5, r6, lr}
  97              	.LCFI1:
  98              		.cfi_def_cfa_offset 16
  99              		.cfi_offset 4, -16
 100              		.cfi_offset 5, -12
 101              		.cfi_offset 6, -8
 102              		.cfi_offset 14, -4
 103 0002 86B0     		sub	sp, sp, #24
 104              	.LCFI2:
 105              		.cfi_def_cfa_offset 40
 106 0004 0446     		mov	r4, r0
 107 0006 0D46     		mov	r5, r1
 192:./Drivers/src/stm32f10x_i2c.c ****   uint16_t tmpreg = 0, freqrange = 0;
 108              		.loc 1 192 3 is_stmt 1 view .LVU14
 109              	.LVL9:
 193:./Drivers/src/stm32f10x_i2c.c ****   uint16_t result = 0x04;
 110              		.loc 1 193 3 view .LVU15
 194:./Drivers/src/stm32f10x_i2c.c ****   uint32_t pclk1 = 8000000;
 111              		.loc 1 194 3 view .LVU16
 195:./Drivers/src/stm32f10x_i2c.c ****   RCC_ClocksTypeDef  rcc_clocks;
 112              		.loc 1 195 3 view .LVU17
 196:./Drivers/src/stm32f10x_i2c.c ****   /* Check the parameters */
 197:./Drivers/src/stm32f10x_i2c.c ****   assert_param(IS_I2C_ALL_PERIPH(I2Cx));
 113              		.loc 1 197 3 view .LVU18
 198:./Drivers/src/stm32f10x_i2c.c ****   assert_param(IS_I2C_CLOCK_SPEED(I2C_InitStruct->I2C_ClockSpeed));
 114              		.loc 1 198 3 view .LVU19
 199:./Drivers/src/stm32f10x_i2c.c ****   assert_param(IS_I2C_MODE(I2C_InitStruct->I2C_Mode));
 115              		.loc 1 199 3 view .LVU20
 200:./Drivers/src/stm32f10x_i2c.c ****   assert_param(IS_I2C_DUTY_CYCLE(I2C_InitStruct->I2C_DutyCycle));
 116              		.loc 1 200 3 view .LVU21
 201:./Drivers/src/stm32f10x_i2c.c ****   assert_param(IS_I2C_OWN_ADDRESS1(I2C_InitStruct->I2C_OwnAddress1));
 117              		.loc 1 201 3 view .LVU22
 202:./Drivers/src/stm32f10x_i2c.c ****   assert_param(IS_I2C_ACK_STATE(I2C_InitStruct->I2C_Ack));
 118              		.loc 1 202 3 view .LVU23
 203:./Drivers/src/stm32f10x_i2c.c ****   assert_param(IS_I2C_ACKNOWLEDGE_ADDRESS(I2C_InitStruct->I2C_AcknowledgedAddress));
 119              		.loc 1 203 3 view .LVU24
 204:./Drivers/src/stm32f10x_i2c.c **** 
 205:./Drivers/src/stm32f10x_i2c.c **** /*---------------------------- I2Cx CR2 Configuration ------------------------*/
 206:./Drivers/src/stm32f10x_i2c.c ****   /* Get the I2Cx CR2 value */
 207:./Drivers/src/stm32f10x_i2c.c ****   tmpreg = I2Cx->CR2;
 120              		.loc 1 207 3 view .LVU25
 121              		.loc 1 207 10 is_stmt 0 view .LVU26
 122 0008 8688     		ldrh	r6, [r0, #4]
 123 000a B6B2     		uxth	r6, r6
 124              	.LVL10:
 208:./Drivers/src/stm32f10x_i2c.c ****   /* Clear frequency FREQ[5:0] bits */
 209:./Drivers/src/stm32f10x_i2c.c ****   tmpreg &= CR2_FREQ_Reset;
 125              		.loc 1 209 3 is_stmt 1 view .LVU27
 126              		.loc 1 209 10 is_stmt 0 view .LVU28
 127 000c 26F03F06 		bic	r6, r6, #63
 128              	.LVL11:
 129              		.loc 1 209 10 view .LVU29
 130 0010 B6B2     		uxth	r6, r6
 131              	.LVL12:
 210:./Drivers/src/stm32f10x_i2c.c ****   /* Get pclk1 frequency value */
 211:./Drivers/src/stm32f10x_i2c.c ****   RCC_GetClocksFreq(&rcc_clocks);
ARM GAS  /tmp/cck3xhcJ.s 			page 7


 132              		.loc 1 211 3 is_stmt 1 view .LVU30
 133 0012 01A8     		add	r0, sp, #4
 134              	.LVL13:
 135              		.loc 1 211 3 is_stmt 0 view .LVU31
 136 0014 FFF7FEFF 		bl	RCC_GetClocksFreq
 137              	.LVL14:
 212:./Drivers/src/stm32f10x_i2c.c ****   pclk1 = rcc_clocks.PCLK1_Frequency;
 138              		.loc 1 212 3 is_stmt 1 view .LVU32
 139              		.loc 1 212 9 is_stmt 0 view .LVU33
 140 0018 0399     		ldr	r1, [sp, #12]
 141              	.LVL15:
 213:./Drivers/src/stm32f10x_i2c.c ****   /* Set frequency bits depending on pclk1 value */
 214:./Drivers/src/stm32f10x_i2c.c ****   freqrange = (uint16_t)(pclk1 / 1000000);
 142              		.loc 1 214 3 is_stmt 1 view .LVU34
 143              		.loc 1 214 32 is_stmt 0 view .LVU35
 144 001a 2C4B     		ldr	r3, .L18
 145 001c A3FB0123 		umull	r2, r3, r3, r1
 146 0020 9A0C     		lsrs	r2, r3, #18
 147              	.LVL16:
 215:./Drivers/src/stm32f10x_i2c.c ****   tmpreg |= freqrange;
 148              		.loc 1 215 3 is_stmt 1 view .LVU36
 149              		.loc 1 215 10 is_stmt 0 view .LVU37
 150 0022 46EA9346 		orr	r6, r6, r3, lsr #18
 151              	.LVL17:
 216:./Drivers/src/stm32f10x_i2c.c ****   /* Write to I2Cx CR2 */
 217:./Drivers/src/stm32f10x_i2c.c ****   I2Cx->CR2 = tmpreg;
 152              		.loc 1 217 3 is_stmt 1 view .LVU38
 153              		.loc 1 217 13 is_stmt 0 view .LVU39
 154 0026 A680     		strh	r6, [r4, #4]	@ movhi
 218:./Drivers/src/stm32f10x_i2c.c **** 
 219:./Drivers/src/stm32f10x_i2c.c **** /*---------------------------- I2Cx CCR Configuration ------------------------*/
 220:./Drivers/src/stm32f10x_i2c.c ****   /* Disable the selected I2C peripheral to configure TRISE */
 221:./Drivers/src/stm32f10x_i2c.c ****   I2Cx->CR1 &= CR1_PE_Reset;
 155              		.loc 1 221 3 is_stmt 1 view .LVU40
 156              		.loc 1 221 7 is_stmt 0 view .LVU41
 157 0028 2388     		ldrh	r3, [r4]
 158 002a 9BB2     		uxth	r3, r3
 159              		.loc 1 221 13 view .LVU42
 160 002c 23F00103 		bic	r3, r3, #1
 161 0030 9BB2     		uxth	r3, r3
 162 0032 2380     		strh	r3, [r4]	@ movhi
 222:./Drivers/src/stm32f10x_i2c.c ****   /* Reset tmpreg value */
 223:./Drivers/src/stm32f10x_i2c.c ****   /* Clear F/S, DUTY and CCR[11:0] bits */
 224:./Drivers/src/stm32f10x_i2c.c ****   tmpreg = 0;
 163              		.loc 1 224 3 is_stmt 1 view .LVU43
 164              	.LVL18:
 225:./Drivers/src/stm32f10x_i2c.c **** 
 226:./Drivers/src/stm32f10x_i2c.c ****   /* Configure speed in standard mode */
 227:./Drivers/src/stm32f10x_i2c.c ****   if (I2C_InitStruct->I2C_ClockSpeed <= 100000)
 165              		.loc 1 227 3 view .LVU44
 166              		.loc 1 227 21 is_stmt 0 view .LVU45
 167 0034 2B68     		ldr	r3, [r5]
 168              		.loc 1 227 6 view .LVU46
 169 0036 264E     		ldr	r6, .L18+4
 170 0038 B342     		cmp	r3, r6
 171 003a 20D8     		bhi	.L9
 172 003c 1046     		mov	r0, r2
ARM GAS  /tmp/cck3xhcJ.s 			page 8


 228:./Drivers/src/stm32f10x_i2c.c ****   {
 229:./Drivers/src/stm32f10x_i2c.c ****     /* Standard mode speed calculate */
 230:./Drivers/src/stm32f10x_i2c.c ****     result = (uint16_t)(pclk1 / (I2C_InitStruct->I2C_ClockSpeed << 1));
 173              		.loc 1 230 5 is_stmt 1 view .LVU47
 174              		.loc 1 230 65 is_stmt 0 view .LVU48
 175 003e 5B00     		lsls	r3, r3, #1
 176              		.loc 1 230 31 view .LVU49
 177 0040 B1FBF3F3 		udiv	r3, r1, r3
 178              		.loc 1 230 12 view .LVU50
 179 0044 9BB2     		uxth	r3, r3
 180              	.LVL19:
 231:./Drivers/src/stm32f10x_i2c.c ****     /* Test if CCR value is under 0x4*/
 232:./Drivers/src/stm32f10x_i2c.c ****     if (result < 0x04)
 181              		.loc 1 232 5 is_stmt 1 view .LVU51
 182              		.loc 1 232 8 is_stmt 0 view .LVU52
 183 0046 032B     		cmp	r3, #3
 184 0048 00D8     		bhi	.L10
 233:./Drivers/src/stm32f10x_i2c.c ****     {
 234:./Drivers/src/stm32f10x_i2c.c ****       /* Set minimum allowed value */
 235:./Drivers/src/stm32f10x_i2c.c ****       result = 0x04;  
 185              		.loc 1 235 14 view .LVU53
 186 004a 0423     		movs	r3, #4
 187              	.LVL20:
 188              	.L10:
 236:./Drivers/src/stm32f10x_i2c.c ****     }
 237:./Drivers/src/stm32f10x_i2c.c ****     /* Set speed value for standard mode */
 238:./Drivers/src/stm32f10x_i2c.c ****     tmpreg |= result;	  
 189              		.loc 1 238 5 is_stmt 1 view .LVU54
 239:./Drivers/src/stm32f10x_i2c.c ****     /* Set Maximum Rise Time for standard mode */
 240:./Drivers/src/stm32f10x_i2c.c ****     I2Cx->TRISE = freqrange + 1; 
 190              		.loc 1 240 5 view .LVU55
 191              		.loc 1 240 29 is_stmt 0 view .LVU56
 192 004c 0130     		adds	r0, r0, #1
 193              		.loc 1 240 17 view .LVU57
 194 004e 2084     		strh	r0, [r4, #32]	@ movhi
 195              	.LVL21:
 196              	.L11:
 241:./Drivers/src/stm32f10x_i2c.c ****   }
 242:./Drivers/src/stm32f10x_i2c.c ****   /* Configure speed in fast mode */
 243:./Drivers/src/stm32f10x_i2c.c ****   else /*(I2C_InitStruct->I2C_ClockSpeed <= 400000)*/
 244:./Drivers/src/stm32f10x_i2c.c ****   {
 245:./Drivers/src/stm32f10x_i2c.c ****     if (I2C_InitStruct->I2C_DutyCycle == I2C_DutyCycle_2)
 246:./Drivers/src/stm32f10x_i2c.c ****     {
 247:./Drivers/src/stm32f10x_i2c.c ****       /* Fast mode speed calculate: Tlow/Thigh = 2 */
 248:./Drivers/src/stm32f10x_i2c.c ****       result = (uint16_t)(pclk1 / (I2C_InitStruct->I2C_ClockSpeed * 3));
 249:./Drivers/src/stm32f10x_i2c.c ****     }
 250:./Drivers/src/stm32f10x_i2c.c ****     else /*I2C_InitStruct->I2C_DutyCycle == I2C_DutyCycle_16_9*/
 251:./Drivers/src/stm32f10x_i2c.c ****     {
 252:./Drivers/src/stm32f10x_i2c.c ****       /* Fast mode speed calculate: Tlow/Thigh = 16/9 */
 253:./Drivers/src/stm32f10x_i2c.c ****       result = (uint16_t)(pclk1 / (I2C_InitStruct->I2C_ClockSpeed * 25));
 254:./Drivers/src/stm32f10x_i2c.c ****       /* Set DUTY bit */
 255:./Drivers/src/stm32f10x_i2c.c ****       result |= I2C_DutyCycle_16_9;
 256:./Drivers/src/stm32f10x_i2c.c ****     }
 257:./Drivers/src/stm32f10x_i2c.c **** 
 258:./Drivers/src/stm32f10x_i2c.c ****     /* Test if CCR value is under 0x1*/
 259:./Drivers/src/stm32f10x_i2c.c ****     if ((result & CCR_CCR_Set) == 0)
 260:./Drivers/src/stm32f10x_i2c.c ****     {
ARM GAS  /tmp/cck3xhcJ.s 			page 9


 261:./Drivers/src/stm32f10x_i2c.c ****       /* Set minimum allowed value */
 262:./Drivers/src/stm32f10x_i2c.c ****       result |= (uint16_t)0x0001;  
 263:./Drivers/src/stm32f10x_i2c.c ****     }
 264:./Drivers/src/stm32f10x_i2c.c ****     /* Set speed value and set F/S bit for fast mode */
 265:./Drivers/src/stm32f10x_i2c.c ****     tmpreg |= (uint16_t)(result | CCR_FS_Set);
 266:./Drivers/src/stm32f10x_i2c.c ****     /* Set Maximum Rise Time for fast mode */
 267:./Drivers/src/stm32f10x_i2c.c ****     I2Cx->TRISE = (uint16_t)(((freqrange * (uint16_t)300) / (uint16_t)1000) + (uint16_t)1);  
 268:./Drivers/src/stm32f10x_i2c.c ****   }
 269:./Drivers/src/stm32f10x_i2c.c **** 
 270:./Drivers/src/stm32f10x_i2c.c ****   /* Write to I2Cx CCR */
 271:./Drivers/src/stm32f10x_i2c.c ****   I2Cx->CCR = tmpreg;
 197              		.loc 1 271 3 is_stmt 1 view .LVU58
 198              		.loc 1 271 13 is_stmt 0 view .LVU59
 199 0050 A383     		strh	r3, [r4, #28]	@ movhi
 272:./Drivers/src/stm32f10x_i2c.c ****   /* Enable the selected I2C peripheral */
 273:./Drivers/src/stm32f10x_i2c.c ****   I2Cx->CR1 |= CR1_PE_Set;
 200              		.loc 1 273 3 is_stmt 1 view .LVU60
 201              		.loc 1 273 7 is_stmt 0 view .LVU61
 202 0052 2388     		ldrh	r3, [r4]
 203              	.LVL22:
 204              		.loc 1 273 7 view .LVU62
 205 0054 9BB2     		uxth	r3, r3
 206              		.loc 1 273 13 view .LVU63
 207 0056 43F00103 		orr	r3, r3, #1
 208 005a 2380     		strh	r3, [r4]	@ movhi
 209              	.LVL23:
 274:./Drivers/src/stm32f10x_i2c.c **** 
 275:./Drivers/src/stm32f10x_i2c.c **** /*---------------------------- I2Cx CR1 Configuration ------------------------*/
 276:./Drivers/src/stm32f10x_i2c.c ****   /* Get the I2Cx CR1 value */
 277:./Drivers/src/stm32f10x_i2c.c ****   tmpreg = I2Cx->CR1;
 210              		.loc 1 277 3 is_stmt 1 view .LVU64
 211              		.loc 1 277 10 is_stmt 0 view .LVU65
 212 005c 2388     		ldrh	r3, [r4]
 213 005e 9BB2     		uxth	r3, r3
 214              	.LVL24:
 278:./Drivers/src/stm32f10x_i2c.c ****   /* Clear ACK, SMBTYPE and  SMBUS bits */
 279:./Drivers/src/stm32f10x_i2c.c ****   tmpreg &= CR1_CLEAR_Mask;
 215              		.loc 1 279 3 is_stmt 1 view .LVU66
 216              		.loc 1 279 10 is_stmt 0 view .LVU67
 217 0060 23F48163 		bic	r3, r3, #1032
 218              	.LVL25:
 219              		.loc 1 279 10 view .LVU68
 220 0064 23F00203 		bic	r3, r3, #2
 221              	.LVL26:
 280:./Drivers/src/stm32f10x_i2c.c ****   /* Configure I2Cx: mode and acknowledgement */
 281:./Drivers/src/stm32f10x_i2c.c ****   /* Set SMBTYPE and SMBUS bits according to I2C_Mode value */
 282:./Drivers/src/stm32f10x_i2c.c ****   /* Set ACK bit according to I2C_Ack value */
 283:./Drivers/src/stm32f10x_i2c.c ****   tmpreg |= (uint16_t)((uint32_t)I2C_InitStruct->I2C_Mode | I2C_InitStruct->I2C_Ack);
 222              		.loc 1 283 3 is_stmt 1 view .LVU69
 223              		.loc 1 283 48 is_stmt 0 view .LVU70
 224 0068 AA88     		ldrh	r2, [r5, #4]
 225              		.loc 1 283 75 view .LVU71
 226 006a 6989     		ldrh	r1, [r5, #10]
 227              		.loc 1 283 13 view .LVU72
 228 006c 0A43     		orrs	r2, r2, r1
 229              		.loc 1 283 10 view .LVU73
 230 006e 1343     		orrs	r3, r3, r2
ARM GAS  /tmp/cck3xhcJ.s 			page 10


 231              	.LVL27:
 284:./Drivers/src/stm32f10x_i2c.c ****   /* Write to I2Cx CR1 */
 285:./Drivers/src/stm32f10x_i2c.c ****   I2Cx->CR1 = tmpreg;
 232              		.loc 1 285 3 is_stmt 1 view .LVU74
 233              		.loc 1 285 13 is_stmt 0 view .LVU75
 234 0070 2380     		strh	r3, [r4]	@ movhi
 286:./Drivers/src/stm32f10x_i2c.c **** 
 287:./Drivers/src/stm32f10x_i2c.c **** /*---------------------------- I2Cx OAR1 Configuration -----------------------*/
 288:./Drivers/src/stm32f10x_i2c.c ****   /* Set I2Cx Own Address1 and acknowledged address */
 289:./Drivers/src/stm32f10x_i2c.c ****   I2Cx->OAR1 = (I2C_InitStruct->I2C_AcknowledgedAddress | I2C_InitStruct->I2C_OwnAddress1);
 235              		.loc 1 289 3 is_stmt 1 view .LVU76
 236              		.loc 1 289 31 is_stmt 0 view .LVU77
 237 0072 AB89     		ldrh	r3, [r5, #12]
 238              	.LVL28:
 239              		.loc 1 289 73 view .LVU78
 240 0074 2A89     		ldrh	r2, [r5, #8]
 241              		.loc 1 289 14 view .LVU79
 242 0076 1343     		orrs	r3, r3, r2
 243 0078 2381     		strh	r3, [r4, #8]	@ movhi
 244              	.LVL29:
 290:./Drivers/src/stm32f10x_i2c.c **** }
 245              		.loc 1 290 1 view .LVU80
 246 007a 06B0     		add	sp, sp, #24
 247              	.LCFI3:
 248              		.cfi_remember_state
 249              		.cfi_def_cfa_offset 16
 250              		@ sp needed
 251 007c 70BD     		pop	{r4, r5, r6, pc}
 252              	.LVL30:
 253              	.L9:
 254              	.LCFI4:
 255              		.cfi_restore_state
 245:./Drivers/src/stm32f10x_i2c.c ****     {
 256              		.loc 1 245 5 is_stmt 1 view .LVU81
 245:./Drivers/src/stm32f10x_i2c.c ****     {
 257              		.loc 1 245 23 is_stmt 0 view .LVU82
 258 007e EE88     		ldrh	r6, [r5, #6]
 245:./Drivers/src/stm32f10x_i2c.c ****     {
 259              		.loc 1 245 8 view .LVU83
 260 0080 4BF6FF70 		movw	r0, #49151
 261 0084 8642     		cmp	r6, r0
 262 0086 1BD0     		beq	.L17
 253:./Drivers/src/stm32f10x_i2c.c ****       /* Set DUTY bit */
 263              		.loc 1 253 7 is_stmt 1 view .LVU84
 253:./Drivers/src/stm32f10x_i2c.c ****       /* Set DUTY bit */
 264              		.loc 1 253 67 is_stmt 0 view .LVU85
 265 0088 03EB8303 		add	r3, r3, r3, lsl #2
 266 008c 03EB8303 		add	r3, r3, r3, lsl #2
 253:./Drivers/src/stm32f10x_i2c.c ****       /* Set DUTY bit */
 267              		.loc 1 253 33 view .LVU86
 268 0090 B1FBF3F1 		udiv	r1, r1, r3
 269              	.LVL31:
 253:./Drivers/src/stm32f10x_i2c.c ****       /* Set DUTY bit */
 270              		.loc 1 253 14 view .LVU87
 271 0094 89B2     		uxth	r1, r1
 272              	.LVL32:
 255:./Drivers/src/stm32f10x_i2c.c ****     }
ARM GAS  /tmp/cck3xhcJ.s 			page 11


 273              		.loc 1 255 7 is_stmt 1 view .LVU88
 255:./Drivers/src/stm32f10x_i2c.c ****     }
 274              		.loc 1 255 14 is_stmt 0 view .LVU89
 275 0096 41F48043 		orr	r3, r1, #16384
 276              	.LVL33:
 277              	.L13:
 259:./Drivers/src/stm32f10x_i2c.c ****     {
 278              		.loc 1 259 5 is_stmt 1 view .LVU90
 259:./Drivers/src/stm32f10x_i2c.c ****     {
 279              		.loc 1 259 8 is_stmt 0 view .LVU91
 280 009a C3F30B01 		ubfx	r1, r3, #0, #12
 281 009e 09B9     		cbnz	r1, .L14
 262:./Drivers/src/stm32f10x_i2c.c ****     }
 282              		.loc 1 262 7 is_stmt 1 view .LVU92
 262:./Drivers/src/stm32f10x_i2c.c ****     }
 283              		.loc 1 262 14 is_stmt 0 view .LVU93
 284 00a0 43F00103 		orr	r3, r3, #1
 285              	.LVL34:
 286              	.L14:
 265:./Drivers/src/stm32f10x_i2c.c ****     /* Set Maximum Rise Time for fast mode */
 287              		.loc 1 265 5 is_stmt 1 view .LVU94
 265:./Drivers/src/stm32f10x_i2c.c ****     /* Set Maximum Rise Time for fast mode */
 288              		.loc 1 265 12 is_stmt 0 view .LVU95
 289 00a4 43F40043 		orr	r3, r3, #32768
 290              	.LVL35:
 267:./Drivers/src/stm32f10x_i2c.c ****   }
 291              		.loc 1 267 5 is_stmt 1 view .LVU96
 267:./Drivers/src/stm32f10x_i2c.c ****   }
 292              		.loc 1 267 42 is_stmt 0 view .LVU97
 293 00a8 4FF49671 		mov	r1, #300
 294 00ac 01FB02F2 		mul	r2, r1, r2
 295              	.LVL36:
 267:./Drivers/src/stm32f10x_i2c.c ****   }
 296              		.loc 1 267 59 view .LVU98
 297 00b0 0849     		ldr	r1, .L18+8
 298 00b2 81FB0212 		smull	r1, r2, r1, r2
 299 00b6 9211     		asrs	r2, r2, #6
 267:./Drivers/src/stm32f10x_i2c.c ****   }
 300              		.loc 1 267 19 view .LVU99
 301 00b8 0132     		adds	r2, r2, #1
 302 00ba 92B2     		uxth	r2, r2
 267:./Drivers/src/stm32f10x_i2c.c ****   }
 303              		.loc 1 267 17 view .LVU100
 304 00bc 2284     		strh	r2, [r4, #32]	@ movhi
 305 00be C7E7     		b	.L11
 306              	.LVL37:
 307              	.L17:
 248:./Drivers/src/stm32f10x_i2c.c ****     }
 308              		.loc 1 248 7 is_stmt 1 view .LVU101
 248:./Drivers/src/stm32f10x_i2c.c ****     }
 309              		.loc 1 248 67 is_stmt 0 view .LVU102
 310 00c0 03EB4303 		add	r3, r3, r3, lsl #1
 248:./Drivers/src/stm32f10x_i2c.c ****     }
 311              		.loc 1 248 33 view .LVU103
 312 00c4 B1FBF3F3 		udiv	r3, r1, r3
 248:./Drivers/src/stm32f10x_i2c.c ****     }
 313              		.loc 1 248 14 view .LVU104
ARM GAS  /tmp/cck3xhcJ.s 			page 12


 314 00c8 9BB2     		uxth	r3, r3
 315              	.LVL38:
 248:./Drivers/src/stm32f10x_i2c.c ****     }
 316              		.loc 1 248 14 view .LVU105
 317 00ca E6E7     		b	.L13
 318              	.L19:
 319              		.align	2
 320              	.L18:
 321 00cc 83DE1B43 		.word	1125899907
 322 00d0 A0860100 		.word	100000
 323 00d4 D34D6210 		.word	274877907
 324              		.cfi_endproc
 325              	.LFE30:
 327              		.section	.text.I2C_StructInit,"ax",%progbits
 328              		.align	1
 329              		.global	I2C_StructInit
 330              		.syntax unified
 331              		.thumb
 332              		.thumb_func
 334              	I2C_StructInit:
 335              	.LVL39:
 336              	.LFB31:
 291:./Drivers/src/stm32f10x_i2c.c **** 
 292:./Drivers/src/stm32f10x_i2c.c **** /**
 293:./Drivers/src/stm32f10x_i2c.c ****   * @brief  Fills each I2C_InitStruct member with its default value.
 294:./Drivers/src/stm32f10x_i2c.c ****   * @param  I2C_InitStruct: pointer to an I2C_InitTypeDef structure which will be initialized.
 295:./Drivers/src/stm32f10x_i2c.c ****   * @retval None
 296:./Drivers/src/stm32f10x_i2c.c ****   */
 297:./Drivers/src/stm32f10x_i2c.c **** void I2C_StructInit(I2C_InitTypeDef* I2C_InitStruct)
 298:./Drivers/src/stm32f10x_i2c.c **** {
 337              		.loc 1 298 1 is_stmt 1 view -0
 338              		.cfi_startproc
 339              		@ args = 0, pretend = 0, frame = 0
 340              		@ frame_needed = 0, uses_anonymous_args = 0
 341              		@ link register save eliminated.
 299:./Drivers/src/stm32f10x_i2c.c **** /*---------------- Reset I2C init structure parameters values ----------------*/
 300:./Drivers/src/stm32f10x_i2c.c ****   /* initialize the I2C_ClockSpeed member */
 301:./Drivers/src/stm32f10x_i2c.c ****   I2C_InitStruct->I2C_ClockSpeed = 5000;
 342              		.loc 1 301 3 view .LVU107
 343              		.loc 1 301 34 is_stmt 0 view .LVU108
 344 0000 41F28833 		movw	r3, #5000
 345 0004 0360     		str	r3, [r0]
 302:./Drivers/src/stm32f10x_i2c.c ****   /* Initialize the I2C_Mode member */
 303:./Drivers/src/stm32f10x_i2c.c ****   I2C_InitStruct->I2C_Mode = I2C_Mode_I2C;
 346              		.loc 1 303 3 is_stmt 1 view .LVU109
 347              		.loc 1 303 28 is_stmt 0 view .LVU110
 348 0006 0023     		movs	r3, #0
 349 0008 8380     		strh	r3, [r0, #4]	@ movhi
 304:./Drivers/src/stm32f10x_i2c.c ****   /* Initialize the I2C_DutyCycle member */
 305:./Drivers/src/stm32f10x_i2c.c ****   I2C_InitStruct->I2C_DutyCycle = I2C_DutyCycle_2;
 350              		.loc 1 305 3 is_stmt 1 view .LVU111
 351              		.loc 1 305 33 is_stmt 0 view .LVU112
 352 000a 4BF6FF72 		movw	r2, #49151
 353 000e C280     		strh	r2, [r0, #6]	@ movhi
 306:./Drivers/src/stm32f10x_i2c.c ****   /* Initialize the I2C_OwnAddress1 member */
 307:./Drivers/src/stm32f10x_i2c.c ****   I2C_InitStruct->I2C_OwnAddress1 = 0;
 354              		.loc 1 307 3 is_stmt 1 view .LVU113
ARM GAS  /tmp/cck3xhcJ.s 			page 13


 355              		.loc 1 307 35 is_stmt 0 view .LVU114
 356 0010 0381     		strh	r3, [r0, #8]	@ movhi
 308:./Drivers/src/stm32f10x_i2c.c ****   /* Initialize the I2C_Ack member */
 309:./Drivers/src/stm32f10x_i2c.c ****   I2C_InitStruct->I2C_Ack = I2C_Ack_Disable;
 357              		.loc 1 309 3 is_stmt 1 view .LVU115
 358              		.loc 1 309 27 is_stmt 0 view .LVU116
 359 0012 4381     		strh	r3, [r0, #10]	@ movhi
 310:./Drivers/src/stm32f10x_i2c.c ****   /* Initialize the I2C_AcknowledgedAddress member */
 311:./Drivers/src/stm32f10x_i2c.c ****   I2C_InitStruct->I2C_AcknowledgedAddress = I2C_AcknowledgedAddress_7bit;
 360              		.loc 1 311 3 is_stmt 1 view .LVU117
 361              		.loc 1 311 43 is_stmt 0 view .LVU118
 362 0014 4FF48043 		mov	r3, #16384
 363 0018 8381     		strh	r3, [r0, #12]	@ movhi
 312:./Drivers/src/stm32f10x_i2c.c **** }
 364              		.loc 1 312 1 view .LVU119
 365 001a 7047     		bx	lr
 366              		.cfi_endproc
 367              	.LFE31:
 369              		.section	.text.I2C_Cmd,"ax",%progbits
 370              		.align	1
 371              		.global	I2C_Cmd
 372              		.syntax unified
 373              		.thumb
 374              		.thumb_func
 376              	I2C_Cmd:
 377              	.LVL40:
 378              	.LFB32:
 313:./Drivers/src/stm32f10x_i2c.c **** 
 314:./Drivers/src/stm32f10x_i2c.c **** /**
 315:./Drivers/src/stm32f10x_i2c.c ****   * @brief  Enables or disables the specified I2C peripheral.
 316:./Drivers/src/stm32f10x_i2c.c ****   * @param  I2Cx: where x can be 1 or 2 to select the I2C peripheral.
 317:./Drivers/src/stm32f10x_i2c.c ****   * @param  NewState: new state of the I2Cx peripheral. 
 318:./Drivers/src/stm32f10x_i2c.c ****   *   This parameter can be: ENABLE or DISABLE.
 319:./Drivers/src/stm32f10x_i2c.c ****   * @retval None
 320:./Drivers/src/stm32f10x_i2c.c ****   */
 321:./Drivers/src/stm32f10x_i2c.c **** void I2C_Cmd(I2C_TypeDef* I2Cx, FunctionalState NewState)
 322:./Drivers/src/stm32f10x_i2c.c **** {
 379              		.loc 1 322 1 is_stmt 1 view -0
 380              		.cfi_startproc
 381              		@ args = 0, pretend = 0, frame = 0
 382              		@ frame_needed = 0, uses_anonymous_args = 0
 383              		@ link register save eliminated.
 323:./Drivers/src/stm32f10x_i2c.c ****   /* Check the parameters */
 324:./Drivers/src/stm32f10x_i2c.c ****   assert_param(IS_I2C_ALL_PERIPH(I2Cx));
 384              		.loc 1 324 3 view .LVU121
 325:./Drivers/src/stm32f10x_i2c.c ****   assert_param(IS_FUNCTIONAL_STATE(NewState));
 385              		.loc 1 325 3 view .LVU122
 326:./Drivers/src/stm32f10x_i2c.c ****   if (NewState != DISABLE)
 386              		.loc 1 326 3 view .LVU123
 387              		.loc 1 326 6 is_stmt 0 view .LVU124
 388 0000 29B1     		cbz	r1, .L22
 327:./Drivers/src/stm32f10x_i2c.c ****   {
 328:./Drivers/src/stm32f10x_i2c.c ****     /* Enable the selected I2C peripheral */
 329:./Drivers/src/stm32f10x_i2c.c ****     I2Cx->CR1 |= CR1_PE_Set;
 389              		.loc 1 329 5 is_stmt 1 view .LVU125
 390              		.loc 1 329 9 is_stmt 0 view .LVU126
 391 0002 0388     		ldrh	r3, [r0]
ARM GAS  /tmp/cck3xhcJ.s 			page 14


 392 0004 9BB2     		uxth	r3, r3
 393              		.loc 1 329 15 view .LVU127
 394 0006 43F00103 		orr	r3, r3, #1
 395 000a 0380     		strh	r3, [r0]	@ movhi
 396 000c 7047     		bx	lr
 397              	.L22:
 330:./Drivers/src/stm32f10x_i2c.c ****   }
 331:./Drivers/src/stm32f10x_i2c.c ****   else
 332:./Drivers/src/stm32f10x_i2c.c ****   {
 333:./Drivers/src/stm32f10x_i2c.c ****     /* Disable the selected I2C peripheral */
 334:./Drivers/src/stm32f10x_i2c.c ****     I2Cx->CR1 &= CR1_PE_Reset;
 398              		.loc 1 334 5 is_stmt 1 view .LVU128
 399              		.loc 1 334 9 is_stmt 0 view .LVU129
 400 000e 0388     		ldrh	r3, [r0]
 401 0010 9BB2     		uxth	r3, r3
 402              		.loc 1 334 15 view .LVU130
 403 0012 23F00103 		bic	r3, r3, #1
 404 0016 9BB2     		uxth	r3, r3
 405 0018 0380     		strh	r3, [r0]	@ movhi
 335:./Drivers/src/stm32f10x_i2c.c ****   }
 336:./Drivers/src/stm32f10x_i2c.c **** }
 406              		.loc 1 336 1 view .LVU131
 407 001a 7047     		bx	lr
 408              		.cfi_endproc
 409              	.LFE32:
 411              		.section	.text.I2C_DMACmd,"ax",%progbits
 412              		.align	1
 413              		.global	I2C_DMACmd
 414              		.syntax unified
 415              		.thumb
 416              		.thumb_func
 418              	I2C_DMACmd:
 419              	.LVL41:
 420              	.LFB33:
 337:./Drivers/src/stm32f10x_i2c.c **** 
 338:./Drivers/src/stm32f10x_i2c.c **** /**
 339:./Drivers/src/stm32f10x_i2c.c ****   * @brief  Enables or disables the specified I2C DMA requests.
 340:./Drivers/src/stm32f10x_i2c.c ****   * @param  I2Cx: where x can be 1 or 2 to select the I2C peripheral.
 341:./Drivers/src/stm32f10x_i2c.c ****   * @param  NewState: new state of the I2C DMA transfer.
 342:./Drivers/src/stm32f10x_i2c.c ****   *   This parameter can be: ENABLE or DISABLE.
 343:./Drivers/src/stm32f10x_i2c.c ****   * @retval None
 344:./Drivers/src/stm32f10x_i2c.c ****   */
 345:./Drivers/src/stm32f10x_i2c.c **** void I2C_DMACmd(I2C_TypeDef* I2Cx, FunctionalState NewState)
 346:./Drivers/src/stm32f10x_i2c.c **** {
 421              		.loc 1 346 1 is_stmt 1 view -0
 422              		.cfi_startproc
 423              		@ args = 0, pretend = 0, frame = 0
 424              		@ frame_needed = 0, uses_anonymous_args = 0
 425              		@ link register save eliminated.
 347:./Drivers/src/stm32f10x_i2c.c ****   /* Check the parameters */
 348:./Drivers/src/stm32f10x_i2c.c ****   assert_param(IS_I2C_ALL_PERIPH(I2Cx));
 426              		.loc 1 348 3 view .LVU133
 349:./Drivers/src/stm32f10x_i2c.c ****   assert_param(IS_FUNCTIONAL_STATE(NewState));
 427              		.loc 1 349 3 view .LVU134
 350:./Drivers/src/stm32f10x_i2c.c ****   if (NewState != DISABLE)
 428              		.loc 1 350 3 view .LVU135
 429              		.loc 1 350 6 is_stmt 0 view .LVU136
ARM GAS  /tmp/cck3xhcJ.s 			page 15


 430 0000 29B1     		cbz	r1, .L25
 351:./Drivers/src/stm32f10x_i2c.c ****   {
 352:./Drivers/src/stm32f10x_i2c.c ****     /* Enable the selected I2C DMA requests */
 353:./Drivers/src/stm32f10x_i2c.c ****     I2Cx->CR2 |= CR2_DMAEN_Set;
 431              		.loc 1 353 5 is_stmt 1 view .LVU137
 432              		.loc 1 353 9 is_stmt 0 view .LVU138
 433 0002 8388     		ldrh	r3, [r0, #4]
 434 0004 9BB2     		uxth	r3, r3
 435              		.loc 1 353 15 view .LVU139
 436 0006 43F40063 		orr	r3, r3, #2048
 437 000a 8380     		strh	r3, [r0, #4]	@ movhi
 438 000c 7047     		bx	lr
 439              	.L25:
 354:./Drivers/src/stm32f10x_i2c.c ****   }
 355:./Drivers/src/stm32f10x_i2c.c ****   else
 356:./Drivers/src/stm32f10x_i2c.c ****   {
 357:./Drivers/src/stm32f10x_i2c.c ****     /* Disable the selected I2C DMA requests */
 358:./Drivers/src/stm32f10x_i2c.c ****     I2Cx->CR2 &= CR2_DMAEN_Reset;
 440              		.loc 1 358 5 is_stmt 1 view .LVU140
 441              		.loc 1 358 9 is_stmt 0 view .LVU141
 442 000e 8388     		ldrh	r3, [r0, #4]
 443 0010 9BB2     		uxth	r3, r3
 444              		.loc 1 358 15 view .LVU142
 445 0012 23F40063 		bic	r3, r3, #2048
 446 0016 9BB2     		uxth	r3, r3
 447 0018 8380     		strh	r3, [r0, #4]	@ movhi
 359:./Drivers/src/stm32f10x_i2c.c ****   }
 360:./Drivers/src/stm32f10x_i2c.c **** }
 448              		.loc 1 360 1 view .LVU143
 449 001a 7047     		bx	lr
 450              		.cfi_endproc
 451              	.LFE33:
 453              		.section	.text.I2C_DMALastTransferCmd,"ax",%progbits
 454              		.align	1
 455              		.global	I2C_DMALastTransferCmd
 456              		.syntax unified
 457              		.thumb
 458              		.thumb_func
 460              	I2C_DMALastTransferCmd:
 461              	.LVL42:
 462              	.LFB34:
 361:./Drivers/src/stm32f10x_i2c.c **** 
 362:./Drivers/src/stm32f10x_i2c.c **** /**
 363:./Drivers/src/stm32f10x_i2c.c ****   * @brief  Specifies if the next DMA transfer will be the last one.
 364:./Drivers/src/stm32f10x_i2c.c ****   * @param  I2Cx: where x can be 1 or 2 to select the I2C peripheral.
 365:./Drivers/src/stm32f10x_i2c.c ****   * @param  NewState: new state of the I2C DMA last transfer.
 366:./Drivers/src/stm32f10x_i2c.c ****   *   This parameter can be: ENABLE or DISABLE.
 367:./Drivers/src/stm32f10x_i2c.c ****   * @retval None
 368:./Drivers/src/stm32f10x_i2c.c ****   */
 369:./Drivers/src/stm32f10x_i2c.c **** void I2C_DMALastTransferCmd(I2C_TypeDef* I2Cx, FunctionalState NewState)
 370:./Drivers/src/stm32f10x_i2c.c **** {
 463              		.loc 1 370 1 is_stmt 1 view -0
 464              		.cfi_startproc
 465              		@ args = 0, pretend = 0, frame = 0
 466              		@ frame_needed = 0, uses_anonymous_args = 0
 467              		@ link register save eliminated.
 371:./Drivers/src/stm32f10x_i2c.c ****   /* Check the parameters */
ARM GAS  /tmp/cck3xhcJ.s 			page 16


 372:./Drivers/src/stm32f10x_i2c.c ****   assert_param(IS_I2C_ALL_PERIPH(I2Cx));
 468              		.loc 1 372 3 view .LVU145
 373:./Drivers/src/stm32f10x_i2c.c ****   assert_param(IS_FUNCTIONAL_STATE(NewState));
 469              		.loc 1 373 3 view .LVU146
 374:./Drivers/src/stm32f10x_i2c.c ****   if (NewState != DISABLE)
 470              		.loc 1 374 3 view .LVU147
 471              		.loc 1 374 6 is_stmt 0 view .LVU148
 472 0000 29B1     		cbz	r1, .L28
 375:./Drivers/src/stm32f10x_i2c.c ****   {
 376:./Drivers/src/stm32f10x_i2c.c ****     /* Next DMA transfer is the last transfer */
 377:./Drivers/src/stm32f10x_i2c.c ****     I2Cx->CR2 |= CR2_LAST_Set;
 473              		.loc 1 377 5 is_stmt 1 view .LVU149
 474              		.loc 1 377 9 is_stmt 0 view .LVU150
 475 0002 8388     		ldrh	r3, [r0, #4]
 476 0004 9BB2     		uxth	r3, r3
 477              		.loc 1 377 15 view .LVU151
 478 0006 43F48053 		orr	r3, r3, #4096
 479 000a 8380     		strh	r3, [r0, #4]	@ movhi
 480 000c 7047     		bx	lr
 481              	.L28:
 378:./Drivers/src/stm32f10x_i2c.c ****   }
 379:./Drivers/src/stm32f10x_i2c.c ****   else
 380:./Drivers/src/stm32f10x_i2c.c ****   {
 381:./Drivers/src/stm32f10x_i2c.c ****     /* Next DMA transfer is not the last transfer */
 382:./Drivers/src/stm32f10x_i2c.c ****     I2Cx->CR2 &= CR2_LAST_Reset;
 482              		.loc 1 382 5 is_stmt 1 view .LVU152
 483              		.loc 1 382 9 is_stmt 0 view .LVU153
 484 000e 8388     		ldrh	r3, [r0, #4]
 485 0010 9BB2     		uxth	r3, r3
 486              		.loc 1 382 15 view .LVU154
 487 0012 23F48053 		bic	r3, r3, #4096
 488 0016 9BB2     		uxth	r3, r3
 489 0018 8380     		strh	r3, [r0, #4]	@ movhi
 383:./Drivers/src/stm32f10x_i2c.c ****   }
 384:./Drivers/src/stm32f10x_i2c.c **** }
 490              		.loc 1 384 1 view .LVU155
 491 001a 7047     		bx	lr
 492              		.cfi_endproc
 493              	.LFE34:
 495              		.section	.text.I2C_GenerateSTART,"ax",%progbits
 496              		.align	1
 497              		.global	I2C_GenerateSTART
 498              		.syntax unified
 499              		.thumb
 500              		.thumb_func
 502              	I2C_GenerateSTART:
 503              	.LVL43:
 504              	.LFB35:
 385:./Drivers/src/stm32f10x_i2c.c **** 
 386:./Drivers/src/stm32f10x_i2c.c **** /**
 387:./Drivers/src/stm32f10x_i2c.c ****   * @brief  Generates I2Cx communication START condition.
 388:./Drivers/src/stm32f10x_i2c.c ****   * @param  I2Cx: where x can be 1 or 2 to select the I2C peripheral.
 389:./Drivers/src/stm32f10x_i2c.c ****   * @param  NewState: new state of the I2C START condition generation.
 390:./Drivers/src/stm32f10x_i2c.c ****   *   This parameter can be: ENABLE or DISABLE.
 391:./Drivers/src/stm32f10x_i2c.c ****   * @retval None.
 392:./Drivers/src/stm32f10x_i2c.c ****   */
 393:./Drivers/src/stm32f10x_i2c.c **** void I2C_GenerateSTART(I2C_TypeDef* I2Cx, FunctionalState NewState)
ARM GAS  /tmp/cck3xhcJ.s 			page 17


 394:./Drivers/src/stm32f10x_i2c.c **** {
 505              		.loc 1 394 1 is_stmt 1 view -0
 506              		.cfi_startproc
 507              		@ args = 0, pretend = 0, frame = 0
 508              		@ frame_needed = 0, uses_anonymous_args = 0
 509              		@ link register save eliminated.
 395:./Drivers/src/stm32f10x_i2c.c ****   /* Check the parameters */
 396:./Drivers/src/stm32f10x_i2c.c ****   assert_param(IS_I2C_ALL_PERIPH(I2Cx));
 510              		.loc 1 396 3 view .LVU157
 397:./Drivers/src/stm32f10x_i2c.c ****   assert_param(IS_FUNCTIONAL_STATE(NewState));
 511              		.loc 1 397 3 view .LVU158
 398:./Drivers/src/stm32f10x_i2c.c ****   if (NewState != DISABLE)
 512              		.loc 1 398 3 view .LVU159
 513              		.loc 1 398 6 is_stmt 0 view .LVU160
 514 0000 29B1     		cbz	r1, .L31
 399:./Drivers/src/stm32f10x_i2c.c ****   {
 400:./Drivers/src/stm32f10x_i2c.c ****     /* Generate a START condition */
 401:./Drivers/src/stm32f10x_i2c.c ****     I2Cx->CR1 |= CR1_START_Set;
 515              		.loc 1 401 5 is_stmt 1 view .LVU161
 516              		.loc 1 401 9 is_stmt 0 view .LVU162
 517 0002 0388     		ldrh	r3, [r0]
 518 0004 9BB2     		uxth	r3, r3
 519              		.loc 1 401 15 view .LVU163
 520 0006 43F48073 		orr	r3, r3, #256
 521 000a 0380     		strh	r3, [r0]	@ movhi
 522 000c 7047     		bx	lr
 523              	.L31:
 402:./Drivers/src/stm32f10x_i2c.c ****   }
 403:./Drivers/src/stm32f10x_i2c.c ****   else
 404:./Drivers/src/stm32f10x_i2c.c ****   {
 405:./Drivers/src/stm32f10x_i2c.c ****     /* Disable the START condition generation */
 406:./Drivers/src/stm32f10x_i2c.c ****     I2Cx->CR1 &= CR1_START_Reset;
 524              		.loc 1 406 5 is_stmt 1 view .LVU164
 525              		.loc 1 406 9 is_stmt 0 view .LVU165
 526 000e 0388     		ldrh	r3, [r0]
 527 0010 9BB2     		uxth	r3, r3
 528              		.loc 1 406 15 view .LVU166
 529 0012 23F48073 		bic	r3, r3, #256
 530 0016 9BB2     		uxth	r3, r3
 531 0018 0380     		strh	r3, [r0]	@ movhi
 407:./Drivers/src/stm32f10x_i2c.c ****   }
 408:./Drivers/src/stm32f10x_i2c.c **** }
 532              		.loc 1 408 1 view .LVU167
 533 001a 7047     		bx	lr
 534              		.cfi_endproc
 535              	.LFE35:
 537              		.section	.text.I2C_GenerateSTOP,"ax",%progbits
 538              		.align	1
 539              		.global	I2C_GenerateSTOP
 540              		.syntax unified
 541              		.thumb
 542              		.thumb_func
 544              	I2C_GenerateSTOP:
 545              	.LVL44:
 546              	.LFB36:
 409:./Drivers/src/stm32f10x_i2c.c **** 
 410:./Drivers/src/stm32f10x_i2c.c **** /**
ARM GAS  /tmp/cck3xhcJ.s 			page 18


 411:./Drivers/src/stm32f10x_i2c.c ****   * @brief  Generates I2Cx communication STOP condition.
 412:./Drivers/src/stm32f10x_i2c.c ****   * @param  I2Cx: where x can be 1 or 2 to select the I2C peripheral.
 413:./Drivers/src/stm32f10x_i2c.c ****   * @param  NewState: new state of the I2C STOP condition generation.
 414:./Drivers/src/stm32f10x_i2c.c ****   *   This parameter can be: ENABLE or DISABLE.
 415:./Drivers/src/stm32f10x_i2c.c ****   * @retval None.
 416:./Drivers/src/stm32f10x_i2c.c ****   */
 417:./Drivers/src/stm32f10x_i2c.c **** void I2C_GenerateSTOP(I2C_TypeDef* I2Cx, FunctionalState NewState)
 418:./Drivers/src/stm32f10x_i2c.c **** {
 547              		.loc 1 418 1 is_stmt 1 view -0
 548              		.cfi_startproc
 549              		@ args = 0, pretend = 0, frame = 0
 550              		@ frame_needed = 0, uses_anonymous_args = 0
 551              		@ link register save eliminated.
 419:./Drivers/src/stm32f10x_i2c.c ****   /* Check the parameters */
 420:./Drivers/src/stm32f10x_i2c.c ****   assert_param(IS_I2C_ALL_PERIPH(I2Cx));
 552              		.loc 1 420 3 view .LVU169
 421:./Drivers/src/stm32f10x_i2c.c ****   assert_param(IS_FUNCTIONAL_STATE(NewState));
 553              		.loc 1 421 3 view .LVU170
 422:./Drivers/src/stm32f10x_i2c.c ****   if (NewState != DISABLE)
 554              		.loc 1 422 3 view .LVU171
 555              		.loc 1 422 6 is_stmt 0 view .LVU172
 556 0000 29B1     		cbz	r1, .L34
 423:./Drivers/src/stm32f10x_i2c.c ****   {
 424:./Drivers/src/stm32f10x_i2c.c ****     /* Generate a STOP condition */
 425:./Drivers/src/stm32f10x_i2c.c ****     I2Cx->CR1 |= CR1_STOP_Set;
 557              		.loc 1 425 5 is_stmt 1 view .LVU173
 558              		.loc 1 425 9 is_stmt 0 view .LVU174
 559 0002 0388     		ldrh	r3, [r0]
 560 0004 9BB2     		uxth	r3, r3
 561              		.loc 1 425 15 view .LVU175
 562 0006 43F40073 		orr	r3, r3, #512
 563 000a 0380     		strh	r3, [r0]	@ movhi
 564 000c 7047     		bx	lr
 565              	.L34:
 426:./Drivers/src/stm32f10x_i2c.c ****   }
 427:./Drivers/src/stm32f10x_i2c.c ****   else
 428:./Drivers/src/stm32f10x_i2c.c ****   {
 429:./Drivers/src/stm32f10x_i2c.c ****     /* Disable the STOP condition generation */
 430:./Drivers/src/stm32f10x_i2c.c ****     I2Cx->CR1 &= CR1_STOP_Reset;
 566              		.loc 1 430 5 is_stmt 1 view .LVU176
 567              		.loc 1 430 9 is_stmt 0 view .LVU177
 568 000e 0388     		ldrh	r3, [r0]
 569 0010 9BB2     		uxth	r3, r3
 570              		.loc 1 430 15 view .LVU178
 571 0012 23F40073 		bic	r3, r3, #512
 572 0016 9BB2     		uxth	r3, r3
 573 0018 0380     		strh	r3, [r0]	@ movhi
 431:./Drivers/src/stm32f10x_i2c.c ****   }
 432:./Drivers/src/stm32f10x_i2c.c **** }
 574              		.loc 1 432 1 view .LVU179
 575 001a 7047     		bx	lr
 576              		.cfi_endproc
 577              	.LFE36:
 579              		.section	.text.I2C_AcknowledgeConfig,"ax",%progbits
 580              		.align	1
 581              		.global	I2C_AcknowledgeConfig
 582              		.syntax unified
ARM GAS  /tmp/cck3xhcJ.s 			page 19


 583              		.thumb
 584              		.thumb_func
 586              	I2C_AcknowledgeConfig:
 587              	.LVL45:
 588              	.LFB37:
 433:./Drivers/src/stm32f10x_i2c.c **** 
 434:./Drivers/src/stm32f10x_i2c.c **** /**
 435:./Drivers/src/stm32f10x_i2c.c ****   * @brief  Enables or disables the specified I2C acknowledge feature.
 436:./Drivers/src/stm32f10x_i2c.c ****   * @param  I2Cx: where x can be 1 or 2 to select the I2C peripheral.
 437:./Drivers/src/stm32f10x_i2c.c ****   * @param  NewState: new state of the I2C Acknowledgement.
 438:./Drivers/src/stm32f10x_i2c.c ****   *   This parameter can be: ENABLE or DISABLE.
 439:./Drivers/src/stm32f10x_i2c.c ****   * @retval None.
 440:./Drivers/src/stm32f10x_i2c.c ****   */
 441:./Drivers/src/stm32f10x_i2c.c **** void I2C_AcknowledgeConfig(I2C_TypeDef* I2Cx, FunctionalState NewState)
 442:./Drivers/src/stm32f10x_i2c.c **** {
 589              		.loc 1 442 1 is_stmt 1 view -0
 590              		.cfi_startproc
 591              		@ args = 0, pretend = 0, frame = 0
 592              		@ frame_needed = 0, uses_anonymous_args = 0
 593              		@ link register save eliminated.
 443:./Drivers/src/stm32f10x_i2c.c ****   /* Check the parameters */
 444:./Drivers/src/stm32f10x_i2c.c ****   assert_param(IS_I2C_ALL_PERIPH(I2Cx));
 594              		.loc 1 444 3 view .LVU181
 445:./Drivers/src/stm32f10x_i2c.c ****   assert_param(IS_FUNCTIONAL_STATE(NewState));
 595              		.loc 1 445 3 view .LVU182
 446:./Drivers/src/stm32f10x_i2c.c ****   if (NewState != DISABLE)
 596              		.loc 1 446 3 view .LVU183
 597              		.loc 1 446 6 is_stmt 0 view .LVU184
 598 0000 29B1     		cbz	r1, .L37
 447:./Drivers/src/stm32f10x_i2c.c ****   {
 448:./Drivers/src/stm32f10x_i2c.c ****     /* Enable the acknowledgement */
 449:./Drivers/src/stm32f10x_i2c.c ****     I2Cx->CR1 |= CR1_ACK_Set;
 599              		.loc 1 449 5 is_stmt 1 view .LVU185
 600              		.loc 1 449 9 is_stmt 0 view .LVU186
 601 0002 0388     		ldrh	r3, [r0]
 602 0004 9BB2     		uxth	r3, r3
 603              		.loc 1 449 15 view .LVU187
 604 0006 43F48063 		orr	r3, r3, #1024
 605 000a 0380     		strh	r3, [r0]	@ movhi
 606 000c 7047     		bx	lr
 607              	.L37:
 450:./Drivers/src/stm32f10x_i2c.c ****   }
 451:./Drivers/src/stm32f10x_i2c.c ****   else
 452:./Drivers/src/stm32f10x_i2c.c ****   {
 453:./Drivers/src/stm32f10x_i2c.c ****     /* Disable the acknowledgement */
 454:./Drivers/src/stm32f10x_i2c.c ****     I2Cx->CR1 &= CR1_ACK_Reset;
 608              		.loc 1 454 5 is_stmt 1 view .LVU188
 609              		.loc 1 454 9 is_stmt 0 view .LVU189
 610 000e 0388     		ldrh	r3, [r0]
 611 0010 9BB2     		uxth	r3, r3
 612              		.loc 1 454 15 view .LVU190
 613 0012 23F48063 		bic	r3, r3, #1024
 614 0016 9BB2     		uxth	r3, r3
 615 0018 0380     		strh	r3, [r0]	@ movhi
 455:./Drivers/src/stm32f10x_i2c.c ****   }
 456:./Drivers/src/stm32f10x_i2c.c **** }
 616              		.loc 1 456 1 view .LVU191
ARM GAS  /tmp/cck3xhcJ.s 			page 20


 617 001a 7047     		bx	lr
 618              		.cfi_endproc
 619              	.LFE37:
 621              		.section	.text.I2C_OwnAddress2Config,"ax",%progbits
 622              		.align	1
 623              		.global	I2C_OwnAddress2Config
 624              		.syntax unified
 625              		.thumb
 626              		.thumb_func
 628              	I2C_OwnAddress2Config:
 629              	.LVL46:
 630              	.LFB38:
 457:./Drivers/src/stm32f10x_i2c.c **** 
 458:./Drivers/src/stm32f10x_i2c.c **** /**
 459:./Drivers/src/stm32f10x_i2c.c ****   * @brief  Configures the specified I2C own address2.
 460:./Drivers/src/stm32f10x_i2c.c ****   * @param  I2Cx: where x can be 1 or 2 to select the I2C peripheral.
 461:./Drivers/src/stm32f10x_i2c.c ****   * @param  Address: specifies the 7bit I2C own address2.
 462:./Drivers/src/stm32f10x_i2c.c ****   * @retval None.
 463:./Drivers/src/stm32f10x_i2c.c ****   */
 464:./Drivers/src/stm32f10x_i2c.c **** void I2C_OwnAddress2Config(I2C_TypeDef* I2Cx, uint8_t Address)
 465:./Drivers/src/stm32f10x_i2c.c **** {
 631              		.loc 1 465 1 is_stmt 1 view -0
 632              		.cfi_startproc
 633              		@ args = 0, pretend = 0, frame = 0
 634              		@ frame_needed = 0, uses_anonymous_args = 0
 635              		@ link register save eliminated.
 466:./Drivers/src/stm32f10x_i2c.c ****   uint16_t tmpreg = 0;
 636              		.loc 1 466 3 view .LVU193
 467:./Drivers/src/stm32f10x_i2c.c **** 
 468:./Drivers/src/stm32f10x_i2c.c ****   /* Check the parameters */
 469:./Drivers/src/stm32f10x_i2c.c ****   assert_param(IS_I2C_ALL_PERIPH(I2Cx));
 637              		.loc 1 469 3 view .LVU194
 470:./Drivers/src/stm32f10x_i2c.c **** 
 471:./Drivers/src/stm32f10x_i2c.c ****   /* Get the old register value */
 472:./Drivers/src/stm32f10x_i2c.c ****   tmpreg = I2Cx->OAR2;
 638              		.loc 1 472 3 view .LVU195
 639              		.loc 1 472 10 is_stmt 0 view .LVU196
 640 0000 8389     		ldrh	r3, [r0, #12]
 641 0002 9BB2     		uxth	r3, r3
 642              	.LVL47:
 473:./Drivers/src/stm32f10x_i2c.c **** 
 474:./Drivers/src/stm32f10x_i2c.c ****   /* Reset I2Cx Own address2 bit [7:1] */
 475:./Drivers/src/stm32f10x_i2c.c ****   tmpreg &= OAR2_ADD2_Reset;
 643              		.loc 1 475 3 is_stmt 1 view .LVU197
 644              		.loc 1 475 10 is_stmt 0 view .LVU198
 645 0004 23F0FE03 		bic	r3, r3, #254
 646              	.LVL48:
 476:./Drivers/src/stm32f10x_i2c.c **** 
 477:./Drivers/src/stm32f10x_i2c.c ****   /* Set I2Cx Own address2 */
 478:./Drivers/src/stm32f10x_i2c.c ****   tmpreg |= (uint16_t)((uint16_t)Address & (uint16_t)0x00FE);
 647              		.loc 1 478 3 is_stmt 1 view .LVU199
 648              		.loc 1 478 10 is_stmt 0 view .LVU200
 649 0008 01F0FE01 		and	r1, r1, #254
 650              	.LVL49:
 651              		.loc 1 478 10 view .LVU201
 652 000c 0B43     		orrs	r3, r3, r1
 653              	.LVL50:
ARM GAS  /tmp/cck3xhcJ.s 			page 21


 479:./Drivers/src/stm32f10x_i2c.c **** 
 480:./Drivers/src/stm32f10x_i2c.c ****   /* Store the new register value */
 481:./Drivers/src/stm32f10x_i2c.c ****   I2Cx->OAR2 = tmpreg;
 654              		.loc 1 481 3 is_stmt 1 view .LVU202
 655              		.loc 1 481 14 is_stmt 0 view .LVU203
 656 000e 8381     		strh	r3, [r0, #12]	@ movhi
 482:./Drivers/src/stm32f10x_i2c.c **** }
 657              		.loc 1 482 1 view .LVU204
 658 0010 7047     		bx	lr
 659              		.cfi_endproc
 660              	.LFE38:
 662              		.section	.text.I2C_DualAddressCmd,"ax",%progbits
 663              		.align	1
 664              		.global	I2C_DualAddressCmd
 665              		.syntax unified
 666              		.thumb
 667              		.thumb_func
 669              	I2C_DualAddressCmd:
 670              	.LVL51:
 671              	.LFB39:
 483:./Drivers/src/stm32f10x_i2c.c **** 
 484:./Drivers/src/stm32f10x_i2c.c **** /**
 485:./Drivers/src/stm32f10x_i2c.c ****   * @brief  Enables or disables the specified I2C dual addressing mode.
 486:./Drivers/src/stm32f10x_i2c.c ****   * @param  I2Cx: where x can be 1 or 2 to select the I2C peripheral.
 487:./Drivers/src/stm32f10x_i2c.c ****   * @param  NewState: new state of the I2C dual addressing mode.
 488:./Drivers/src/stm32f10x_i2c.c ****   *   This parameter can be: ENABLE or DISABLE.
 489:./Drivers/src/stm32f10x_i2c.c ****   * @retval None
 490:./Drivers/src/stm32f10x_i2c.c ****   */
 491:./Drivers/src/stm32f10x_i2c.c **** void I2C_DualAddressCmd(I2C_TypeDef* I2Cx, FunctionalState NewState)
 492:./Drivers/src/stm32f10x_i2c.c **** {
 672              		.loc 1 492 1 is_stmt 1 view -0
 673              		.cfi_startproc
 674              		@ args = 0, pretend = 0, frame = 0
 675              		@ frame_needed = 0, uses_anonymous_args = 0
 676              		@ link register save eliminated.
 493:./Drivers/src/stm32f10x_i2c.c ****   /* Check the parameters */
 494:./Drivers/src/stm32f10x_i2c.c ****   assert_param(IS_I2C_ALL_PERIPH(I2Cx));
 677              		.loc 1 494 3 view .LVU206
 495:./Drivers/src/stm32f10x_i2c.c ****   assert_param(IS_FUNCTIONAL_STATE(NewState));
 678              		.loc 1 495 3 view .LVU207
 496:./Drivers/src/stm32f10x_i2c.c ****   if (NewState != DISABLE)
 679              		.loc 1 496 3 view .LVU208
 680              		.loc 1 496 6 is_stmt 0 view .LVU209
 681 0000 29B1     		cbz	r1, .L41
 497:./Drivers/src/stm32f10x_i2c.c ****   {
 498:./Drivers/src/stm32f10x_i2c.c ****     /* Enable dual addressing mode */
 499:./Drivers/src/stm32f10x_i2c.c ****     I2Cx->OAR2 |= OAR2_ENDUAL_Set;
 682              		.loc 1 499 5 is_stmt 1 view .LVU210
 683              		.loc 1 499 9 is_stmt 0 view .LVU211
 684 0002 8389     		ldrh	r3, [r0, #12]
 685 0004 9BB2     		uxth	r3, r3
 686              		.loc 1 499 16 view .LVU212
 687 0006 43F00103 		orr	r3, r3, #1
 688 000a 8381     		strh	r3, [r0, #12]	@ movhi
 689 000c 7047     		bx	lr
 690              	.L41:
 500:./Drivers/src/stm32f10x_i2c.c ****   }
ARM GAS  /tmp/cck3xhcJ.s 			page 22


 501:./Drivers/src/stm32f10x_i2c.c ****   else
 502:./Drivers/src/stm32f10x_i2c.c ****   {
 503:./Drivers/src/stm32f10x_i2c.c ****     /* Disable dual addressing mode */
 504:./Drivers/src/stm32f10x_i2c.c ****     I2Cx->OAR2 &= OAR2_ENDUAL_Reset;
 691              		.loc 1 504 5 is_stmt 1 view .LVU213
 692              		.loc 1 504 9 is_stmt 0 view .LVU214
 693 000e 8389     		ldrh	r3, [r0, #12]
 694 0010 9BB2     		uxth	r3, r3
 695              		.loc 1 504 16 view .LVU215
 696 0012 23F00103 		bic	r3, r3, #1
 697 0016 9BB2     		uxth	r3, r3
 698 0018 8381     		strh	r3, [r0, #12]	@ movhi
 505:./Drivers/src/stm32f10x_i2c.c ****   }
 506:./Drivers/src/stm32f10x_i2c.c **** }
 699              		.loc 1 506 1 view .LVU216
 700 001a 7047     		bx	lr
 701              		.cfi_endproc
 702              	.LFE39:
 704              		.section	.text.I2C_GeneralCallCmd,"ax",%progbits
 705              		.align	1
 706              		.global	I2C_GeneralCallCmd
 707              		.syntax unified
 708              		.thumb
 709              		.thumb_func
 711              	I2C_GeneralCallCmd:
 712              	.LVL52:
 713              	.LFB40:
 507:./Drivers/src/stm32f10x_i2c.c **** 
 508:./Drivers/src/stm32f10x_i2c.c **** /**
 509:./Drivers/src/stm32f10x_i2c.c ****   * @brief  Enables or disables the specified I2C general call feature.
 510:./Drivers/src/stm32f10x_i2c.c ****   * @param  I2Cx: where x can be 1 or 2 to select the I2C peripheral.
 511:./Drivers/src/stm32f10x_i2c.c ****   * @param  NewState: new state of the I2C General call.
 512:./Drivers/src/stm32f10x_i2c.c ****   *   This parameter can be: ENABLE or DISABLE.
 513:./Drivers/src/stm32f10x_i2c.c ****   * @retval None
 514:./Drivers/src/stm32f10x_i2c.c ****   */
 515:./Drivers/src/stm32f10x_i2c.c **** void I2C_GeneralCallCmd(I2C_TypeDef* I2Cx, FunctionalState NewState)
 516:./Drivers/src/stm32f10x_i2c.c **** {
 714              		.loc 1 516 1 is_stmt 1 view -0
 715              		.cfi_startproc
 716              		@ args = 0, pretend = 0, frame = 0
 717              		@ frame_needed = 0, uses_anonymous_args = 0
 718              		@ link register save eliminated.
 517:./Drivers/src/stm32f10x_i2c.c ****   /* Check the parameters */
 518:./Drivers/src/stm32f10x_i2c.c ****   assert_param(IS_I2C_ALL_PERIPH(I2Cx));
 719              		.loc 1 518 3 view .LVU218
 519:./Drivers/src/stm32f10x_i2c.c ****   assert_param(IS_FUNCTIONAL_STATE(NewState));
 720              		.loc 1 519 3 view .LVU219
 520:./Drivers/src/stm32f10x_i2c.c ****   if (NewState != DISABLE)
 721              		.loc 1 520 3 view .LVU220
 722              		.loc 1 520 6 is_stmt 0 view .LVU221
 723 0000 29B1     		cbz	r1, .L44
 521:./Drivers/src/stm32f10x_i2c.c ****   {
 522:./Drivers/src/stm32f10x_i2c.c ****     /* Enable generall call */
 523:./Drivers/src/stm32f10x_i2c.c ****     I2Cx->CR1 |= CR1_ENGC_Set;
 724              		.loc 1 523 5 is_stmt 1 view .LVU222
 725              		.loc 1 523 9 is_stmt 0 view .LVU223
 726 0002 0388     		ldrh	r3, [r0]
ARM GAS  /tmp/cck3xhcJ.s 			page 23


 727 0004 9BB2     		uxth	r3, r3
 728              		.loc 1 523 15 view .LVU224
 729 0006 43F04003 		orr	r3, r3, #64
 730 000a 0380     		strh	r3, [r0]	@ movhi
 731 000c 7047     		bx	lr
 732              	.L44:
 524:./Drivers/src/stm32f10x_i2c.c ****   }
 525:./Drivers/src/stm32f10x_i2c.c ****   else
 526:./Drivers/src/stm32f10x_i2c.c ****   {
 527:./Drivers/src/stm32f10x_i2c.c ****     /* Disable generall call */
 528:./Drivers/src/stm32f10x_i2c.c ****     I2Cx->CR1 &= CR1_ENGC_Reset;
 733              		.loc 1 528 5 is_stmt 1 view .LVU225
 734              		.loc 1 528 9 is_stmt 0 view .LVU226
 735 000e 0388     		ldrh	r3, [r0]
 736 0010 9BB2     		uxth	r3, r3
 737              		.loc 1 528 15 view .LVU227
 738 0012 23F04003 		bic	r3, r3, #64
 739 0016 9BB2     		uxth	r3, r3
 740 0018 0380     		strh	r3, [r0]	@ movhi
 529:./Drivers/src/stm32f10x_i2c.c ****   }
 530:./Drivers/src/stm32f10x_i2c.c **** }
 741              		.loc 1 530 1 view .LVU228
 742 001a 7047     		bx	lr
 743              		.cfi_endproc
 744              	.LFE40:
 746              		.section	.text.I2C_ITConfig,"ax",%progbits
 747              		.align	1
 748              		.global	I2C_ITConfig
 749              		.syntax unified
 750              		.thumb
 751              		.thumb_func
 753              	I2C_ITConfig:
 754              	.LVL53:
 755              	.LFB41:
 531:./Drivers/src/stm32f10x_i2c.c **** 
 532:./Drivers/src/stm32f10x_i2c.c **** /**
 533:./Drivers/src/stm32f10x_i2c.c ****   * @brief  Enables or disables the specified I2C interrupts.
 534:./Drivers/src/stm32f10x_i2c.c ****   * @param  I2Cx: where x can be 1 or 2 to select the I2C peripheral.
 535:./Drivers/src/stm32f10x_i2c.c ****   * @param  I2C_IT: specifies the I2C interrupts sources to be enabled or disabled. 
 536:./Drivers/src/stm32f10x_i2c.c ****   *   This parameter can be any combination of the following values:
 537:./Drivers/src/stm32f10x_i2c.c ****   *     @arg I2C_IT_BUF: Buffer interrupt mask
 538:./Drivers/src/stm32f10x_i2c.c ****   *     @arg I2C_IT_EVT: Event interrupt mask
 539:./Drivers/src/stm32f10x_i2c.c ****   *     @arg I2C_IT_ERR: Error interrupt mask
 540:./Drivers/src/stm32f10x_i2c.c ****   * @param  NewState: new state of the specified I2C interrupts.
 541:./Drivers/src/stm32f10x_i2c.c ****   *   This parameter can be: ENABLE or DISABLE.
 542:./Drivers/src/stm32f10x_i2c.c ****   * @retval None
 543:./Drivers/src/stm32f10x_i2c.c ****   */
 544:./Drivers/src/stm32f10x_i2c.c **** void I2C_ITConfig(I2C_TypeDef* I2Cx, uint16_t I2C_IT, FunctionalState NewState)
 545:./Drivers/src/stm32f10x_i2c.c **** {
 756              		.loc 1 545 1 is_stmt 1 view -0
 757              		.cfi_startproc
 758              		@ args = 0, pretend = 0, frame = 0
 759              		@ frame_needed = 0, uses_anonymous_args = 0
 760              		@ link register save eliminated.
 546:./Drivers/src/stm32f10x_i2c.c ****   /* Check the parameters */
 547:./Drivers/src/stm32f10x_i2c.c ****   assert_param(IS_I2C_ALL_PERIPH(I2Cx));
 761              		.loc 1 547 3 view .LVU230
ARM GAS  /tmp/cck3xhcJ.s 			page 24


 548:./Drivers/src/stm32f10x_i2c.c ****   assert_param(IS_FUNCTIONAL_STATE(NewState));
 762              		.loc 1 548 3 view .LVU231
 549:./Drivers/src/stm32f10x_i2c.c ****   assert_param(IS_I2C_CONFIG_IT(I2C_IT));
 763              		.loc 1 549 3 view .LVU232
 550:./Drivers/src/stm32f10x_i2c.c ****   
 551:./Drivers/src/stm32f10x_i2c.c ****   if (NewState != DISABLE)
 764              		.loc 1 551 3 view .LVU233
 765              		.loc 1 551 6 is_stmt 0 view .LVU234
 766 0000 22B1     		cbz	r2, .L47
 552:./Drivers/src/stm32f10x_i2c.c ****   {
 553:./Drivers/src/stm32f10x_i2c.c ****     /* Enable the selected I2C interrupts */
 554:./Drivers/src/stm32f10x_i2c.c ****     I2Cx->CR2 |= I2C_IT;
 767              		.loc 1 554 5 is_stmt 1 view .LVU235
 768              		.loc 1 554 9 is_stmt 0 view .LVU236
 769 0002 8388     		ldrh	r3, [r0, #4]
 770 0004 9BB2     		uxth	r3, r3
 771              		.loc 1 554 15 view .LVU237
 772 0006 0B43     		orrs	r3, r3, r1
 773 0008 8380     		strh	r3, [r0, #4]	@ movhi
 774 000a 7047     		bx	lr
 775              	.L47:
 555:./Drivers/src/stm32f10x_i2c.c ****   }
 556:./Drivers/src/stm32f10x_i2c.c ****   else
 557:./Drivers/src/stm32f10x_i2c.c ****   {
 558:./Drivers/src/stm32f10x_i2c.c ****     /* Disable the selected I2C interrupts */
 559:./Drivers/src/stm32f10x_i2c.c ****     I2Cx->CR2 &= (uint16_t)~I2C_IT;
 776              		.loc 1 559 5 is_stmt 1 view .LVU238
 777              		.loc 1 559 9 is_stmt 0 view .LVU239
 778 000c 8388     		ldrh	r3, [r0, #4]
 779              		.loc 1 559 18 view .LVU240
 780 000e C943     		mvns	r1, r1
 781              	.LVL54:
 782              		.loc 1 559 18 view .LVU241
 783 0010 89B2     		uxth	r1, r1
 784              		.loc 1 559 15 view .LVU242
 785 0012 1940     		ands	r1, r1, r3
 786 0014 8180     		strh	r1, [r0, #4]	@ movhi
 560:./Drivers/src/stm32f10x_i2c.c ****   }
 561:./Drivers/src/stm32f10x_i2c.c **** }
 787              		.loc 1 561 1 view .LVU243
 788 0016 7047     		bx	lr
 789              		.cfi_endproc
 790              	.LFE41:
 792              		.section	.text.I2C_SendData,"ax",%progbits
 793              		.align	1
 794              		.global	I2C_SendData
 795              		.syntax unified
 796              		.thumb
 797              		.thumb_func
 799              	I2C_SendData:
 800              	.LVL55:
 801              	.LFB42:
 562:./Drivers/src/stm32f10x_i2c.c **** 
 563:./Drivers/src/stm32f10x_i2c.c **** /**
 564:./Drivers/src/stm32f10x_i2c.c ****   * @brief  Sends a data byte through the I2Cx peripheral.
 565:./Drivers/src/stm32f10x_i2c.c ****   * @param  I2Cx: where x can be 1 or 2 to select the I2C peripheral.
 566:./Drivers/src/stm32f10x_i2c.c ****   * @param  Data: Byte to be transmitted..
ARM GAS  /tmp/cck3xhcJ.s 			page 25


 567:./Drivers/src/stm32f10x_i2c.c ****   * @retval None
 568:./Drivers/src/stm32f10x_i2c.c ****   */
 569:./Drivers/src/stm32f10x_i2c.c **** void I2C_SendData(I2C_TypeDef* I2Cx, uint8_t Data)
 570:./Drivers/src/stm32f10x_i2c.c **** {
 802              		.loc 1 570 1 is_stmt 1 view -0
 803              		.cfi_startproc
 804              		@ args = 0, pretend = 0, frame = 0
 805              		@ frame_needed = 0, uses_anonymous_args = 0
 806              		@ link register save eliminated.
 571:./Drivers/src/stm32f10x_i2c.c ****   /* Check the parameters */
 572:./Drivers/src/stm32f10x_i2c.c ****   assert_param(IS_I2C_ALL_PERIPH(I2Cx));
 807              		.loc 1 572 3 view .LVU245
 573:./Drivers/src/stm32f10x_i2c.c ****   /* Write in the DR register the data to be sent */
 574:./Drivers/src/stm32f10x_i2c.c ****   I2Cx->DR = Data;
 808              		.loc 1 574 3 view .LVU246
 809              		.loc 1 574 12 is_stmt 0 view .LVU247
 810 0000 0182     		strh	r1, [r0, #16]	@ movhi
 575:./Drivers/src/stm32f10x_i2c.c **** }
 811              		.loc 1 575 1 view .LVU248
 812 0002 7047     		bx	lr
 813              		.cfi_endproc
 814              	.LFE42:
 816              		.section	.text.I2C_ReceiveData,"ax",%progbits
 817              		.align	1
 818              		.global	I2C_ReceiveData
 819              		.syntax unified
 820              		.thumb
 821              		.thumb_func
 823              	I2C_ReceiveData:
 824              	.LVL56:
 825              	.LFB43:
 576:./Drivers/src/stm32f10x_i2c.c **** 
 577:./Drivers/src/stm32f10x_i2c.c **** /**
 578:./Drivers/src/stm32f10x_i2c.c ****   * @brief  Returns the most recent received data by the I2Cx peripheral.
 579:./Drivers/src/stm32f10x_i2c.c ****   * @param  I2Cx: where x can be 1 or 2 to select the I2C peripheral.
 580:./Drivers/src/stm32f10x_i2c.c ****   * @retval The value of the received data.
 581:./Drivers/src/stm32f10x_i2c.c ****   */
 582:./Drivers/src/stm32f10x_i2c.c **** uint8_t I2C_ReceiveData(I2C_TypeDef* I2Cx)
 583:./Drivers/src/stm32f10x_i2c.c **** {
 826              		.loc 1 583 1 is_stmt 1 view -0
 827              		.cfi_startproc
 828              		@ args = 0, pretend = 0, frame = 0
 829              		@ frame_needed = 0, uses_anonymous_args = 0
 830              		@ link register save eliminated.
 584:./Drivers/src/stm32f10x_i2c.c ****   /* Check the parameters */
 585:./Drivers/src/stm32f10x_i2c.c ****   assert_param(IS_I2C_ALL_PERIPH(I2Cx));
 831              		.loc 1 585 3 view .LVU250
 586:./Drivers/src/stm32f10x_i2c.c ****   /* Return the data in the DR register */
 587:./Drivers/src/stm32f10x_i2c.c ****   return (uint8_t)I2Cx->DR;
 832              		.loc 1 587 3 view .LVU251
 833              		.loc 1 587 23 is_stmt 0 view .LVU252
 834 0000 008A     		ldrh	r0, [r0, #16]
 835              	.LVL57:
 588:./Drivers/src/stm32f10x_i2c.c **** }
 836              		.loc 1 588 1 view .LVU253
 837 0002 C0B2     		uxtb	r0, r0
 838 0004 7047     		bx	lr
ARM GAS  /tmp/cck3xhcJ.s 			page 26


 839              		.cfi_endproc
 840              	.LFE43:
 842              		.section	.text.I2C_Send7bitAddress,"ax",%progbits
 843              		.align	1
 844              		.global	I2C_Send7bitAddress
 845              		.syntax unified
 846              		.thumb
 847              		.thumb_func
 849              	I2C_Send7bitAddress:
 850              	.LVL58:
 851              	.LFB44:
 589:./Drivers/src/stm32f10x_i2c.c **** 
 590:./Drivers/src/stm32f10x_i2c.c **** /**
 591:./Drivers/src/stm32f10x_i2c.c ****   * @brief  Transmits the address byte to select the slave device.
 592:./Drivers/src/stm32f10x_i2c.c ****   * @param  I2Cx: where x can be 1 or 2 to select the I2C peripheral.
 593:./Drivers/src/stm32f10x_i2c.c ****   * @param  Address: specifies the slave address which will be transmitted
 594:./Drivers/src/stm32f10x_i2c.c ****   * @param  I2C_Direction: specifies whether the I2C device will be a
 595:./Drivers/src/stm32f10x_i2c.c ****   *   Transmitter or a Receiver. This parameter can be one of the following values
 596:./Drivers/src/stm32f10x_i2c.c ****   *     @arg I2C_Direction_Transmitter: Transmitter mode
 597:./Drivers/src/stm32f10x_i2c.c ****   *     @arg I2C_Direction_Receiver: Receiver mode
 598:./Drivers/src/stm32f10x_i2c.c ****   * @retval None.
 599:./Drivers/src/stm32f10x_i2c.c ****   */
 600:./Drivers/src/stm32f10x_i2c.c **** void I2C_Send7bitAddress(I2C_TypeDef* I2Cx, uint8_t Address, uint8_t I2C_Direction)
 601:./Drivers/src/stm32f10x_i2c.c **** {
 852              		.loc 1 601 1 is_stmt 1 view -0
 853              		.cfi_startproc
 854              		@ args = 0, pretend = 0, frame = 0
 855              		@ frame_needed = 0, uses_anonymous_args = 0
 856              		@ link register save eliminated.
 602:./Drivers/src/stm32f10x_i2c.c ****   /* Check the parameters */
 603:./Drivers/src/stm32f10x_i2c.c ****   assert_param(IS_I2C_ALL_PERIPH(I2Cx));
 857              		.loc 1 603 3 view .LVU255
 604:./Drivers/src/stm32f10x_i2c.c ****   assert_param(IS_I2C_DIRECTION(I2C_Direction));
 858              		.loc 1 604 3 view .LVU256
 605:./Drivers/src/stm32f10x_i2c.c ****   /* Test on the direction to set/reset the read/write bit */
 606:./Drivers/src/stm32f10x_i2c.c ****   if (I2C_Direction != I2C_Direction_Transmitter)
 859              		.loc 1 606 3 view .LVU257
 860              		.loc 1 606 6 is_stmt 0 view .LVU258
 861 0000 1AB1     		cbz	r2, .L52
 607:./Drivers/src/stm32f10x_i2c.c ****   {
 608:./Drivers/src/stm32f10x_i2c.c ****     /* Set the address bit0 for read */
 609:./Drivers/src/stm32f10x_i2c.c ****     Address |= OAR1_ADD0_Set;
 862              		.loc 1 609 5 is_stmt 1 view .LVU259
 863              		.loc 1 609 13 is_stmt 0 view .LVU260
 864 0002 41F00101 		orr	r1, r1, #1
 865              	.LVL59:
 866              	.L53:
 610:./Drivers/src/stm32f10x_i2c.c ****   }
 611:./Drivers/src/stm32f10x_i2c.c ****   else
 612:./Drivers/src/stm32f10x_i2c.c ****   {
 613:./Drivers/src/stm32f10x_i2c.c ****     /* Reset the address bit0 for write */
 614:./Drivers/src/stm32f10x_i2c.c ****     Address &= OAR1_ADD0_Reset;
 615:./Drivers/src/stm32f10x_i2c.c ****   }
 616:./Drivers/src/stm32f10x_i2c.c ****   /* Send the address */
 617:./Drivers/src/stm32f10x_i2c.c ****   I2Cx->DR = Address;
 867              		.loc 1 617 3 is_stmt 1 view .LVU261
 868              		.loc 1 617 12 is_stmt 0 view .LVU262
ARM GAS  /tmp/cck3xhcJ.s 			page 27


 869 0006 0182     		strh	r1, [r0, #16]	@ movhi
 618:./Drivers/src/stm32f10x_i2c.c **** }
 870              		.loc 1 618 1 view .LVU263
 871 0008 7047     		bx	lr
 872              	.L52:
 614:./Drivers/src/stm32f10x_i2c.c ****   }
 873              		.loc 1 614 5 is_stmt 1 view .LVU264
 614:./Drivers/src/stm32f10x_i2c.c ****   }
 874              		.loc 1 614 13 is_stmt 0 view .LVU265
 875 000a 01F0FE01 		and	r1, r1, #254
 876              	.LVL60:
 614:./Drivers/src/stm32f10x_i2c.c ****   }
 877              		.loc 1 614 13 view .LVU266
 878 000e FAE7     		b	.L53
 879              		.cfi_endproc
 880              	.LFE44:
 882              		.section	.text.I2C_ReadRegister,"ax",%progbits
 883              		.align	1
 884              		.global	I2C_ReadRegister
 885              		.syntax unified
 886              		.thumb
 887              		.thumb_func
 889              	I2C_ReadRegister:
 890              	.LVL61:
 891              	.LFB45:
 619:./Drivers/src/stm32f10x_i2c.c **** 
 620:./Drivers/src/stm32f10x_i2c.c **** /**
 621:./Drivers/src/stm32f10x_i2c.c ****   * @brief  Reads the specified I2C register and returns its value.
 622:./Drivers/src/stm32f10x_i2c.c ****   * @param  I2C_Register: specifies the register to read.
 623:./Drivers/src/stm32f10x_i2c.c ****   *   This parameter can be one of the following values:
 624:./Drivers/src/stm32f10x_i2c.c ****   *     @arg I2C_Register_CR1:  CR1 register.
 625:./Drivers/src/stm32f10x_i2c.c ****   *     @arg I2C_Register_CR2:   CR2 register.
 626:./Drivers/src/stm32f10x_i2c.c ****   *     @arg I2C_Register_OAR1:  OAR1 register.
 627:./Drivers/src/stm32f10x_i2c.c ****   *     @arg I2C_Register_OAR2:  OAR2 register.
 628:./Drivers/src/stm32f10x_i2c.c ****   *     @arg I2C_Register_DR:    DR register.
 629:./Drivers/src/stm32f10x_i2c.c ****   *     @arg I2C_Register_SR1:   SR1 register.
 630:./Drivers/src/stm32f10x_i2c.c ****   *     @arg I2C_Register_SR2:   SR2 register.
 631:./Drivers/src/stm32f10x_i2c.c ****   *     @arg I2C_Register_CCR:   CCR register.
 632:./Drivers/src/stm32f10x_i2c.c ****   *     @arg I2C_Register_TRISE: TRISE register.
 633:./Drivers/src/stm32f10x_i2c.c ****   * @retval The value of the read register.
 634:./Drivers/src/stm32f10x_i2c.c ****   */
 635:./Drivers/src/stm32f10x_i2c.c **** uint16_t I2C_ReadRegister(I2C_TypeDef* I2Cx, uint8_t I2C_Register)
 636:./Drivers/src/stm32f10x_i2c.c **** {
 892              		.loc 1 636 1 is_stmt 1 view -0
 893              		.cfi_startproc
 894              		@ args = 0, pretend = 0, frame = 8
 895              		@ frame_needed = 0, uses_anonymous_args = 0
 896              		@ link register save eliminated.
 897              		.loc 1 636 1 is_stmt 0 view .LVU268
 898 0000 82B0     		sub	sp, sp, #8
 899              	.LCFI5:
 900              		.cfi_def_cfa_offset 8
 637:./Drivers/src/stm32f10x_i2c.c ****   __IO uint32_t tmp = 0;
 901              		.loc 1 637 3 is_stmt 1 view .LVU269
 902              		.loc 1 637 17 is_stmt 0 view .LVU270
 903 0002 0023     		movs	r3, #0
 904 0004 0193     		str	r3, [sp, #4]
ARM GAS  /tmp/cck3xhcJ.s 			page 28


 638:./Drivers/src/stm32f10x_i2c.c **** 
 639:./Drivers/src/stm32f10x_i2c.c ****   /* Check the parameters */
 640:./Drivers/src/stm32f10x_i2c.c ****   assert_param(IS_I2C_ALL_PERIPH(I2Cx));
 905              		.loc 1 640 3 is_stmt 1 view .LVU271
 641:./Drivers/src/stm32f10x_i2c.c ****   assert_param(IS_I2C_REGISTER(I2C_Register));
 906              		.loc 1 641 3 view .LVU272
 642:./Drivers/src/stm32f10x_i2c.c **** 
 643:./Drivers/src/stm32f10x_i2c.c ****   tmp = (uint32_t) I2Cx;
 907              		.loc 1 643 3 view .LVU273
 908              		.loc 1 643 7 is_stmt 0 view .LVU274
 909 0006 0190     		str	r0, [sp, #4]
 644:./Drivers/src/stm32f10x_i2c.c ****   tmp += I2C_Register;
 910              		.loc 1 644 3 is_stmt 1 view .LVU275
 911              		.loc 1 644 7 is_stmt 0 view .LVU276
 912 0008 019B     		ldr	r3, [sp, #4]
 913 000a 1944     		add	r1, r1, r3
 914              	.LVL62:
 915              		.loc 1 644 7 view .LVU277
 916 000c 0191     		str	r1, [sp, #4]
 645:./Drivers/src/stm32f10x_i2c.c **** 
 646:./Drivers/src/stm32f10x_i2c.c ****   /* Return the selected register value */
 647:./Drivers/src/stm32f10x_i2c.c ****   return (*(__IO uint16_t *) tmp);
 917              		.loc 1 647 3 is_stmt 1 view .LVU278
 918              		.loc 1 647 12 is_stmt 0 view .LVU279
 919 000e 019B     		ldr	r3, [sp, #4]
 920              		.loc 1 647 11 view .LVU280
 921 0010 1888     		ldrh	r0, [r3]
 922              	.LVL63:
 648:./Drivers/src/stm32f10x_i2c.c **** }
 923              		.loc 1 648 1 view .LVU281
 924 0012 80B2     		uxth	r0, r0
 925 0014 02B0     		add	sp, sp, #8
 926              	.LCFI6:
 927              		.cfi_def_cfa_offset 0
 928              		@ sp needed
 929 0016 7047     		bx	lr
 930              		.cfi_endproc
 931              	.LFE45:
 933              		.section	.text.I2C_SoftwareResetCmd,"ax",%progbits
 934              		.align	1
 935              		.global	I2C_SoftwareResetCmd
 936              		.syntax unified
 937              		.thumb
 938              		.thumb_func
 940              	I2C_SoftwareResetCmd:
 941              	.LVL64:
 942              	.LFB46:
 649:./Drivers/src/stm32f10x_i2c.c **** 
 650:./Drivers/src/stm32f10x_i2c.c **** /**
 651:./Drivers/src/stm32f10x_i2c.c ****   * @brief  Enables or disables the specified I2C software reset.
 652:./Drivers/src/stm32f10x_i2c.c ****   * @param  I2Cx: where x can be 1 or 2 to select the I2C peripheral.
 653:./Drivers/src/stm32f10x_i2c.c ****   * @param  NewState: new state of the I2C software reset.
 654:./Drivers/src/stm32f10x_i2c.c ****   *   This parameter can be: ENABLE or DISABLE.
 655:./Drivers/src/stm32f10x_i2c.c ****   * @retval None
 656:./Drivers/src/stm32f10x_i2c.c ****   */
 657:./Drivers/src/stm32f10x_i2c.c **** void I2C_SoftwareResetCmd(I2C_TypeDef* I2Cx, FunctionalState NewState)
 658:./Drivers/src/stm32f10x_i2c.c **** {
ARM GAS  /tmp/cck3xhcJ.s 			page 29


 943              		.loc 1 658 1 is_stmt 1 view -0
 944              		.cfi_startproc
 945              		@ args = 0, pretend = 0, frame = 0
 946              		@ frame_needed = 0, uses_anonymous_args = 0
 947              		@ link register save eliminated.
 659:./Drivers/src/stm32f10x_i2c.c ****   /* Check the parameters */
 660:./Drivers/src/stm32f10x_i2c.c ****   assert_param(IS_I2C_ALL_PERIPH(I2Cx));
 948              		.loc 1 660 3 view .LVU283
 661:./Drivers/src/stm32f10x_i2c.c ****   assert_param(IS_FUNCTIONAL_STATE(NewState));
 949              		.loc 1 661 3 view .LVU284
 662:./Drivers/src/stm32f10x_i2c.c ****   if (NewState != DISABLE)
 950              		.loc 1 662 3 view .LVU285
 951              		.loc 1 662 6 is_stmt 0 view .LVU286
 952 0000 39B1     		cbz	r1, .L57
 663:./Drivers/src/stm32f10x_i2c.c ****   {
 664:./Drivers/src/stm32f10x_i2c.c ****     /* Peripheral under reset */
 665:./Drivers/src/stm32f10x_i2c.c ****     I2Cx->CR1 |= CR1_SWRST_Set;
 953              		.loc 1 665 5 is_stmt 1 view .LVU287
 954              		.loc 1 665 9 is_stmt 0 view .LVU288
 955 0002 0388     		ldrh	r3, [r0]
 956              		.loc 1 665 15 view .LVU289
 957 0004 6FEA4343 		mvn	r3, r3, lsl #17
 958 0008 6FEA5343 		mvn	r3, r3, lsr #17
 959 000c 9BB2     		uxth	r3, r3
 960 000e 0380     		strh	r3, [r0]	@ movhi
 961 0010 7047     		bx	lr
 962              	.L57:
 666:./Drivers/src/stm32f10x_i2c.c ****   }
 667:./Drivers/src/stm32f10x_i2c.c ****   else
 668:./Drivers/src/stm32f10x_i2c.c ****   {
 669:./Drivers/src/stm32f10x_i2c.c ****     /* Peripheral not under reset */
 670:./Drivers/src/stm32f10x_i2c.c ****     I2Cx->CR1 &= CR1_SWRST_Reset;
 963              		.loc 1 670 5 is_stmt 1 view .LVU290
 964              		.loc 1 670 9 is_stmt 0 view .LVU291
 965 0012 0388     		ldrh	r3, [r0]
 966              		.loc 1 670 15 view .LVU292
 967 0014 C3F30E03 		ubfx	r3, r3, #0, #15
 968 0018 0380     		strh	r3, [r0]	@ movhi
 671:./Drivers/src/stm32f10x_i2c.c ****   }
 672:./Drivers/src/stm32f10x_i2c.c **** }
 969              		.loc 1 672 1 view .LVU293
 970 001a 7047     		bx	lr
 971              		.cfi_endproc
 972              	.LFE46:
 974              		.section	.text.I2C_NACKPositionConfig,"ax",%progbits
 975              		.align	1
 976              		.global	I2C_NACKPositionConfig
 977              		.syntax unified
 978              		.thumb
 979              		.thumb_func
 981              	I2C_NACKPositionConfig:
 982              	.LVL65:
 983              	.LFB47:
 673:./Drivers/src/stm32f10x_i2c.c **** 
 674:./Drivers/src/stm32f10x_i2c.c **** /**
 675:./Drivers/src/stm32f10x_i2c.c ****   * @brief  Selects the specified I2C NACK position in master receiver mode.
 676:./Drivers/src/stm32f10x_i2c.c ****   *         This function is useful in I2C Master Receiver mode when the number
ARM GAS  /tmp/cck3xhcJ.s 			page 30


 677:./Drivers/src/stm32f10x_i2c.c ****   *         of data to be received is equal to 2. In this case, this function 
 678:./Drivers/src/stm32f10x_i2c.c ****   *         should be called (with parameter I2C_NACKPosition_Next) before data 
 679:./Drivers/src/stm32f10x_i2c.c ****   *         reception starts,as described in the 2-byte reception procedure 
 680:./Drivers/src/stm32f10x_i2c.c ****   *         recommended in Reference Manual in Section: Master receiver.                
 681:./Drivers/src/stm32f10x_i2c.c ****   * @param  I2Cx: where x can be 1 or 2 to select the I2C peripheral.
 682:./Drivers/src/stm32f10x_i2c.c ****   * @param  I2C_NACKPosition: specifies the NACK position. 
 683:./Drivers/src/stm32f10x_i2c.c ****   *   This parameter can be one of the following values:
 684:./Drivers/src/stm32f10x_i2c.c ****   *     @arg I2C_NACKPosition_Next: indicates that the next byte will be the last
 685:./Drivers/src/stm32f10x_i2c.c ****   *          received byte.  
 686:./Drivers/src/stm32f10x_i2c.c ****   *     @arg I2C_NACKPosition_Current: indicates that current byte is the last 
 687:./Drivers/src/stm32f10x_i2c.c ****   *          received byte.
 688:./Drivers/src/stm32f10x_i2c.c ****   *            
 689:./Drivers/src/stm32f10x_i2c.c ****   * @note    This function configures the same bit (POS) as I2C_PECPositionConfig() 
 690:./Drivers/src/stm32f10x_i2c.c ****   *          but is intended to be used in I2C mode while I2C_PECPositionConfig() 
 691:./Drivers/src/stm32f10x_i2c.c ****   *          is intended to used in SMBUS mode. 
 692:./Drivers/src/stm32f10x_i2c.c ****   *            
 693:./Drivers/src/stm32f10x_i2c.c ****   * @retval None
 694:./Drivers/src/stm32f10x_i2c.c ****   */
 695:./Drivers/src/stm32f10x_i2c.c **** void I2C_NACKPositionConfig(I2C_TypeDef* I2Cx, uint16_t I2C_NACKPosition)
 696:./Drivers/src/stm32f10x_i2c.c **** {
 984              		.loc 1 696 1 is_stmt 1 view -0
 985              		.cfi_startproc
 986              		@ args = 0, pretend = 0, frame = 0
 987              		@ frame_needed = 0, uses_anonymous_args = 0
 988              		@ link register save eliminated.
 697:./Drivers/src/stm32f10x_i2c.c ****   /* Check the parameters */
 698:./Drivers/src/stm32f10x_i2c.c ****   assert_param(IS_I2C_ALL_PERIPH(I2Cx));
 989              		.loc 1 698 3 view .LVU295
 699:./Drivers/src/stm32f10x_i2c.c ****   assert_param(IS_I2C_NACK_POSITION(I2C_NACKPosition));
 990              		.loc 1 699 3 view .LVU296
 700:./Drivers/src/stm32f10x_i2c.c ****   
 701:./Drivers/src/stm32f10x_i2c.c ****   /* Check the input parameter */
 702:./Drivers/src/stm32f10x_i2c.c ****   if (I2C_NACKPosition == I2C_NACKPosition_Next)
 991              		.loc 1 702 3 view .LVU297
 992              		.loc 1 702 6 is_stmt 0 view .LVU298
 993 0000 B1F5006F 		cmp	r1, #2048
 994 0004 06D0     		beq	.L62
 703:./Drivers/src/stm32f10x_i2c.c ****   {
 704:./Drivers/src/stm32f10x_i2c.c ****     /* Next byte in shift register is the last received byte */
 705:./Drivers/src/stm32f10x_i2c.c ****     I2Cx->CR1 |= I2C_NACKPosition_Next;
 706:./Drivers/src/stm32f10x_i2c.c ****   }
 707:./Drivers/src/stm32f10x_i2c.c ****   else
 708:./Drivers/src/stm32f10x_i2c.c ****   {
 709:./Drivers/src/stm32f10x_i2c.c ****     /* Current byte in shift register is the last received byte */
 710:./Drivers/src/stm32f10x_i2c.c ****     I2Cx->CR1 &= I2C_NACKPosition_Current;
 995              		.loc 1 710 5 is_stmt 1 view .LVU299
 996              		.loc 1 710 9 is_stmt 0 view .LVU300
 997 0006 0388     		ldrh	r3, [r0]
 998 0008 9BB2     		uxth	r3, r3
 999              		.loc 1 710 15 view .LVU301
 1000 000a 23F40063 		bic	r3, r3, #2048
 1001 000e 9BB2     		uxth	r3, r3
 1002 0010 0380     		strh	r3, [r0]	@ movhi
 711:./Drivers/src/stm32f10x_i2c.c ****   }
 712:./Drivers/src/stm32f10x_i2c.c **** }
 1003              		.loc 1 712 1 view .LVU302
 1004 0012 7047     		bx	lr
ARM GAS  /tmp/cck3xhcJ.s 			page 31


 1005              	.L62:
 705:./Drivers/src/stm32f10x_i2c.c ****   }
 1006              		.loc 1 705 5 is_stmt 1 view .LVU303
 705:./Drivers/src/stm32f10x_i2c.c ****   }
 1007              		.loc 1 705 9 is_stmt 0 view .LVU304
 1008 0014 0388     		ldrh	r3, [r0]
 1009 0016 9BB2     		uxth	r3, r3
 705:./Drivers/src/stm32f10x_i2c.c ****   }
 1010              		.loc 1 705 15 view .LVU305
 1011 0018 43F40063 		orr	r3, r3, #2048
 1012 001c 0380     		strh	r3, [r0]	@ movhi
 1013 001e 7047     		bx	lr
 1014              		.cfi_endproc
 1015              	.LFE47:
 1017              		.section	.text.I2C_SMBusAlertConfig,"ax",%progbits
 1018              		.align	1
 1019              		.global	I2C_SMBusAlertConfig
 1020              		.syntax unified
 1021              		.thumb
 1022              		.thumb_func
 1024              	I2C_SMBusAlertConfig:
 1025              	.LVL66:
 1026              	.LFB48:
 713:./Drivers/src/stm32f10x_i2c.c **** 
 714:./Drivers/src/stm32f10x_i2c.c **** /**
 715:./Drivers/src/stm32f10x_i2c.c ****   * @brief  Drives the SMBusAlert pin high or low for the specified I2C.
 716:./Drivers/src/stm32f10x_i2c.c ****   * @param  I2Cx: where x can be 1 or 2 to select the I2C peripheral.
 717:./Drivers/src/stm32f10x_i2c.c ****   * @param  I2C_SMBusAlert: specifies SMBAlert pin level. 
 718:./Drivers/src/stm32f10x_i2c.c ****   *   This parameter can be one of the following values:
 719:./Drivers/src/stm32f10x_i2c.c ****   *     @arg I2C_SMBusAlert_Low: SMBAlert pin driven low
 720:./Drivers/src/stm32f10x_i2c.c ****   *     @arg I2C_SMBusAlert_High: SMBAlert pin driven high
 721:./Drivers/src/stm32f10x_i2c.c ****   * @retval None
 722:./Drivers/src/stm32f10x_i2c.c ****   */
 723:./Drivers/src/stm32f10x_i2c.c **** void I2C_SMBusAlertConfig(I2C_TypeDef* I2Cx, uint16_t I2C_SMBusAlert)
 724:./Drivers/src/stm32f10x_i2c.c **** {
 1027              		.loc 1 724 1 is_stmt 1 view -0
 1028              		.cfi_startproc
 1029              		@ args = 0, pretend = 0, frame = 0
 1030              		@ frame_needed = 0, uses_anonymous_args = 0
 1031              		@ link register save eliminated.
 725:./Drivers/src/stm32f10x_i2c.c ****   /* Check the parameters */
 726:./Drivers/src/stm32f10x_i2c.c ****   assert_param(IS_I2C_ALL_PERIPH(I2Cx));
 1032              		.loc 1 726 3 view .LVU307
 727:./Drivers/src/stm32f10x_i2c.c ****   assert_param(IS_I2C_SMBUS_ALERT(I2C_SMBusAlert));
 1033              		.loc 1 727 3 view .LVU308
 728:./Drivers/src/stm32f10x_i2c.c ****   if (I2C_SMBusAlert == I2C_SMBusAlert_Low)
 1034              		.loc 1 728 3 view .LVU309
 1035              		.loc 1 728 6 is_stmt 0 view .LVU310
 1036 0000 B1F5005F 		cmp	r1, #8192
 1037 0004 06D0     		beq	.L66
 729:./Drivers/src/stm32f10x_i2c.c ****   {
 730:./Drivers/src/stm32f10x_i2c.c ****     /* Drive the SMBusAlert pin Low */
 731:./Drivers/src/stm32f10x_i2c.c ****     I2Cx->CR1 |= I2C_SMBusAlert_Low;
 732:./Drivers/src/stm32f10x_i2c.c ****   }
 733:./Drivers/src/stm32f10x_i2c.c ****   else
 734:./Drivers/src/stm32f10x_i2c.c ****   {
 735:./Drivers/src/stm32f10x_i2c.c ****     /* Drive the SMBusAlert pin High  */
ARM GAS  /tmp/cck3xhcJ.s 			page 32


 736:./Drivers/src/stm32f10x_i2c.c ****     I2Cx->CR1 &= I2C_SMBusAlert_High;
 1038              		.loc 1 736 5 is_stmt 1 view .LVU311
 1039              		.loc 1 736 9 is_stmt 0 view .LVU312
 1040 0006 0388     		ldrh	r3, [r0]
 1041 0008 9BB2     		uxth	r3, r3
 1042              		.loc 1 736 15 view .LVU313
 1043 000a 23F40053 		bic	r3, r3, #8192
 1044 000e 9BB2     		uxth	r3, r3
 1045 0010 0380     		strh	r3, [r0]	@ movhi
 737:./Drivers/src/stm32f10x_i2c.c ****   }
 738:./Drivers/src/stm32f10x_i2c.c **** }
 1046              		.loc 1 738 1 view .LVU314
 1047 0012 7047     		bx	lr
 1048              	.L66:
 731:./Drivers/src/stm32f10x_i2c.c ****   }
 1049              		.loc 1 731 5 is_stmt 1 view .LVU315
 731:./Drivers/src/stm32f10x_i2c.c ****   }
 1050              		.loc 1 731 9 is_stmt 0 view .LVU316
 1051 0014 0388     		ldrh	r3, [r0]
 1052 0016 9BB2     		uxth	r3, r3
 731:./Drivers/src/stm32f10x_i2c.c ****   }
 1053              		.loc 1 731 15 view .LVU317
 1054 0018 43F40053 		orr	r3, r3, #8192
 1055 001c 0380     		strh	r3, [r0]	@ movhi
 1056 001e 7047     		bx	lr
 1057              		.cfi_endproc
 1058              	.LFE48:
 1060              		.section	.text.I2C_TransmitPEC,"ax",%progbits
 1061              		.align	1
 1062              		.global	I2C_TransmitPEC
 1063              		.syntax unified
 1064              		.thumb
 1065              		.thumb_func
 1067              	I2C_TransmitPEC:
 1068              	.LVL67:
 1069              	.LFB49:
 739:./Drivers/src/stm32f10x_i2c.c **** 
 740:./Drivers/src/stm32f10x_i2c.c **** /**
 741:./Drivers/src/stm32f10x_i2c.c ****   * @brief  Enables or disables the specified I2C PEC transfer.
 742:./Drivers/src/stm32f10x_i2c.c ****   * @param  I2Cx: where x can be 1 or 2 to select the I2C peripheral.
 743:./Drivers/src/stm32f10x_i2c.c ****   * @param  NewState: new state of the I2C PEC transmission.
 744:./Drivers/src/stm32f10x_i2c.c ****   *   This parameter can be: ENABLE or DISABLE.
 745:./Drivers/src/stm32f10x_i2c.c ****   * @retval None
 746:./Drivers/src/stm32f10x_i2c.c ****   */
 747:./Drivers/src/stm32f10x_i2c.c **** void I2C_TransmitPEC(I2C_TypeDef* I2Cx, FunctionalState NewState)
 748:./Drivers/src/stm32f10x_i2c.c **** {
 1070              		.loc 1 748 1 is_stmt 1 view -0
 1071              		.cfi_startproc
 1072              		@ args = 0, pretend = 0, frame = 0
 1073              		@ frame_needed = 0, uses_anonymous_args = 0
 1074              		@ link register save eliminated.
 749:./Drivers/src/stm32f10x_i2c.c ****   /* Check the parameters */
 750:./Drivers/src/stm32f10x_i2c.c ****   assert_param(IS_I2C_ALL_PERIPH(I2Cx));
 1075              		.loc 1 750 3 view .LVU319
 751:./Drivers/src/stm32f10x_i2c.c ****   assert_param(IS_FUNCTIONAL_STATE(NewState));
 1076              		.loc 1 751 3 view .LVU320
 752:./Drivers/src/stm32f10x_i2c.c ****   if (NewState != DISABLE)
ARM GAS  /tmp/cck3xhcJ.s 			page 33


 1077              		.loc 1 752 3 view .LVU321
 1078              		.loc 1 752 6 is_stmt 0 view .LVU322
 1079 0000 29B1     		cbz	r1, .L68
 753:./Drivers/src/stm32f10x_i2c.c ****   {
 754:./Drivers/src/stm32f10x_i2c.c ****     /* Enable the selected I2C PEC transmission */
 755:./Drivers/src/stm32f10x_i2c.c ****     I2Cx->CR1 |= CR1_PEC_Set;
 1080              		.loc 1 755 5 is_stmt 1 view .LVU323
 1081              		.loc 1 755 9 is_stmt 0 view .LVU324
 1082 0002 0388     		ldrh	r3, [r0]
 1083 0004 9BB2     		uxth	r3, r3
 1084              		.loc 1 755 15 view .LVU325
 1085 0006 43F48053 		orr	r3, r3, #4096
 1086 000a 0380     		strh	r3, [r0]	@ movhi
 1087 000c 7047     		bx	lr
 1088              	.L68:
 756:./Drivers/src/stm32f10x_i2c.c ****   }
 757:./Drivers/src/stm32f10x_i2c.c ****   else
 758:./Drivers/src/stm32f10x_i2c.c ****   {
 759:./Drivers/src/stm32f10x_i2c.c ****     /* Disable the selected I2C PEC transmission */
 760:./Drivers/src/stm32f10x_i2c.c ****     I2Cx->CR1 &= CR1_PEC_Reset;
 1089              		.loc 1 760 5 is_stmt 1 view .LVU326
 1090              		.loc 1 760 9 is_stmt 0 view .LVU327
 1091 000e 0388     		ldrh	r3, [r0]
 1092 0010 9BB2     		uxth	r3, r3
 1093              		.loc 1 760 15 view .LVU328
 1094 0012 23F48053 		bic	r3, r3, #4096
 1095 0016 9BB2     		uxth	r3, r3
 1096 0018 0380     		strh	r3, [r0]	@ movhi
 761:./Drivers/src/stm32f10x_i2c.c ****   }
 762:./Drivers/src/stm32f10x_i2c.c **** }
 1097              		.loc 1 762 1 view .LVU329
 1098 001a 7047     		bx	lr
 1099              		.cfi_endproc
 1100              	.LFE49:
 1102              		.section	.text.I2C_PECPositionConfig,"ax",%progbits
 1103              		.align	1
 1104              		.global	I2C_PECPositionConfig
 1105              		.syntax unified
 1106              		.thumb
 1107              		.thumb_func
 1109              	I2C_PECPositionConfig:
 1110              	.LVL68:
 1111              	.LFB50:
 763:./Drivers/src/stm32f10x_i2c.c **** 
 764:./Drivers/src/stm32f10x_i2c.c **** /**
 765:./Drivers/src/stm32f10x_i2c.c ****   * @brief  Selects the specified I2C PEC position.
 766:./Drivers/src/stm32f10x_i2c.c ****   * @param  I2Cx: where x can be 1 or 2 to select the I2C peripheral.
 767:./Drivers/src/stm32f10x_i2c.c ****   * @param  I2C_PECPosition: specifies the PEC position. 
 768:./Drivers/src/stm32f10x_i2c.c ****   *   This parameter can be one of the following values:
 769:./Drivers/src/stm32f10x_i2c.c ****   *     @arg I2C_PECPosition_Next: indicates that the next byte is PEC
 770:./Drivers/src/stm32f10x_i2c.c ****   *     @arg I2C_PECPosition_Current: indicates that current byte is PEC
 771:./Drivers/src/stm32f10x_i2c.c ****   *       
 772:./Drivers/src/stm32f10x_i2c.c ****   * @note    This function configures the same bit (POS) as I2C_NACKPositionConfig()
 773:./Drivers/src/stm32f10x_i2c.c ****   *          but is intended to be used in SMBUS mode while I2C_NACKPositionConfig() 
 774:./Drivers/src/stm32f10x_i2c.c ****   *          is intended to used in I2C mode.
 775:./Drivers/src/stm32f10x_i2c.c ****   *               
 776:./Drivers/src/stm32f10x_i2c.c ****   * @retval None
ARM GAS  /tmp/cck3xhcJ.s 			page 34


 777:./Drivers/src/stm32f10x_i2c.c ****   */
 778:./Drivers/src/stm32f10x_i2c.c **** void I2C_PECPositionConfig(I2C_TypeDef* I2Cx, uint16_t I2C_PECPosition)
 779:./Drivers/src/stm32f10x_i2c.c **** {
 1112              		.loc 1 779 1 is_stmt 1 view -0
 1113              		.cfi_startproc
 1114              		@ args = 0, pretend = 0, frame = 0
 1115              		@ frame_needed = 0, uses_anonymous_args = 0
 1116              		@ link register save eliminated.
 780:./Drivers/src/stm32f10x_i2c.c ****   /* Check the parameters */
 781:./Drivers/src/stm32f10x_i2c.c ****   assert_param(IS_I2C_ALL_PERIPH(I2Cx));
 1117              		.loc 1 781 3 view .LVU331
 782:./Drivers/src/stm32f10x_i2c.c ****   assert_param(IS_I2C_PEC_POSITION(I2C_PECPosition));
 1118              		.loc 1 782 3 view .LVU332
 783:./Drivers/src/stm32f10x_i2c.c ****   if (I2C_PECPosition == I2C_PECPosition_Next)
 1119              		.loc 1 783 3 view .LVU333
 1120              		.loc 1 783 6 is_stmt 0 view .LVU334
 1121 0000 B1F5006F 		cmp	r1, #2048
 1122 0004 06D0     		beq	.L73
 784:./Drivers/src/stm32f10x_i2c.c ****   {
 785:./Drivers/src/stm32f10x_i2c.c ****     /* Next byte in shift register is PEC */
 786:./Drivers/src/stm32f10x_i2c.c ****     I2Cx->CR1 |= I2C_PECPosition_Next;
 787:./Drivers/src/stm32f10x_i2c.c ****   }
 788:./Drivers/src/stm32f10x_i2c.c ****   else
 789:./Drivers/src/stm32f10x_i2c.c ****   {
 790:./Drivers/src/stm32f10x_i2c.c ****     /* Current byte in shift register is PEC */
 791:./Drivers/src/stm32f10x_i2c.c ****     I2Cx->CR1 &= I2C_PECPosition_Current;
 1123              		.loc 1 791 5 is_stmt 1 view .LVU335
 1124              		.loc 1 791 9 is_stmt 0 view .LVU336
 1125 0006 0388     		ldrh	r3, [r0]
 1126 0008 9BB2     		uxth	r3, r3
 1127              		.loc 1 791 15 view .LVU337
 1128 000a 23F40063 		bic	r3, r3, #2048
 1129 000e 9BB2     		uxth	r3, r3
 1130 0010 0380     		strh	r3, [r0]	@ movhi
 792:./Drivers/src/stm32f10x_i2c.c ****   }
 793:./Drivers/src/stm32f10x_i2c.c **** }
 1131              		.loc 1 793 1 view .LVU338
 1132 0012 7047     		bx	lr
 1133              	.L73:
 786:./Drivers/src/stm32f10x_i2c.c ****   }
 1134              		.loc 1 786 5 is_stmt 1 view .LVU339
 786:./Drivers/src/stm32f10x_i2c.c ****   }
 1135              		.loc 1 786 9 is_stmt 0 view .LVU340
 1136 0014 0388     		ldrh	r3, [r0]
 1137 0016 9BB2     		uxth	r3, r3
 786:./Drivers/src/stm32f10x_i2c.c ****   }
 1138              		.loc 1 786 15 view .LVU341
 1139 0018 43F40063 		orr	r3, r3, #2048
 1140 001c 0380     		strh	r3, [r0]	@ movhi
 1141 001e 7047     		bx	lr
 1142              		.cfi_endproc
 1143              	.LFE50:
 1145              		.section	.text.I2C_CalculatePEC,"ax",%progbits
 1146              		.align	1
 1147              		.global	I2C_CalculatePEC
 1148              		.syntax unified
 1149              		.thumb
ARM GAS  /tmp/cck3xhcJ.s 			page 35


 1150              		.thumb_func
 1152              	I2C_CalculatePEC:
 1153              	.LVL69:
 1154              	.LFB51:
 794:./Drivers/src/stm32f10x_i2c.c **** 
 795:./Drivers/src/stm32f10x_i2c.c **** /**
 796:./Drivers/src/stm32f10x_i2c.c ****   * @brief  Enables or disables the PEC value calculation of the transferred bytes.
 797:./Drivers/src/stm32f10x_i2c.c ****   * @param  I2Cx: where x can be 1 or 2 to select the I2C peripheral.
 798:./Drivers/src/stm32f10x_i2c.c ****   * @param  NewState: new state of the I2Cx PEC value calculation.
 799:./Drivers/src/stm32f10x_i2c.c ****   *   This parameter can be: ENABLE or DISABLE.
 800:./Drivers/src/stm32f10x_i2c.c ****   * @retval None
 801:./Drivers/src/stm32f10x_i2c.c ****   */
 802:./Drivers/src/stm32f10x_i2c.c **** void I2C_CalculatePEC(I2C_TypeDef* I2Cx, FunctionalState NewState)
 803:./Drivers/src/stm32f10x_i2c.c **** {
 1155              		.loc 1 803 1 is_stmt 1 view -0
 1156              		.cfi_startproc
 1157              		@ args = 0, pretend = 0, frame = 0
 1158              		@ frame_needed = 0, uses_anonymous_args = 0
 1159              		@ link register save eliminated.
 804:./Drivers/src/stm32f10x_i2c.c ****   /* Check the parameters */
 805:./Drivers/src/stm32f10x_i2c.c ****   assert_param(IS_I2C_ALL_PERIPH(I2Cx));
 1160              		.loc 1 805 3 view .LVU343
 806:./Drivers/src/stm32f10x_i2c.c ****   assert_param(IS_FUNCTIONAL_STATE(NewState));
 1161              		.loc 1 806 3 view .LVU344
 807:./Drivers/src/stm32f10x_i2c.c ****   if (NewState != DISABLE)
 1162              		.loc 1 807 3 view .LVU345
 1163              		.loc 1 807 6 is_stmt 0 view .LVU346
 1164 0000 29B1     		cbz	r1, .L75
 808:./Drivers/src/stm32f10x_i2c.c ****   {
 809:./Drivers/src/stm32f10x_i2c.c ****     /* Enable the selected I2C PEC calculation */
 810:./Drivers/src/stm32f10x_i2c.c ****     I2Cx->CR1 |= CR1_ENPEC_Set;
 1165              		.loc 1 810 5 is_stmt 1 view .LVU347
 1166              		.loc 1 810 9 is_stmt 0 view .LVU348
 1167 0002 0388     		ldrh	r3, [r0]
 1168 0004 9BB2     		uxth	r3, r3
 1169              		.loc 1 810 15 view .LVU349
 1170 0006 43F02003 		orr	r3, r3, #32
 1171 000a 0380     		strh	r3, [r0]	@ movhi
 1172 000c 7047     		bx	lr
 1173              	.L75:
 811:./Drivers/src/stm32f10x_i2c.c ****   }
 812:./Drivers/src/stm32f10x_i2c.c ****   else
 813:./Drivers/src/stm32f10x_i2c.c ****   {
 814:./Drivers/src/stm32f10x_i2c.c ****     /* Disable the selected I2C PEC calculation */
 815:./Drivers/src/stm32f10x_i2c.c ****     I2Cx->CR1 &= CR1_ENPEC_Reset;
 1174              		.loc 1 815 5 is_stmt 1 view .LVU350
 1175              		.loc 1 815 9 is_stmt 0 view .LVU351
 1176 000e 0388     		ldrh	r3, [r0]
 1177 0010 9BB2     		uxth	r3, r3
 1178              		.loc 1 815 15 view .LVU352
 1179 0012 23F02003 		bic	r3, r3, #32
 1180 0016 9BB2     		uxth	r3, r3
 1181 0018 0380     		strh	r3, [r0]	@ movhi
 816:./Drivers/src/stm32f10x_i2c.c ****   }
 817:./Drivers/src/stm32f10x_i2c.c **** }
 1182              		.loc 1 817 1 view .LVU353
 1183 001a 7047     		bx	lr
ARM GAS  /tmp/cck3xhcJ.s 			page 36


 1184              		.cfi_endproc
 1185              	.LFE51:
 1187              		.section	.text.I2C_GetPEC,"ax",%progbits
 1188              		.align	1
 1189              		.global	I2C_GetPEC
 1190              		.syntax unified
 1191              		.thumb
 1192              		.thumb_func
 1194              	I2C_GetPEC:
 1195              	.LVL70:
 1196              	.LFB52:
 818:./Drivers/src/stm32f10x_i2c.c **** 
 819:./Drivers/src/stm32f10x_i2c.c **** /**
 820:./Drivers/src/stm32f10x_i2c.c ****   * @brief  Returns the PEC value for the specified I2C.
 821:./Drivers/src/stm32f10x_i2c.c ****   * @param  I2Cx: where x can be 1 or 2 to select the I2C peripheral.
 822:./Drivers/src/stm32f10x_i2c.c ****   * @retval The PEC value.
 823:./Drivers/src/stm32f10x_i2c.c ****   */
 824:./Drivers/src/stm32f10x_i2c.c **** uint8_t I2C_GetPEC(I2C_TypeDef* I2Cx)
 825:./Drivers/src/stm32f10x_i2c.c **** {
 1197              		.loc 1 825 1 is_stmt 1 view -0
 1198              		.cfi_startproc
 1199              		@ args = 0, pretend = 0, frame = 0
 1200              		@ frame_needed = 0, uses_anonymous_args = 0
 1201              		@ link register save eliminated.
 826:./Drivers/src/stm32f10x_i2c.c ****   /* Check the parameters */
 827:./Drivers/src/stm32f10x_i2c.c ****   assert_param(IS_I2C_ALL_PERIPH(I2Cx));
 1202              		.loc 1 827 3 view .LVU355
 828:./Drivers/src/stm32f10x_i2c.c ****   /* Return the selected I2C PEC value */
 829:./Drivers/src/stm32f10x_i2c.c ****   return ((I2Cx->SR2) >> 8);
 1203              		.loc 1 829 3 view .LVU356
 1204              		.loc 1 829 16 is_stmt 0 view .LVU357
 1205 0000 008B     		ldrh	r0, [r0, #24]
 1206              	.LVL71:
 830:./Drivers/src/stm32f10x_i2c.c **** }
 1207              		.loc 1 830 1 view .LVU358
 1208 0002 C0F30720 		ubfx	r0, r0, #8, #8
 1209 0006 7047     		bx	lr
 1210              		.cfi_endproc
 1211              	.LFE52:
 1213              		.section	.text.I2C_ARPCmd,"ax",%progbits
 1214              		.align	1
 1215              		.global	I2C_ARPCmd
 1216              		.syntax unified
 1217              		.thumb
 1218              		.thumb_func
 1220              	I2C_ARPCmd:
 1221              	.LVL72:
 1222              	.LFB53:
 831:./Drivers/src/stm32f10x_i2c.c **** 
 832:./Drivers/src/stm32f10x_i2c.c **** /**
 833:./Drivers/src/stm32f10x_i2c.c ****   * @brief  Enables or disables the specified I2C ARP.
 834:./Drivers/src/stm32f10x_i2c.c ****   * @param  I2Cx: where x can be 1 or 2 to select the I2C peripheral.
 835:./Drivers/src/stm32f10x_i2c.c ****   * @param  NewState: new state of the I2Cx ARP. 
 836:./Drivers/src/stm32f10x_i2c.c ****   *   This parameter can be: ENABLE or DISABLE.
 837:./Drivers/src/stm32f10x_i2c.c ****   * @retval None
 838:./Drivers/src/stm32f10x_i2c.c ****   */
 839:./Drivers/src/stm32f10x_i2c.c **** void I2C_ARPCmd(I2C_TypeDef* I2Cx, FunctionalState NewState)
ARM GAS  /tmp/cck3xhcJ.s 			page 37


 840:./Drivers/src/stm32f10x_i2c.c **** {
 1223              		.loc 1 840 1 is_stmt 1 view -0
 1224              		.cfi_startproc
 1225              		@ args = 0, pretend = 0, frame = 0
 1226              		@ frame_needed = 0, uses_anonymous_args = 0
 1227              		@ link register save eliminated.
 841:./Drivers/src/stm32f10x_i2c.c ****   /* Check the parameters */
 842:./Drivers/src/stm32f10x_i2c.c ****   assert_param(IS_I2C_ALL_PERIPH(I2Cx));
 1228              		.loc 1 842 3 view .LVU360
 843:./Drivers/src/stm32f10x_i2c.c ****   assert_param(IS_FUNCTIONAL_STATE(NewState));
 1229              		.loc 1 843 3 view .LVU361
 844:./Drivers/src/stm32f10x_i2c.c ****   if (NewState != DISABLE)
 1230              		.loc 1 844 3 view .LVU362
 1231              		.loc 1 844 6 is_stmt 0 view .LVU363
 1232 0000 29B1     		cbz	r1, .L79
 845:./Drivers/src/stm32f10x_i2c.c ****   {
 846:./Drivers/src/stm32f10x_i2c.c ****     /* Enable the selected I2C ARP */
 847:./Drivers/src/stm32f10x_i2c.c ****     I2Cx->CR1 |= CR1_ENARP_Set;
 1233              		.loc 1 847 5 is_stmt 1 view .LVU364
 1234              		.loc 1 847 9 is_stmt 0 view .LVU365
 1235 0002 0388     		ldrh	r3, [r0]
 1236 0004 9BB2     		uxth	r3, r3
 1237              		.loc 1 847 15 view .LVU366
 1238 0006 43F01003 		orr	r3, r3, #16
 1239 000a 0380     		strh	r3, [r0]	@ movhi
 1240 000c 7047     		bx	lr
 1241              	.L79:
 848:./Drivers/src/stm32f10x_i2c.c ****   }
 849:./Drivers/src/stm32f10x_i2c.c ****   else
 850:./Drivers/src/stm32f10x_i2c.c ****   {
 851:./Drivers/src/stm32f10x_i2c.c ****     /* Disable the selected I2C ARP */
 852:./Drivers/src/stm32f10x_i2c.c ****     I2Cx->CR1 &= CR1_ENARP_Reset;
 1242              		.loc 1 852 5 is_stmt 1 view .LVU367
 1243              		.loc 1 852 9 is_stmt 0 view .LVU368
 1244 000e 0388     		ldrh	r3, [r0]
 1245 0010 9BB2     		uxth	r3, r3
 1246              		.loc 1 852 15 view .LVU369
 1247 0012 23F01003 		bic	r3, r3, #16
 1248 0016 9BB2     		uxth	r3, r3
 1249 0018 0380     		strh	r3, [r0]	@ movhi
 853:./Drivers/src/stm32f10x_i2c.c ****   }
 854:./Drivers/src/stm32f10x_i2c.c **** }
 1250              		.loc 1 854 1 view .LVU370
 1251 001a 7047     		bx	lr
 1252              		.cfi_endproc
 1253              	.LFE53:
 1255              		.section	.text.I2C_StretchClockCmd,"ax",%progbits
 1256              		.align	1
 1257              		.global	I2C_StretchClockCmd
 1258              		.syntax unified
 1259              		.thumb
 1260              		.thumb_func
 1262              	I2C_StretchClockCmd:
 1263              	.LVL73:
 1264              	.LFB54:
 855:./Drivers/src/stm32f10x_i2c.c **** 
 856:./Drivers/src/stm32f10x_i2c.c **** /**
ARM GAS  /tmp/cck3xhcJ.s 			page 38


 857:./Drivers/src/stm32f10x_i2c.c ****   * @brief  Enables or disables the specified I2C Clock stretching.
 858:./Drivers/src/stm32f10x_i2c.c ****   * @param  I2Cx: where x can be 1 or 2 to select the I2C peripheral.
 859:./Drivers/src/stm32f10x_i2c.c ****   * @param  NewState: new state of the I2Cx Clock stretching.
 860:./Drivers/src/stm32f10x_i2c.c ****   *   This parameter can be: ENABLE or DISABLE.
 861:./Drivers/src/stm32f10x_i2c.c ****   * @retval None
 862:./Drivers/src/stm32f10x_i2c.c ****   */
 863:./Drivers/src/stm32f10x_i2c.c **** void I2C_StretchClockCmd(I2C_TypeDef* I2Cx, FunctionalState NewState)
 864:./Drivers/src/stm32f10x_i2c.c **** {
 1265              		.loc 1 864 1 is_stmt 1 view -0
 1266              		.cfi_startproc
 1267              		@ args = 0, pretend = 0, frame = 0
 1268              		@ frame_needed = 0, uses_anonymous_args = 0
 1269              		@ link register save eliminated.
 865:./Drivers/src/stm32f10x_i2c.c ****   /* Check the parameters */
 866:./Drivers/src/stm32f10x_i2c.c ****   assert_param(IS_I2C_ALL_PERIPH(I2Cx));
 1270              		.loc 1 866 3 view .LVU372
 867:./Drivers/src/stm32f10x_i2c.c ****   assert_param(IS_FUNCTIONAL_STATE(NewState));
 1271              		.loc 1 867 3 view .LVU373
 868:./Drivers/src/stm32f10x_i2c.c ****   if (NewState == DISABLE)
 1272              		.loc 1 868 3 view .LVU374
 1273              		.loc 1 868 6 is_stmt 0 view .LVU375
 1274 0000 29B9     		cbnz	r1, .L82
 869:./Drivers/src/stm32f10x_i2c.c ****   {
 870:./Drivers/src/stm32f10x_i2c.c ****     /* Enable the selected I2C Clock stretching */
 871:./Drivers/src/stm32f10x_i2c.c ****     I2Cx->CR1 |= CR1_NOSTRETCH_Set;
 1275              		.loc 1 871 5 is_stmt 1 view .LVU376
 1276              		.loc 1 871 9 is_stmt 0 view .LVU377
 1277 0002 0388     		ldrh	r3, [r0]
 1278 0004 9BB2     		uxth	r3, r3
 1279              		.loc 1 871 15 view .LVU378
 1280 0006 43F08003 		orr	r3, r3, #128
 1281 000a 0380     		strh	r3, [r0]	@ movhi
 1282 000c 7047     		bx	lr
 1283              	.L82:
 872:./Drivers/src/stm32f10x_i2c.c ****   }
 873:./Drivers/src/stm32f10x_i2c.c ****   else
 874:./Drivers/src/stm32f10x_i2c.c ****   {
 875:./Drivers/src/stm32f10x_i2c.c ****     /* Disable the selected I2C Clock stretching */
 876:./Drivers/src/stm32f10x_i2c.c ****     I2Cx->CR1 &= CR1_NOSTRETCH_Reset;
 1284              		.loc 1 876 5 is_stmt 1 view .LVU379
 1285              		.loc 1 876 9 is_stmt 0 view .LVU380
 1286 000e 0388     		ldrh	r3, [r0]
 1287 0010 9BB2     		uxth	r3, r3
 1288              		.loc 1 876 15 view .LVU381
 1289 0012 23F08003 		bic	r3, r3, #128
 1290 0016 9BB2     		uxth	r3, r3
 1291 0018 0380     		strh	r3, [r0]	@ movhi
 877:./Drivers/src/stm32f10x_i2c.c ****   }
 878:./Drivers/src/stm32f10x_i2c.c **** }
 1292              		.loc 1 878 1 view .LVU382
 1293 001a 7047     		bx	lr
 1294              		.cfi_endproc
 1295              	.LFE54:
 1297              		.section	.text.I2C_FastModeDutyCycleConfig,"ax",%progbits
 1298              		.align	1
 1299              		.global	I2C_FastModeDutyCycleConfig
 1300              		.syntax unified
ARM GAS  /tmp/cck3xhcJ.s 			page 39


 1301              		.thumb
 1302              		.thumb_func
 1304              	I2C_FastModeDutyCycleConfig:
 1305              	.LVL74:
 1306              	.LFB55:
 879:./Drivers/src/stm32f10x_i2c.c **** 
 880:./Drivers/src/stm32f10x_i2c.c **** /**
 881:./Drivers/src/stm32f10x_i2c.c ****   * @brief  Selects the specified I2C fast mode duty cycle.
 882:./Drivers/src/stm32f10x_i2c.c ****   * @param  I2Cx: where x can be 1 or 2 to select the I2C peripheral.
 883:./Drivers/src/stm32f10x_i2c.c ****   * @param  I2C_DutyCycle: specifies the fast mode duty cycle.
 884:./Drivers/src/stm32f10x_i2c.c ****   *   This parameter can be one of the following values:
 885:./Drivers/src/stm32f10x_i2c.c ****   *     @arg I2C_DutyCycle_2: I2C fast mode Tlow/Thigh = 2
 886:./Drivers/src/stm32f10x_i2c.c ****   *     @arg I2C_DutyCycle_16_9: I2C fast mode Tlow/Thigh = 16/9
 887:./Drivers/src/stm32f10x_i2c.c ****   * @retval None
 888:./Drivers/src/stm32f10x_i2c.c ****   */
 889:./Drivers/src/stm32f10x_i2c.c **** void I2C_FastModeDutyCycleConfig(I2C_TypeDef* I2Cx, uint16_t I2C_DutyCycle)
 890:./Drivers/src/stm32f10x_i2c.c **** {
 1307              		.loc 1 890 1 is_stmt 1 view -0
 1308              		.cfi_startproc
 1309              		@ args = 0, pretend = 0, frame = 0
 1310              		@ frame_needed = 0, uses_anonymous_args = 0
 1311              		@ link register save eliminated.
 891:./Drivers/src/stm32f10x_i2c.c ****   /* Check the parameters */
 892:./Drivers/src/stm32f10x_i2c.c ****   assert_param(IS_I2C_ALL_PERIPH(I2Cx));
 1312              		.loc 1 892 3 view .LVU384
 893:./Drivers/src/stm32f10x_i2c.c ****   assert_param(IS_I2C_DUTY_CYCLE(I2C_DutyCycle));
 1313              		.loc 1 893 3 view .LVU385
 894:./Drivers/src/stm32f10x_i2c.c ****   if (I2C_DutyCycle != I2C_DutyCycle_16_9)
 1314              		.loc 1 894 3 view .LVU386
 1315              		.loc 1 894 6 is_stmt 0 view .LVU387
 1316 0000 B1F5804F 		cmp	r1, #16384
 1317 0004 06D0     		beq	.L85
 895:./Drivers/src/stm32f10x_i2c.c ****   {
 896:./Drivers/src/stm32f10x_i2c.c ****     /* I2C fast mode Tlow/Thigh=2 */
 897:./Drivers/src/stm32f10x_i2c.c ****     I2Cx->CCR &= I2C_DutyCycle_2;
 1318              		.loc 1 897 5 is_stmt 1 view .LVU388
 1319              		.loc 1 897 9 is_stmt 0 view .LVU389
 1320 0006 838B     		ldrh	r3, [r0, #28]
 1321 0008 9BB2     		uxth	r3, r3
 1322              		.loc 1 897 15 view .LVU390
 1323 000a 23F48043 		bic	r3, r3, #16384
 1324 000e 9BB2     		uxth	r3, r3
 1325 0010 8383     		strh	r3, [r0, #28]	@ movhi
 1326 0012 7047     		bx	lr
 1327              	.L85:
 898:./Drivers/src/stm32f10x_i2c.c ****   }
 899:./Drivers/src/stm32f10x_i2c.c ****   else
 900:./Drivers/src/stm32f10x_i2c.c ****   {
 901:./Drivers/src/stm32f10x_i2c.c ****     /* I2C fast mode Tlow/Thigh=16/9 */
 902:./Drivers/src/stm32f10x_i2c.c ****     I2Cx->CCR |= I2C_DutyCycle_16_9;
 1328              		.loc 1 902 5 is_stmt 1 view .LVU391
 1329              		.loc 1 902 9 is_stmt 0 view .LVU392
 1330 0014 838B     		ldrh	r3, [r0, #28]
 1331 0016 9BB2     		uxth	r3, r3
 1332              		.loc 1 902 15 view .LVU393
 1333 0018 43F48043 		orr	r3, r3, #16384
 1334 001c 8383     		strh	r3, [r0, #28]	@ movhi
ARM GAS  /tmp/cck3xhcJ.s 			page 40


 903:./Drivers/src/stm32f10x_i2c.c ****   }
 904:./Drivers/src/stm32f10x_i2c.c **** }
 1335              		.loc 1 904 1 view .LVU394
 1336 001e 7047     		bx	lr
 1337              		.cfi_endproc
 1338              	.LFE55:
 1340              		.section	.text.I2C_CheckEvent,"ax",%progbits
 1341              		.align	1
 1342              		.global	I2C_CheckEvent
 1343              		.syntax unified
 1344              		.thumb
 1345              		.thumb_func
 1347              	I2C_CheckEvent:
 1348              	.LVL75:
 1349              	.LFB56:
 905:./Drivers/src/stm32f10x_i2c.c **** 
 906:./Drivers/src/stm32f10x_i2c.c **** 
 907:./Drivers/src/stm32f10x_i2c.c **** 
 908:./Drivers/src/stm32f10x_i2c.c **** /**
 909:./Drivers/src/stm32f10x_i2c.c ****  * @brief
 910:./Drivers/src/stm32f10x_i2c.c ****  ****************************************************************************************
 911:./Drivers/src/stm32f10x_i2c.c ****  *
 912:./Drivers/src/stm32f10x_i2c.c ****  *                         I2C State Monitoring Functions
 913:./Drivers/src/stm32f10x_i2c.c ****  *                       
 914:./Drivers/src/stm32f10x_i2c.c ****  ****************************************************************************************   
 915:./Drivers/src/stm32f10x_i2c.c ****  * This I2C driver provides three different ways for I2C state monitoring
 916:./Drivers/src/stm32f10x_i2c.c ****  *  depending on the application requirements and constraints:
 917:./Drivers/src/stm32f10x_i2c.c ****  *        
 918:./Drivers/src/stm32f10x_i2c.c ****  *  
 919:./Drivers/src/stm32f10x_i2c.c ****  * 1) Basic state monitoring:
 920:./Drivers/src/stm32f10x_i2c.c ****  *    Using I2C_CheckEvent() function:
 921:./Drivers/src/stm32f10x_i2c.c ****  *    It compares the status registers (SR1 and SR2) content to a given event
 922:./Drivers/src/stm32f10x_i2c.c ****  *    (can be the combination of one or more flags).
 923:./Drivers/src/stm32f10x_i2c.c ****  *    It returns SUCCESS if the current status includes the given flags 
 924:./Drivers/src/stm32f10x_i2c.c ****  *    and returns ERROR if one or more flags are missing in the current status.
 925:./Drivers/src/stm32f10x_i2c.c ****  *    - When to use:
 926:./Drivers/src/stm32f10x_i2c.c ****  *      - This function is suitable for most applications as well as for startup 
 927:./Drivers/src/stm32f10x_i2c.c ****  *      activity since the events are fully described in the product reference manual 
 928:./Drivers/src/stm32f10x_i2c.c ****  *      (RM0008).
 929:./Drivers/src/stm32f10x_i2c.c ****  *      - It is also suitable for users who need to define their own events.
 930:./Drivers/src/stm32f10x_i2c.c ****  *    - Limitations:
 931:./Drivers/src/stm32f10x_i2c.c ****  *      - If an error occurs (ie. error flags are set besides to the monitored flags),
 932:./Drivers/src/stm32f10x_i2c.c ****  *        the I2C_CheckEvent() function may return SUCCESS despite the communication
 933:./Drivers/src/stm32f10x_i2c.c ****  *        hold or corrupted real state. 
 934:./Drivers/src/stm32f10x_i2c.c ****  *        In this case, it is advised to use error interrupts to monitor the error
 935:./Drivers/src/stm32f10x_i2c.c ****  *        events and handle them in the interrupt IRQ handler.
 936:./Drivers/src/stm32f10x_i2c.c ****  *        
 937:./Drivers/src/stm32f10x_i2c.c ****  *        @note 
 938:./Drivers/src/stm32f10x_i2c.c ****  *        For error management, it is advised to use the following functions:
 939:./Drivers/src/stm32f10x_i2c.c ****  *          - I2C_ITConfig() to configure and enable the error interrupts (I2C_IT_ERR).
 940:./Drivers/src/stm32f10x_i2c.c ****  *          - I2Cx_ER_IRQHandler() which is called when the error interrupt occurs.
 941:./Drivers/src/stm32f10x_i2c.c ****  *            Where x is the peripheral instance (I2C1, I2C2 ...)
 942:./Drivers/src/stm32f10x_i2c.c ****  *          - I2C_GetFlagStatus() or I2C_GetITStatus() to be called into I2Cx_ER_IRQHandler() 
 943:./Drivers/src/stm32f10x_i2c.c ****  *            in order to determine which error occured.
 944:./Drivers/src/stm32f10x_i2c.c ****  *          - I2C_ClearFlag() or I2C_ClearITPendingBit() and/or I2C_SoftwareResetCmd()
 945:./Drivers/src/stm32f10x_i2c.c ****  *            and/or I2C_GenerateStop() in order to clear the error flag and source,
 946:./Drivers/src/stm32f10x_i2c.c ****  *            and return to correct communication status.
ARM GAS  /tmp/cck3xhcJ.s 			page 41


 947:./Drivers/src/stm32f10x_i2c.c ****  *            
 948:./Drivers/src/stm32f10x_i2c.c ****  *
 949:./Drivers/src/stm32f10x_i2c.c ****  *  2) Advanced state monitoring:
 950:./Drivers/src/stm32f10x_i2c.c ****  *     Using the function I2C_GetLastEvent() which returns the image of both status 
 951:./Drivers/src/stm32f10x_i2c.c ****  *     registers in a single word (uint32_t) (Status Register 2 value is shifted left 
 952:./Drivers/src/stm32f10x_i2c.c ****  *     by 16 bits and concatenated to Status Register 1).
 953:./Drivers/src/stm32f10x_i2c.c ****  *     - When to use:
 954:./Drivers/src/stm32f10x_i2c.c ****  *       - This function is suitable for the same applications above but it allows to
 955:./Drivers/src/stm32f10x_i2c.c ****  *         overcome the mentioned limitation of I2C_GetFlagStatus() function.
 956:./Drivers/src/stm32f10x_i2c.c ****  *         The returned value could be compared to events already defined in the 
 957:./Drivers/src/stm32f10x_i2c.c ****  *         library (stm32f10x_i2c.h) or to custom values defined by user.
 958:./Drivers/src/stm32f10x_i2c.c ****  *       - This function is suitable when multiple flags are monitored at the same time.
 959:./Drivers/src/stm32f10x_i2c.c ****  *       - At the opposite of I2C_CheckEvent() function, this function allows user to
 960:./Drivers/src/stm32f10x_i2c.c ****  *         choose when an event is accepted (when all events flags are set and no 
 961:./Drivers/src/stm32f10x_i2c.c ****  *         other flags are set or just when the needed flags are set like 
 962:./Drivers/src/stm32f10x_i2c.c ****  *         I2C_CheckEvent() function).
 963:./Drivers/src/stm32f10x_i2c.c ****  *     - Limitations:
 964:./Drivers/src/stm32f10x_i2c.c ****  *       - User may need to define his own events.
 965:./Drivers/src/stm32f10x_i2c.c ****  *       - Same remark concerning the error management is applicable for this 
 966:./Drivers/src/stm32f10x_i2c.c ****  *         function if user decides to check only regular communication flags (and 
 967:./Drivers/src/stm32f10x_i2c.c ****  *         ignores error flags).
 968:./Drivers/src/stm32f10x_i2c.c ****  *     
 969:./Drivers/src/stm32f10x_i2c.c ****  *
 970:./Drivers/src/stm32f10x_i2c.c ****  *  3) Flag-based state monitoring:
 971:./Drivers/src/stm32f10x_i2c.c ****  *     Using the function I2C_GetFlagStatus() which simply returns the status of 
 972:./Drivers/src/stm32f10x_i2c.c ****  *     one single flag (ie. I2C_FLAG_RXNE ...). 
 973:./Drivers/src/stm32f10x_i2c.c ****  *     - When to use:
 974:./Drivers/src/stm32f10x_i2c.c ****  *        - This function could be used for specific applications or in debug phase.
 975:./Drivers/src/stm32f10x_i2c.c ****  *        - It is suitable when only one flag checking is needed (most I2C events 
 976:./Drivers/src/stm32f10x_i2c.c ****  *          are monitored through multiple flags).
 977:./Drivers/src/stm32f10x_i2c.c ****  *     - Limitations: 
 978:./Drivers/src/stm32f10x_i2c.c ****  *        - When calling this function, the Status register is accessed. Some flags are
 979:./Drivers/src/stm32f10x_i2c.c ****  *          cleared when the status register is accessed. So checking the status
 980:./Drivers/src/stm32f10x_i2c.c ****  *          of one Flag, may clear other ones.
 981:./Drivers/src/stm32f10x_i2c.c ****  *        - Function may need to be called twice or more in order to monitor one 
 982:./Drivers/src/stm32f10x_i2c.c ****  *          single event.
 983:./Drivers/src/stm32f10x_i2c.c ****  *
 984:./Drivers/src/stm32f10x_i2c.c ****  *  For detailed description of Events, please refer to section I2C_Events in 
 985:./Drivers/src/stm32f10x_i2c.c ****  *  stm32f10x_i2c.h file.
 986:./Drivers/src/stm32f10x_i2c.c ****  *  
 987:./Drivers/src/stm32f10x_i2c.c ****  */
 988:./Drivers/src/stm32f10x_i2c.c **** 
 989:./Drivers/src/stm32f10x_i2c.c **** /**
 990:./Drivers/src/stm32f10x_i2c.c ****  * 
 991:./Drivers/src/stm32f10x_i2c.c ****  *  1) Basic state monitoring
 992:./Drivers/src/stm32f10x_i2c.c ****  *******************************************************************************
 993:./Drivers/src/stm32f10x_i2c.c ****  */
 994:./Drivers/src/stm32f10x_i2c.c **** 
 995:./Drivers/src/stm32f10x_i2c.c **** /**
 996:./Drivers/src/stm32f10x_i2c.c ****   * @brief  Checks whether the last I2Cx Event is equal to the one passed
 997:./Drivers/src/stm32f10x_i2c.c ****   *   as parameter.
 998:./Drivers/src/stm32f10x_i2c.c ****   * @param  I2Cx: where x can be 1 or 2 to select the I2C peripheral.
 999:./Drivers/src/stm32f10x_i2c.c ****   * @param  I2C_EVENT: specifies the event to be checked. 
1000:./Drivers/src/stm32f10x_i2c.c ****   *   This parameter can be one of the following values:
1001:./Drivers/src/stm32f10x_i2c.c ****   *     @arg I2C_EVENT_SLAVE_TRANSMITTER_ADDRESS_MATCHED           : EV1
1002:./Drivers/src/stm32f10x_i2c.c ****   *     @arg I2C_EVENT_SLAVE_RECEIVER_ADDRESS_MATCHED              : EV1
1003:./Drivers/src/stm32f10x_i2c.c ****   *     @arg I2C_EVENT_SLAVE_TRANSMITTER_SECONDADDRESS_MATCHED     : EV1
ARM GAS  /tmp/cck3xhcJ.s 			page 42


1004:./Drivers/src/stm32f10x_i2c.c ****   *     @arg I2C_EVENT_SLAVE_RECEIVER_SECONDADDRESS_MATCHED        : EV1
1005:./Drivers/src/stm32f10x_i2c.c ****   *     @arg I2C_EVENT_SLAVE_GENERALCALLADDRESS_MATCHED            : EV1
1006:./Drivers/src/stm32f10x_i2c.c ****   *     @arg I2C_EVENT_SLAVE_BYTE_RECEIVED                         : EV2
1007:./Drivers/src/stm32f10x_i2c.c ****   *     @arg (I2C_EVENT_SLAVE_BYTE_RECEIVED | I2C_FLAG_DUALF)      : EV2
1008:./Drivers/src/stm32f10x_i2c.c ****   *     @arg (I2C_EVENT_SLAVE_BYTE_RECEIVED | I2C_FLAG_GENCALL)    : EV2
1009:./Drivers/src/stm32f10x_i2c.c ****   *     @arg I2C_EVENT_SLAVE_BYTE_TRANSMITTED                      : EV3
1010:./Drivers/src/stm32f10x_i2c.c ****   *     @arg (I2C_EVENT_SLAVE_BYTE_TRANSMITTED | I2C_FLAG_DUALF)   : EV3
1011:./Drivers/src/stm32f10x_i2c.c ****   *     @arg (I2C_EVENT_SLAVE_BYTE_TRANSMITTED | I2C_FLAG_GENCALL) : EV3
1012:./Drivers/src/stm32f10x_i2c.c ****   *     @arg I2C_EVENT_SLAVE_ACK_FAILURE                           : EV3_2
1013:./Drivers/src/stm32f10x_i2c.c ****   *     @arg I2C_EVENT_SLAVE_STOP_DETECTED                         : EV4
1014:./Drivers/src/stm32f10x_i2c.c ****   *     @arg I2C_EVENT_MASTER_MODE_SELECT                          : EV5
1015:./Drivers/src/stm32f10x_i2c.c ****   *     @arg I2C_EVENT_MASTER_TRANSMITTER_MODE_SELECTED            : EV6     
1016:./Drivers/src/stm32f10x_i2c.c ****   *     @arg I2C_EVENT_MASTER_RECEIVER_MODE_SELECTED               : EV6
1017:./Drivers/src/stm32f10x_i2c.c ****   *     @arg I2C_EVENT_MASTER_BYTE_RECEIVED                        : EV7
1018:./Drivers/src/stm32f10x_i2c.c ****   *     @arg I2C_EVENT_MASTER_BYTE_TRANSMITTING                    : EV8
1019:./Drivers/src/stm32f10x_i2c.c ****   *     @arg I2C_EVENT_MASTER_BYTE_TRANSMITTED                     : EV8_2
1020:./Drivers/src/stm32f10x_i2c.c ****   *     @arg I2C_EVENT_MASTER_MODE_ADDRESS10                       : EV9
1021:./Drivers/src/stm32f10x_i2c.c ****   *     
1022:./Drivers/src/stm32f10x_i2c.c ****   * @note: For detailed description of Events, please refer to section 
1023:./Drivers/src/stm32f10x_i2c.c ****   *    I2C_Events in stm32f10x_i2c.h file.
1024:./Drivers/src/stm32f10x_i2c.c ****   *    
1025:./Drivers/src/stm32f10x_i2c.c ****   * @retval An ErrorStatus enumeration value:
1026:./Drivers/src/stm32f10x_i2c.c ****   * - SUCCESS: Last event is equal to the I2C_EVENT
1027:./Drivers/src/stm32f10x_i2c.c ****   * - ERROR: Last event is different from the I2C_EVENT
1028:./Drivers/src/stm32f10x_i2c.c ****   */
1029:./Drivers/src/stm32f10x_i2c.c **** ErrorStatus I2C_CheckEvent(I2C_TypeDef* I2Cx, uint32_t I2C_EVENT)
1030:./Drivers/src/stm32f10x_i2c.c **** {
 1350              		.loc 1 1030 1 is_stmt 1 view -0
 1351              		.cfi_startproc
 1352              		@ args = 0, pretend = 0, frame = 0
 1353              		@ frame_needed = 0, uses_anonymous_args = 0
 1354              		@ link register save eliminated.
1031:./Drivers/src/stm32f10x_i2c.c ****   uint32_t lastevent = 0;
 1355              		.loc 1 1031 3 view .LVU396
1032:./Drivers/src/stm32f10x_i2c.c ****   uint32_t flag1 = 0, flag2 = 0;
 1356              		.loc 1 1032 3 view .LVU397
1033:./Drivers/src/stm32f10x_i2c.c ****   ErrorStatus status = ERROR;
 1357              		.loc 1 1033 3 view .LVU398
1034:./Drivers/src/stm32f10x_i2c.c **** 
1035:./Drivers/src/stm32f10x_i2c.c ****   /* Check the parameters */
1036:./Drivers/src/stm32f10x_i2c.c ****   assert_param(IS_I2C_ALL_PERIPH(I2Cx));
 1358              		.loc 1 1036 3 view .LVU399
1037:./Drivers/src/stm32f10x_i2c.c ****   assert_param(IS_I2C_EVENT(I2C_EVENT));
 1359              		.loc 1 1037 3 view .LVU400
1038:./Drivers/src/stm32f10x_i2c.c **** 
1039:./Drivers/src/stm32f10x_i2c.c ****   /* Read the I2Cx status register */
1040:./Drivers/src/stm32f10x_i2c.c ****   flag1 = I2Cx->SR1;
 1360              		.loc 1 1040 3 view .LVU401
 1361              		.loc 1 1040 15 is_stmt 0 view .LVU402
 1362 0000 838A     		ldrh	r3, [r0, #20]
 1363 0002 9BB2     		uxth	r3, r3
 1364              	.LVL76:
1041:./Drivers/src/stm32f10x_i2c.c ****   flag2 = I2Cx->SR2;
 1365              		.loc 1 1041 3 is_stmt 1 view .LVU403
 1366              		.loc 1 1041 15 is_stmt 0 view .LVU404
 1367 0004 028B     		ldrh	r2, [r0, #24]
 1368              	.LVL77:
ARM GAS  /tmp/cck3xhcJ.s 			page 43


1042:./Drivers/src/stm32f10x_i2c.c ****   flag2 = flag2 << 16;
 1369              		.loc 1 1042 3 is_stmt 1 view .LVU405
1043:./Drivers/src/stm32f10x_i2c.c **** 
1044:./Drivers/src/stm32f10x_i2c.c ****   /* Get the last event value from I2C status register */
1045:./Drivers/src/stm32f10x_i2c.c ****   lastevent = (flag1 | flag2) & FLAG_Mask;
 1370              		.loc 1 1045 3 view .LVU406
 1371              		.loc 1 1045 22 is_stmt 0 view .LVU407
 1372 0006 43EA0243 		orr	r3, r3, r2, lsl #16
 1373              	.LVL78:
 1374              		.loc 1 1045 13 view .LVU408
 1375 000a 23F07F43 		bic	r3, r3, #-16777216
 1376              	.LVL79:
1046:./Drivers/src/stm32f10x_i2c.c **** 
1047:./Drivers/src/stm32f10x_i2c.c ****   /* Check whether the last event contains the I2C_EVENT */
1048:./Drivers/src/stm32f10x_i2c.c ****   if ((lastevent & I2C_EVENT) == I2C_EVENT)
 1377              		.loc 1 1048 3 is_stmt 1 view .LVU409
 1378              		.loc 1 1048 6 is_stmt 0 view .LVU410
 1379 000e 9943     		bics	r1, r1, r3
 1380              	.LVL80:
 1381              		.loc 1 1048 6 view .LVU411
 1382 0010 01D0     		beq	.L90
1049:./Drivers/src/stm32f10x_i2c.c ****   {
1050:./Drivers/src/stm32f10x_i2c.c ****     /* SUCCESS: last event is equal to I2C_EVENT */
1051:./Drivers/src/stm32f10x_i2c.c ****     status = SUCCESS;
1052:./Drivers/src/stm32f10x_i2c.c ****   }
1053:./Drivers/src/stm32f10x_i2c.c ****   else
1054:./Drivers/src/stm32f10x_i2c.c ****   {
1055:./Drivers/src/stm32f10x_i2c.c ****     /* ERROR: last event is different from I2C_EVENT */
1056:./Drivers/src/stm32f10x_i2c.c ****     status = ERROR;
 1383              		.loc 1 1056 12 view .LVU412
 1384 0012 0020     		movs	r0, #0
 1385              	.LVL81:
1057:./Drivers/src/stm32f10x_i2c.c ****   }
1058:./Drivers/src/stm32f10x_i2c.c ****   /* Return status */
1059:./Drivers/src/stm32f10x_i2c.c ****   return status;
 1386              		.loc 1 1059 3 is_stmt 1 view .LVU413
1060:./Drivers/src/stm32f10x_i2c.c **** }
 1387              		.loc 1 1060 1 is_stmt 0 view .LVU414
 1388 0014 7047     		bx	lr
 1389              	.LVL82:
 1390              	.L90:
1051:./Drivers/src/stm32f10x_i2c.c ****   }
 1391              		.loc 1 1051 12 view .LVU415
 1392 0016 0120     		movs	r0, #1
 1393              	.LVL83:
1051:./Drivers/src/stm32f10x_i2c.c ****   }
 1394              		.loc 1 1051 12 view .LVU416
 1395 0018 7047     		bx	lr
 1396              		.cfi_endproc
 1397              	.LFE56:
 1399              		.section	.text.I2C_GetLastEvent,"ax",%progbits
 1400              		.align	1
 1401              		.global	I2C_GetLastEvent
 1402              		.syntax unified
 1403              		.thumb
 1404              		.thumb_func
 1406              	I2C_GetLastEvent:
ARM GAS  /tmp/cck3xhcJ.s 			page 44


 1407              	.LVL84:
 1408              	.LFB57:
1061:./Drivers/src/stm32f10x_i2c.c **** 
1062:./Drivers/src/stm32f10x_i2c.c **** /**
1063:./Drivers/src/stm32f10x_i2c.c ****  * 
1064:./Drivers/src/stm32f10x_i2c.c ****  *  2) Advanced state monitoring
1065:./Drivers/src/stm32f10x_i2c.c ****  *******************************************************************************
1066:./Drivers/src/stm32f10x_i2c.c ****  */
1067:./Drivers/src/stm32f10x_i2c.c **** 
1068:./Drivers/src/stm32f10x_i2c.c **** /**
1069:./Drivers/src/stm32f10x_i2c.c ****   * @brief  Returns the last I2Cx Event.
1070:./Drivers/src/stm32f10x_i2c.c ****   * @param  I2Cx: where x can be 1 or 2 to select the I2C peripheral.
1071:./Drivers/src/stm32f10x_i2c.c ****   *     
1072:./Drivers/src/stm32f10x_i2c.c ****   * @note: For detailed description of Events, please refer to section 
1073:./Drivers/src/stm32f10x_i2c.c ****   *    I2C_Events in stm32f10x_i2c.h file.
1074:./Drivers/src/stm32f10x_i2c.c ****   *    
1075:./Drivers/src/stm32f10x_i2c.c ****   * @retval The last event
1076:./Drivers/src/stm32f10x_i2c.c ****   */
1077:./Drivers/src/stm32f10x_i2c.c **** uint32_t I2C_GetLastEvent(I2C_TypeDef* I2Cx)
1078:./Drivers/src/stm32f10x_i2c.c **** {
 1409              		.loc 1 1078 1 is_stmt 1 view -0
 1410              		.cfi_startproc
 1411              		@ args = 0, pretend = 0, frame = 0
 1412              		@ frame_needed = 0, uses_anonymous_args = 0
 1413              		@ link register save eliminated.
1079:./Drivers/src/stm32f10x_i2c.c ****   uint32_t lastevent = 0;
 1414              		.loc 1 1079 3 view .LVU418
1080:./Drivers/src/stm32f10x_i2c.c ****   uint32_t flag1 = 0, flag2 = 0;
 1415              		.loc 1 1080 3 view .LVU419
1081:./Drivers/src/stm32f10x_i2c.c **** 
1082:./Drivers/src/stm32f10x_i2c.c ****   /* Check the parameters */
1083:./Drivers/src/stm32f10x_i2c.c ****   assert_param(IS_I2C_ALL_PERIPH(I2Cx));
 1416              		.loc 1 1083 3 view .LVU420
1084:./Drivers/src/stm32f10x_i2c.c **** 
1085:./Drivers/src/stm32f10x_i2c.c ****   /* Read the I2Cx status register */
1086:./Drivers/src/stm32f10x_i2c.c ****   flag1 = I2Cx->SR1;
 1417              		.loc 1 1086 3 view .LVU421
 1418              		.loc 1 1086 15 is_stmt 0 view .LVU422
 1419 0000 838A     		ldrh	r3, [r0, #20]
 1420 0002 9BB2     		uxth	r3, r3
 1421              	.LVL85:
1087:./Drivers/src/stm32f10x_i2c.c ****   flag2 = I2Cx->SR2;
 1422              		.loc 1 1087 3 is_stmt 1 view .LVU423
 1423              		.loc 1 1087 15 is_stmt 0 view .LVU424
 1424 0004 028B     		ldrh	r2, [r0, #24]
 1425              	.LVL86:
1088:./Drivers/src/stm32f10x_i2c.c ****   flag2 = flag2 << 16;
 1426              		.loc 1 1088 3 is_stmt 1 view .LVU425
1089:./Drivers/src/stm32f10x_i2c.c **** 
1090:./Drivers/src/stm32f10x_i2c.c ****   /* Get the last event value from I2C status register */
1091:./Drivers/src/stm32f10x_i2c.c ****   lastevent = (flag1 | flag2) & FLAG_Mask;
 1427              		.loc 1 1091 3 view .LVU426
 1428              		.loc 1 1091 22 is_stmt 0 view .LVU427
 1429 0006 43EA0240 		orr	r0, r3, r2, lsl #16
 1430              	.LVL87:
1092:./Drivers/src/stm32f10x_i2c.c **** 
1093:./Drivers/src/stm32f10x_i2c.c ****   /* Return status */
ARM GAS  /tmp/cck3xhcJ.s 			page 45


1094:./Drivers/src/stm32f10x_i2c.c ****   return lastevent;
 1431              		.loc 1 1094 3 is_stmt 1 view .LVU428
1095:./Drivers/src/stm32f10x_i2c.c **** }
 1432              		.loc 1 1095 1 is_stmt 0 view .LVU429
 1433 000a 20F07F40 		bic	r0, r0, #-16777216
 1434              	.LVL88:
 1435              		.loc 1 1095 1 view .LVU430
 1436 000e 7047     		bx	lr
 1437              		.cfi_endproc
 1438              	.LFE57:
 1440              		.section	.text.I2C_GetFlagStatus,"ax",%progbits
 1441              		.align	1
 1442              		.global	I2C_GetFlagStatus
 1443              		.syntax unified
 1444              		.thumb
 1445              		.thumb_func
 1447              	I2C_GetFlagStatus:
 1448              	.LVL89:
 1449              	.LFB58:
1096:./Drivers/src/stm32f10x_i2c.c **** 
1097:./Drivers/src/stm32f10x_i2c.c **** /**
1098:./Drivers/src/stm32f10x_i2c.c ****  * 
1099:./Drivers/src/stm32f10x_i2c.c ****  *  3) Flag-based state monitoring
1100:./Drivers/src/stm32f10x_i2c.c ****  *******************************************************************************
1101:./Drivers/src/stm32f10x_i2c.c ****  */
1102:./Drivers/src/stm32f10x_i2c.c **** 
1103:./Drivers/src/stm32f10x_i2c.c **** /**
1104:./Drivers/src/stm32f10x_i2c.c ****   * @brief  Checks whether the specified I2C flag is set or not.
1105:./Drivers/src/stm32f10x_i2c.c ****   * @param  I2Cx: where x can be 1 or 2 to select the I2C peripheral.
1106:./Drivers/src/stm32f10x_i2c.c ****   * @param  I2C_FLAG: specifies the flag to check. 
1107:./Drivers/src/stm32f10x_i2c.c ****   *   This parameter can be one of the following values:
1108:./Drivers/src/stm32f10x_i2c.c ****   *     @arg I2C_FLAG_DUALF: Dual flag (Slave mode)
1109:./Drivers/src/stm32f10x_i2c.c ****   *     @arg I2C_FLAG_SMBHOST: SMBus host header (Slave mode)
1110:./Drivers/src/stm32f10x_i2c.c ****   *     @arg I2C_FLAG_SMBDEFAULT: SMBus default header (Slave mode)
1111:./Drivers/src/stm32f10x_i2c.c ****   *     @arg I2C_FLAG_GENCALL: General call header flag (Slave mode)
1112:./Drivers/src/stm32f10x_i2c.c ****   *     @arg I2C_FLAG_TRA: Transmitter/Receiver flag
1113:./Drivers/src/stm32f10x_i2c.c ****   *     @arg I2C_FLAG_BUSY: Bus busy flag
1114:./Drivers/src/stm32f10x_i2c.c ****   *     @arg I2C_FLAG_MSL: Master/Slave flag
1115:./Drivers/src/stm32f10x_i2c.c ****   *     @arg I2C_FLAG_SMBALERT: SMBus Alert flag
1116:./Drivers/src/stm32f10x_i2c.c ****   *     @arg I2C_FLAG_TIMEOUT: Timeout or Tlow error flag
1117:./Drivers/src/stm32f10x_i2c.c ****   *     @arg I2C_FLAG_PECERR: PEC error in reception flag
1118:./Drivers/src/stm32f10x_i2c.c ****   *     @arg I2C_FLAG_OVR: Overrun/Underrun flag (Slave mode)
1119:./Drivers/src/stm32f10x_i2c.c ****   *     @arg I2C_FLAG_AF: Acknowledge failure flag
1120:./Drivers/src/stm32f10x_i2c.c ****   *     @arg I2C_FLAG_ARLO: Arbitration lost flag (Master mode)
1121:./Drivers/src/stm32f10x_i2c.c ****   *     @arg I2C_FLAG_BERR: Bus error flag
1122:./Drivers/src/stm32f10x_i2c.c ****   *     @arg I2C_FLAG_TXE: Data register empty flag (Transmitter)
1123:./Drivers/src/stm32f10x_i2c.c ****   *     @arg I2C_FLAG_RXNE: Data register not empty (Receiver) flag
1124:./Drivers/src/stm32f10x_i2c.c ****   *     @arg I2C_FLAG_STOPF: Stop detection flag (Slave mode)
1125:./Drivers/src/stm32f10x_i2c.c ****   *     @arg I2C_FLAG_ADD10: 10-bit header sent flag (Master mode)
1126:./Drivers/src/stm32f10x_i2c.c ****   *     @arg I2C_FLAG_BTF: Byte transfer finished flag
1127:./Drivers/src/stm32f10x_i2c.c ****   *     @arg I2C_FLAG_ADDR: Address sent flag (Master mode) "ADSL"
1128:./Drivers/src/stm32f10x_i2c.c ****   *   Address matched flag (Slave mode)"ENDA"
1129:./Drivers/src/stm32f10x_i2c.c ****   *     @arg I2C_FLAG_SB: Start bit flag (Master mode)
1130:./Drivers/src/stm32f10x_i2c.c ****   * @retval The new state of I2C_FLAG (SET or RESET).
1131:./Drivers/src/stm32f10x_i2c.c ****   */
1132:./Drivers/src/stm32f10x_i2c.c **** FlagStatus I2C_GetFlagStatus(I2C_TypeDef* I2Cx, uint32_t I2C_FLAG)
1133:./Drivers/src/stm32f10x_i2c.c **** {
ARM GAS  /tmp/cck3xhcJ.s 			page 46


 1450              		.loc 1 1133 1 is_stmt 1 view -0
 1451              		.cfi_startproc
 1452              		@ args = 0, pretend = 0, frame = 8
 1453              		@ frame_needed = 0, uses_anonymous_args = 0
 1454              		@ link register save eliminated.
 1455              		.loc 1 1133 1 is_stmt 0 view .LVU432
 1456 0000 82B0     		sub	sp, sp, #8
 1457              	.LCFI7:
 1458              		.cfi_def_cfa_offset 8
1134:./Drivers/src/stm32f10x_i2c.c ****   FlagStatus bitstatus = RESET;
 1459              		.loc 1 1134 3 is_stmt 1 view .LVU433
 1460              	.LVL90:
1135:./Drivers/src/stm32f10x_i2c.c ****   __IO uint32_t i2creg = 0, i2cxbase = 0;
 1461              		.loc 1 1135 3 view .LVU434
 1462              		.loc 1 1135 17 is_stmt 0 view .LVU435
 1463 0002 0023     		movs	r3, #0
 1464 0004 0193     		str	r3, [sp, #4]
 1465              		.loc 1 1135 29 view .LVU436
 1466 0006 0093     		str	r3, [sp]
1136:./Drivers/src/stm32f10x_i2c.c **** 
1137:./Drivers/src/stm32f10x_i2c.c ****   /* Check the parameters */
1138:./Drivers/src/stm32f10x_i2c.c ****   assert_param(IS_I2C_ALL_PERIPH(I2Cx));
 1467              		.loc 1 1138 3 is_stmt 1 view .LVU437
1139:./Drivers/src/stm32f10x_i2c.c ****   assert_param(IS_I2C_GET_FLAG(I2C_FLAG));
 1468              		.loc 1 1139 3 view .LVU438
1140:./Drivers/src/stm32f10x_i2c.c **** 
1141:./Drivers/src/stm32f10x_i2c.c ****   /* Get the I2Cx peripheral base address */
1142:./Drivers/src/stm32f10x_i2c.c ****   i2cxbase = (uint32_t)I2Cx;
 1469              		.loc 1 1142 3 view .LVU439
 1470              		.loc 1 1142 12 is_stmt 0 view .LVU440
 1471 0008 0090     		str	r0, [sp]
1143:./Drivers/src/stm32f10x_i2c.c ****   
1144:./Drivers/src/stm32f10x_i2c.c ****   /* Read flag register index */
1145:./Drivers/src/stm32f10x_i2c.c ****   i2creg = I2C_FLAG >> 28;
 1472              		.loc 1 1145 3 is_stmt 1 view .LVU441
 1473              		.loc 1 1145 21 is_stmt 0 view .LVU442
 1474 000a 0B0F     		lsrs	r3, r1, #28
 1475              		.loc 1 1145 10 view .LVU443
 1476 000c 0193     		str	r3, [sp, #4]
1146:./Drivers/src/stm32f10x_i2c.c ****   
1147:./Drivers/src/stm32f10x_i2c.c ****   /* Get bit[23:0] of the flag */
1148:./Drivers/src/stm32f10x_i2c.c ****   I2C_FLAG &= FLAG_Mask;
 1477              		.loc 1 1148 3 is_stmt 1 view .LVU444
 1478              		.loc 1 1148 12 is_stmt 0 view .LVU445
 1479 000e 21F07F41 		bic	r1, r1, #-16777216
 1480              	.LVL91:
1149:./Drivers/src/stm32f10x_i2c.c ****   
1150:./Drivers/src/stm32f10x_i2c.c ****   if(i2creg != 0)
 1481              		.loc 1 1150 3 is_stmt 1 view .LVU446
 1482              		.loc 1 1150 13 is_stmt 0 view .LVU447
 1483 0012 019B     		ldr	r3, [sp, #4]
 1484              		.loc 1 1150 5 view .LVU448
 1485 0014 4BB1     		cbz	r3, .L93
1151:./Drivers/src/stm32f10x_i2c.c ****   {
1152:./Drivers/src/stm32f10x_i2c.c ****     /* Get the I2Cx SR1 register address */
1153:./Drivers/src/stm32f10x_i2c.c ****     i2cxbase += 0x14;
 1486              		.loc 1 1153 5 is_stmt 1 view .LVU449
ARM GAS  /tmp/cck3xhcJ.s 			page 47


 1487              		.loc 1 1153 14 is_stmt 0 view .LVU450
 1488 0016 009B     		ldr	r3, [sp]
 1489 0018 1433     		adds	r3, r3, #20
 1490 001a 0093     		str	r3, [sp]
 1491              	.L94:
1154:./Drivers/src/stm32f10x_i2c.c ****   }
1155:./Drivers/src/stm32f10x_i2c.c ****   else
1156:./Drivers/src/stm32f10x_i2c.c ****   {
1157:./Drivers/src/stm32f10x_i2c.c ****     /* Flag in I2Cx SR2 Register */
1158:./Drivers/src/stm32f10x_i2c.c ****     I2C_FLAG = (uint32_t)(I2C_FLAG >> 16);
1159:./Drivers/src/stm32f10x_i2c.c ****     /* Get the I2Cx SR2 register address */
1160:./Drivers/src/stm32f10x_i2c.c ****     i2cxbase += 0x18;
1161:./Drivers/src/stm32f10x_i2c.c ****   }
1162:./Drivers/src/stm32f10x_i2c.c ****   
1163:./Drivers/src/stm32f10x_i2c.c ****   if(((*(__IO uint32_t *)i2cxbase) & I2C_FLAG) != (uint32_t)RESET)
 1492              		.loc 1 1163 3 is_stmt 1 view .LVU451
 1493              		.loc 1 1163 9 is_stmt 0 view .LVU452
 1494 001c 009B     		ldr	r3, [sp]
 1495              		.loc 1 1163 8 view .LVU453
 1496 001e 1B68     		ldr	r3, [r3]
 1497              		.loc 1 1163 5 view .LVU454
 1498 0020 0B42     		tst	r3, r1
 1499 0022 07D0     		beq	.L96
1164:./Drivers/src/stm32f10x_i2c.c ****   {
1165:./Drivers/src/stm32f10x_i2c.c ****     /* I2C_FLAG is set */
1166:./Drivers/src/stm32f10x_i2c.c ****     bitstatus = SET;
 1500              		.loc 1 1166 15 view .LVU455
 1501 0024 0120     		movs	r0, #1
 1502              	.LVL92:
 1503              	.L95:
1167:./Drivers/src/stm32f10x_i2c.c ****   }
1168:./Drivers/src/stm32f10x_i2c.c ****   else
1169:./Drivers/src/stm32f10x_i2c.c ****   {
1170:./Drivers/src/stm32f10x_i2c.c ****     /* I2C_FLAG is reset */
1171:./Drivers/src/stm32f10x_i2c.c ****     bitstatus = RESET;
1172:./Drivers/src/stm32f10x_i2c.c ****   }
1173:./Drivers/src/stm32f10x_i2c.c ****   
1174:./Drivers/src/stm32f10x_i2c.c ****   /* Return the I2C_FLAG status */
1175:./Drivers/src/stm32f10x_i2c.c ****   return  bitstatus;
 1504              		.loc 1 1175 3 is_stmt 1 view .LVU456
1176:./Drivers/src/stm32f10x_i2c.c **** }
 1505              		.loc 1 1176 1 is_stmt 0 view .LVU457
 1506 0026 02B0     		add	sp, sp, #8
 1507              	.LCFI8:
 1508              		.cfi_remember_state
 1509              		.cfi_def_cfa_offset 0
 1510              		@ sp needed
 1511 0028 7047     		bx	lr
 1512              	.LVL93:
 1513              	.L93:
 1514              	.LCFI9:
 1515              		.cfi_restore_state
1158:./Drivers/src/stm32f10x_i2c.c ****     /* Get the I2Cx SR2 register address */
 1516              		.loc 1 1158 5 is_stmt 1 view .LVU458
1158:./Drivers/src/stm32f10x_i2c.c ****     /* Get the I2Cx SR2 register address */
 1517              		.loc 1 1158 14 is_stmt 0 view .LVU459
 1518 002a 090C     		lsrs	r1, r1, #16
ARM GAS  /tmp/cck3xhcJ.s 			page 48


 1519              	.LVL94:
1160:./Drivers/src/stm32f10x_i2c.c ****   }
 1520              		.loc 1 1160 5 is_stmt 1 view .LVU460
1160:./Drivers/src/stm32f10x_i2c.c ****   }
 1521              		.loc 1 1160 14 is_stmt 0 view .LVU461
 1522 002c 009B     		ldr	r3, [sp]
 1523 002e 1833     		adds	r3, r3, #24
 1524 0030 0093     		str	r3, [sp]
 1525 0032 F3E7     		b	.L94
 1526              	.L96:
1171:./Drivers/src/stm32f10x_i2c.c ****   }
 1527              		.loc 1 1171 15 view .LVU462
 1528 0034 0020     		movs	r0, #0
 1529              	.LVL95:
1171:./Drivers/src/stm32f10x_i2c.c ****   }
 1530              		.loc 1 1171 15 view .LVU463
 1531 0036 F6E7     		b	.L95
 1532              		.cfi_endproc
 1533              	.LFE58:
 1535              		.section	.text.I2C_ClearFlag,"ax",%progbits
 1536              		.align	1
 1537              		.global	I2C_ClearFlag
 1538              		.syntax unified
 1539              		.thumb
 1540              		.thumb_func
 1542              	I2C_ClearFlag:
 1543              	.LVL96:
 1544              	.LFB59:
1177:./Drivers/src/stm32f10x_i2c.c **** 
1178:./Drivers/src/stm32f10x_i2c.c **** 
1179:./Drivers/src/stm32f10x_i2c.c **** 
1180:./Drivers/src/stm32f10x_i2c.c **** /**
1181:./Drivers/src/stm32f10x_i2c.c ****   * @brief  Clears the I2Cx's pending flags.
1182:./Drivers/src/stm32f10x_i2c.c ****   * @param  I2Cx: where x can be 1 or 2 to select the I2C peripheral.
1183:./Drivers/src/stm32f10x_i2c.c ****   * @param  I2C_FLAG: specifies the flag to clear. 
1184:./Drivers/src/stm32f10x_i2c.c ****   *   This parameter can be any combination of the following values:
1185:./Drivers/src/stm32f10x_i2c.c ****   *     @arg I2C_FLAG_SMBALERT: SMBus Alert flag
1186:./Drivers/src/stm32f10x_i2c.c ****   *     @arg I2C_FLAG_TIMEOUT: Timeout or Tlow error flag
1187:./Drivers/src/stm32f10x_i2c.c ****   *     @arg I2C_FLAG_PECERR: PEC error in reception flag
1188:./Drivers/src/stm32f10x_i2c.c ****   *     @arg I2C_FLAG_OVR: Overrun/Underrun flag (Slave mode)
1189:./Drivers/src/stm32f10x_i2c.c ****   *     @arg I2C_FLAG_AF: Acknowledge failure flag
1190:./Drivers/src/stm32f10x_i2c.c ****   *     @arg I2C_FLAG_ARLO: Arbitration lost flag (Master mode)
1191:./Drivers/src/stm32f10x_i2c.c ****   *     @arg I2C_FLAG_BERR: Bus error flag
1192:./Drivers/src/stm32f10x_i2c.c ****   *   
1193:./Drivers/src/stm32f10x_i2c.c ****   * @note
1194:./Drivers/src/stm32f10x_i2c.c ****   *   - STOPF (STOP detection) is cleared by software sequence: a read operation 
1195:./Drivers/src/stm32f10x_i2c.c ****   *     to I2C_SR1 register (I2C_GetFlagStatus()) followed by a write operation 
1196:./Drivers/src/stm32f10x_i2c.c ****   *     to I2C_CR1 register (I2C_Cmd() to re-enable the I2C peripheral).
1197:./Drivers/src/stm32f10x_i2c.c ****   *   - ADD10 (10-bit header sent) is cleared by software sequence: a read 
1198:./Drivers/src/stm32f10x_i2c.c ****   *     operation to I2C_SR1 (I2C_GetFlagStatus()) followed by writing the 
1199:./Drivers/src/stm32f10x_i2c.c ****   *     second byte of the address in DR register.
1200:./Drivers/src/stm32f10x_i2c.c ****   *   - BTF (Byte Transfer Finished) is cleared by software sequence: a read 
1201:./Drivers/src/stm32f10x_i2c.c ****   *     operation to I2C_SR1 register (I2C_GetFlagStatus()) followed by a 
1202:./Drivers/src/stm32f10x_i2c.c ****   *     read/write to I2C_DR register (I2C_SendData()).
1203:./Drivers/src/stm32f10x_i2c.c ****   *   - ADDR (Address sent) is cleared by software sequence: a read operation to 
1204:./Drivers/src/stm32f10x_i2c.c ****   *     I2C_SR1 register (I2C_GetFlagStatus()) followed by a read operation to 
1205:./Drivers/src/stm32f10x_i2c.c ****   *     I2C_SR2 register ((void)(I2Cx->SR2)).
ARM GAS  /tmp/cck3xhcJ.s 			page 49


1206:./Drivers/src/stm32f10x_i2c.c ****   *   - SB (Start Bit) is cleared software sequence: a read operation to I2C_SR1
1207:./Drivers/src/stm32f10x_i2c.c ****   *     register (I2C_GetFlagStatus()) followed by a write operation to I2C_DR
1208:./Drivers/src/stm32f10x_i2c.c ****   *     register  (I2C_SendData()).
1209:./Drivers/src/stm32f10x_i2c.c ****   * @retval None
1210:./Drivers/src/stm32f10x_i2c.c ****   */
1211:./Drivers/src/stm32f10x_i2c.c **** void I2C_ClearFlag(I2C_TypeDef* I2Cx, uint32_t I2C_FLAG)
1212:./Drivers/src/stm32f10x_i2c.c **** {
 1545              		.loc 1 1212 1 is_stmt 1 view -0
 1546              		.cfi_startproc
 1547              		@ args = 0, pretend = 0, frame = 0
 1548              		@ frame_needed = 0, uses_anonymous_args = 0
 1549              		@ link register save eliminated.
1213:./Drivers/src/stm32f10x_i2c.c ****   uint32_t flagpos = 0;
 1550              		.loc 1 1213 3 view .LVU465
1214:./Drivers/src/stm32f10x_i2c.c ****   /* Check the parameters */
1215:./Drivers/src/stm32f10x_i2c.c ****   assert_param(IS_I2C_ALL_PERIPH(I2Cx));
 1551              		.loc 1 1215 3 view .LVU466
1216:./Drivers/src/stm32f10x_i2c.c ****   assert_param(IS_I2C_CLEAR_FLAG(I2C_FLAG));
 1552              		.loc 1 1216 3 view .LVU467
1217:./Drivers/src/stm32f10x_i2c.c ****   /* Get the I2C flag position */
1218:./Drivers/src/stm32f10x_i2c.c ****   flagpos = I2C_FLAG & FLAG_Mask;
 1553              		.loc 1 1218 3 view .LVU468
 1554              		.loc 1 1218 11 is_stmt 0 view .LVU469
 1555 0000 21F07F41 		bic	r1, r1, #-16777216
 1556              	.LVL97:
1219:./Drivers/src/stm32f10x_i2c.c ****   /* Clear the selected I2C flag */
1220:./Drivers/src/stm32f10x_i2c.c ****   I2Cx->SR1 = (uint16_t)~flagpos;
 1557              		.loc 1 1220 3 is_stmt 1 view .LVU470
 1558              		.loc 1 1220 15 is_stmt 0 view .LVU471
 1559 0004 C943     		mvns	r1, r1
 1560              	.LVL98:
 1561              		.loc 1 1220 15 view .LVU472
 1562 0006 89B2     		uxth	r1, r1
 1563              	.LVL99:
 1564              		.loc 1 1220 13 view .LVU473
 1565 0008 8182     		strh	r1, [r0, #20]	@ movhi
1221:./Drivers/src/stm32f10x_i2c.c **** }
 1566              		.loc 1 1221 1 view .LVU474
 1567 000a 7047     		bx	lr
 1568              		.cfi_endproc
 1569              	.LFE59:
 1571              		.section	.text.I2C_GetITStatus,"ax",%progbits
 1572              		.align	1
 1573              		.global	I2C_GetITStatus
 1574              		.syntax unified
 1575              		.thumb
 1576              		.thumb_func
 1578              	I2C_GetITStatus:
 1579              	.LVL100:
 1580              	.LFB60:
1222:./Drivers/src/stm32f10x_i2c.c **** 
1223:./Drivers/src/stm32f10x_i2c.c **** /**
1224:./Drivers/src/stm32f10x_i2c.c ****   * @brief  Checks whether the specified I2C interrupt has occurred or not.
1225:./Drivers/src/stm32f10x_i2c.c ****   * @param  I2Cx: where x can be 1 or 2 to select the I2C peripheral.
1226:./Drivers/src/stm32f10x_i2c.c ****   * @param  I2C_IT: specifies the interrupt source to check. 
1227:./Drivers/src/stm32f10x_i2c.c ****   *   This parameter can be one of the following values:
1228:./Drivers/src/stm32f10x_i2c.c ****   *     @arg I2C_IT_SMBALERT: SMBus Alert flag
ARM GAS  /tmp/cck3xhcJ.s 			page 50


1229:./Drivers/src/stm32f10x_i2c.c ****   *     @arg I2C_IT_TIMEOUT: Timeout or Tlow error flag
1230:./Drivers/src/stm32f10x_i2c.c ****   *     @arg I2C_IT_PECERR: PEC error in reception flag
1231:./Drivers/src/stm32f10x_i2c.c ****   *     @arg I2C_IT_OVR: Overrun/Underrun flag (Slave mode)
1232:./Drivers/src/stm32f10x_i2c.c ****   *     @arg I2C_IT_AF: Acknowledge failure flag
1233:./Drivers/src/stm32f10x_i2c.c ****   *     @arg I2C_IT_ARLO: Arbitration lost flag (Master mode)
1234:./Drivers/src/stm32f10x_i2c.c ****   *     @arg I2C_IT_BERR: Bus error flag
1235:./Drivers/src/stm32f10x_i2c.c ****   *     @arg I2C_IT_TXE: Data register empty flag (Transmitter)
1236:./Drivers/src/stm32f10x_i2c.c ****   *     @arg I2C_IT_RXNE: Data register not empty (Receiver) flag
1237:./Drivers/src/stm32f10x_i2c.c ****   *     @arg I2C_IT_STOPF: Stop detection flag (Slave mode)
1238:./Drivers/src/stm32f10x_i2c.c ****   *     @arg I2C_IT_ADD10: 10-bit header sent flag (Master mode)
1239:./Drivers/src/stm32f10x_i2c.c ****   *     @arg I2C_IT_BTF: Byte transfer finished flag
1240:./Drivers/src/stm32f10x_i2c.c ****   *     @arg I2C_IT_ADDR: Address sent flag (Master mode) "ADSL"
1241:./Drivers/src/stm32f10x_i2c.c ****   *                       Address matched flag (Slave mode)"ENDAD"
1242:./Drivers/src/stm32f10x_i2c.c ****   *     @arg I2C_IT_SB: Start bit flag (Master mode)
1243:./Drivers/src/stm32f10x_i2c.c ****   * @retval The new state of I2C_IT (SET or RESET).
1244:./Drivers/src/stm32f10x_i2c.c ****   */
1245:./Drivers/src/stm32f10x_i2c.c **** ITStatus I2C_GetITStatus(I2C_TypeDef* I2Cx, uint32_t I2C_IT)
1246:./Drivers/src/stm32f10x_i2c.c **** {
 1581              		.loc 1 1246 1 is_stmt 1 view -0
 1582              		.cfi_startproc
 1583              		@ args = 0, pretend = 0, frame = 0
 1584              		@ frame_needed = 0, uses_anonymous_args = 0
 1585              		@ link register save eliminated.
1247:./Drivers/src/stm32f10x_i2c.c ****   ITStatus bitstatus = RESET;
 1586              		.loc 1 1247 3 view .LVU476
1248:./Drivers/src/stm32f10x_i2c.c ****   uint32_t enablestatus = 0;
 1587              		.loc 1 1248 3 view .LVU477
1249:./Drivers/src/stm32f10x_i2c.c **** 
1250:./Drivers/src/stm32f10x_i2c.c ****   /* Check the parameters */
1251:./Drivers/src/stm32f10x_i2c.c ****   assert_param(IS_I2C_ALL_PERIPH(I2Cx));
 1588              		.loc 1 1251 3 view .LVU478
1252:./Drivers/src/stm32f10x_i2c.c ****   assert_param(IS_I2C_GET_IT(I2C_IT));
 1589              		.loc 1 1252 3 view .LVU479
1253:./Drivers/src/stm32f10x_i2c.c **** 
1254:./Drivers/src/stm32f10x_i2c.c ****   /* Check if the interrupt source is enabled or not */
1255:./Drivers/src/stm32f10x_i2c.c ****   enablestatus = (uint32_t)(((I2C_IT & ITEN_Mask) >> 16) & (I2Cx->CR2)) ;
 1590              		.loc 1 1255 3 view .LVU480
 1591              		.loc 1 1255 65 is_stmt 0 view .LVU481
 1592 0000 8388     		ldrh	r3, [r0, #4]
 1593              		.loc 1 1255 18 view .LVU482
 1594 0002 03EA1143 		and	r3, r3, r1, lsr #16
 1595              		.loc 1 1255 16 view .LVU483
 1596 0006 03F4E063 		and	r3, r3, #1792
 1597              	.LVL101:
1256:./Drivers/src/stm32f10x_i2c.c ****   
1257:./Drivers/src/stm32f10x_i2c.c ****   /* Get bit[23:0] of the flag */
1258:./Drivers/src/stm32f10x_i2c.c ****   I2C_IT &= FLAG_Mask;
 1598              		.loc 1 1258 3 is_stmt 1 view .LVU484
1259:./Drivers/src/stm32f10x_i2c.c **** 
1260:./Drivers/src/stm32f10x_i2c.c ****   /* Check the status of the specified I2C flag */
1261:./Drivers/src/stm32f10x_i2c.c ****   if (((I2Cx->SR1 & I2C_IT) != (uint32_t)RESET) && enablestatus)
 1599              		.loc 1 1261 3 view .LVU485
 1600              		.loc 1 1261 13 is_stmt 0 view .LVU486
 1601 000a 828A     		ldrh	r2, [r0, #20]
 1602 000c 92B2     		uxth	r2, r2
 1603              		.loc 1 1261 6 view .LVU487
 1604 000e 1142     		tst	r1, r2
ARM GAS  /tmp/cck3xhcJ.s 			page 51


 1605 0010 02D0     		beq	.L101
 1606              		.loc 1 1261 49 discriminator 1 view .LVU488
 1607 0012 1BB9     		cbnz	r3, .L102
1262:./Drivers/src/stm32f10x_i2c.c ****   {
1263:./Drivers/src/stm32f10x_i2c.c ****     /* I2C_IT is set */
1264:./Drivers/src/stm32f10x_i2c.c ****     bitstatus = SET;
1265:./Drivers/src/stm32f10x_i2c.c ****   }
1266:./Drivers/src/stm32f10x_i2c.c ****   else
1267:./Drivers/src/stm32f10x_i2c.c ****   {
1268:./Drivers/src/stm32f10x_i2c.c ****     /* I2C_IT is reset */
1269:./Drivers/src/stm32f10x_i2c.c ****     bitstatus = RESET;
 1608              		.loc 1 1269 15 view .LVU489
 1609 0014 0020     		movs	r0, #0
 1610              	.LVL102:
 1611              		.loc 1 1269 15 view .LVU490
 1612 0016 7047     		bx	lr
 1613              	.LVL103:
 1614              	.L101:
 1615              		.loc 1 1269 15 view .LVU491
 1616 0018 0020     		movs	r0, #0
 1617              	.LVL104:
 1618              		.loc 1 1269 15 view .LVU492
 1619 001a 7047     		bx	lr
 1620              	.LVL105:
 1621              	.L102:
1264:./Drivers/src/stm32f10x_i2c.c ****   }
 1622              		.loc 1 1264 15 view .LVU493
 1623 001c 0120     		movs	r0, #1
 1624              	.LVL106:
1270:./Drivers/src/stm32f10x_i2c.c ****   }
1271:./Drivers/src/stm32f10x_i2c.c ****   /* Return the I2C_IT status */
1272:./Drivers/src/stm32f10x_i2c.c ****   return  bitstatus;
 1625              		.loc 1 1272 3 is_stmt 1 view .LVU494
1273:./Drivers/src/stm32f10x_i2c.c **** }
 1626              		.loc 1 1273 1 is_stmt 0 view .LVU495
 1627 001e 7047     		bx	lr
 1628              		.cfi_endproc
 1629              	.LFE60:
 1631              		.section	.text.I2C_ClearITPendingBit,"ax",%progbits
 1632              		.align	1
 1633              		.global	I2C_ClearITPendingBit
 1634              		.syntax unified
 1635              		.thumb
 1636              		.thumb_func
 1638              	I2C_ClearITPendingBit:
 1639              	.LVL107:
 1640              	.LFB61:
1274:./Drivers/src/stm32f10x_i2c.c **** 
1275:./Drivers/src/stm32f10x_i2c.c **** /**
1276:./Drivers/src/stm32f10x_i2c.c ****   * @brief  Clears the I2Cxs interrupt pending bits.
1277:./Drivers/src/stm32f10x_i2c.c ****   * @param  I2Cx: where x can be 1 or 2 to select the I2C peripheral.
1278:./Drivers/src/stm32f10x_i2c.c ****   * @param  I2C_IT: specifies the interrupt pending bit to clear. 
1279:./Drivers/src/stm32f10x_i2c.c ****   *   This parameter can be any combination of the following values:
1280:./Drivers/src/stm32f10x_i2c.c ****   *     @arg I2C_IT_SMBALERT: SMBus Alert interrupt
1281:./Drivers/src/stm32f10x_i2c.c ****   *     @arg I2C_IT_TIMEOUT: Timeout or Tlow error interrupt
1282:./Drivers/src/stm32f10x_i2c.c ****   *     @arg I2C_IT_PECERR: PEC error in reception  interrupt
1283:./Drivers/src/stm32f10x_i2c.c ****   *     @arg I2C_IT_OVR: Overrun/Underrun interrupt (Slave mode)
ARM GAS  /tmp/cck3xhcJ.s 			page 52


1284:./Drivers/src/stm32f10x_i2c.c ****   *     @arg I2C_IT_AF: Acknowledge failure interrupt
1285:./Drivers/src/stm32f10x_i2c.c ****   *     @arg I2C_IT_ARLO: Arbitration lost interrupt (Master mode)
1286:./Drivers/src/stm32f10x_i2c.c ****   *     @arg I2C_IT_BERR: Bus error interrupt
1287:./Drivers/src/stm32f10x_i2c.c ****   *   
1288:./Drivers/src/stm32f10x_i2c.c ****   * @note
1289:./Drivers/src/stm32f10x_i2c.c ****   *   - STOPF (STOP detection) is cleared by software sequence: a read operation 
1290:./Drivers/src/stm32f10x_i2c.c ****   *     to I2C_SR1 register (I2C_GetITStatus()) followed by a write operation to 
1291:./Drivers/src/stm32f10x_i2c.c ****   *     I2C_CR1 register (I2C_Cmd() to re-enable the I2C peripheral).
1292:./Drivers/src/stm32f10x_i2c.c ****   *   - ADD10 (10-bit header sent) is cleared by software sequence: a read 
1293:./Drivers/src/stm32f10x_i2c.c ****   *     operation to I2C_SR1 (I2C_GetITStatus()) followed by writing the second 
1294:./Drivers/src/stm32f10x_i2c.c ****   *     byte of the address in I2C_DR register.
1295:./Drivers/src/stm32f10x_i2c.c ****   *   - BTF (Byte Transfer Finished) is cleared by software sequence: a read 
1296:./Drivers/src/stm32f10x_i2c.c ****   *     operation to I2C_SR1 register (I2C_GetITStatus()) followed by a 
1297:./Drivers/src/stm32f10x_i2c.c ****   *     read/write to I2C_DR register (I2C_SendData()).
1298:./Drivers/src/stm32f10x_i2c.c ****   *   - ADDR (Address sent) is cleared by software sequence: a read operation to 
1299:./Drivers/src/stm32f10x_i2c.c ****   *     I2C_SR1 register (I2C_GetITStatus()) followed by a read operation to 
1300:./Drivers/src/stm32f10x_i2c.c ****   *     I2C_SR2 register ((void)(I2Cx->SR2)).
1301:./Drivers/src/stm32f10x_i2c.c ****   *   - SB (Start Bit) is cleared by software sequence: a read operation to 
1302:./Drivers/src/stm32f10x_i2c.c ****   *     I2C_SR1 register (I2C_GetITStatus()) followed by a write operation to 
1303:./Drivers/src/stm32f10x_i2c.c ****   *     I2C_DR register (I2C_SendData()).
1304:./Drivers/src/stm32f10x_i2c.c ****   * @retval None
1305:./Drivers/src/stm32f10x_i2c.c ****   */
1306:./Drivers/src/stm32f10x_i2c.c **** void I2C_ClearITPendingBit(I2C_TypeDef* I2Cx, uint32_t I2C_IT)
1307:./Drivers/src/stm32f10x_i2c.c **** {
 1641              		.loc 1 1307 1 is_stmt 1 view -0
 1642              		.cfi_startproc
 1643              		@ args = 0, pretend = 0, frame = 0
 1644              		@ frame_needed = 0, uses_anonymous_args = 0
 1645              		@ link register save eliminated.
1308:./Drivers/src/stm32f10x_i2c.c ****   uint32_t flagpos = 0;
 1646              		.loc 1 1308 3 view .LVU497
1309:./Drivers/src/stm32f10x_i2c.c ****   /* Check the parameters */
1310:./Drivers/src/stm32f10x_i2c.c ****   assert_param(IS_I2C_ALL_PERIPH(I2Cx));
 1647              		.loc 1 1310 3 view .LVU498
1311:./Drivers/src/stm32f10x_i2c.c ****   assert_param(IS_I2C_CLEAR_IT(I2C_IT));
 1648              		.loc 1 1311 3 view .LVU499
1312:./Drivers/src/stm32f10x_i2c.c ****   /* Get the I2C flag position */
1313:./Drivers/src/stm32f10x_i2c.c ****   flagpos = I2C_IT & FLAG_Mask;
 1649              		.loc 1 1313 3 view .LVU500
 1650              		.loc 1 1313 11 is_stmt 0 view .LVU501
 1651 0000 21F07F41 		bic	r1, r1, #-16777216
 1652              	.LVL108:
1314:./Drivers/src/stm32f10x_i2c.c ****   /* Clear the selected I2C flag */
1315:./Drivers/src/stm32f10x_i2c.c ****   I2Cx->SR1 = (uint16_t)~flagpos;
 1653              		.loc 1 1315 3 is_stmt 1 view .LVU502
 1654              		.loc 1 1315 15 is_stmt 0 view .LVU503
 1655 0004 C943     		mvns	r1, r1
 1656              	.LVL109:
 1657              		.loc 1 1315 15 view .LVU504
 1658 0006 89B2     		uxth	r1, r1
 1659              	.LVL110:
 1660              		.loc 1 1315 13 view .LVU505
 1661 0008 8182     		strh	r1, [r0, #20]	@ movhi
1316:./Drivers/src/stm32f10x_i2c.c **** }
 1662              		.loc 1 1316 1 view .LVU506
 1663 000a 7047     		bx	lr
 1664              		.cfi_endproc
ARM GAS  /tmp/cck3xhcJ.s 			page 53


 1665              	.LFE61:
 1667              		.text
 1668              	.Letext0:
 1669              		.file 2 "/usr/arm-none-eabi/include/machine/_default_types.h"
 1670              		.file 3 "/usr/arm-none-eabi/include/sys/_stdint.h"
 1671              		.file 4 "cmsis/stm32f10x.h"
 1672              		.file 5 "Drivers/inc/stm32f10x_rcc.h"
 1673              		.file 6 "Drivers/inc/stm32f10x_i2c.h"
ARM GAS  /tmp/cck3xhcJ.s 			page 54

