ARM GAS  /tmp/cc8GAdzf.s 			page 1


   1              		.cpu cortex-m3
   2              		.arch armv7-m
   3              		.fpu softvfp
   4              		.eabi_attribute 20, 1
   5              		.eabi_attribute 21, 1
   6              		.eabi_attribute 23, 3
   7              		.eabi_attribute 24, 1
   8              		.eabi_attribute 25, 1
   9              		.eabi_attribute 26, 1
  10              		.eabi_attribute 30, 1
  11              		.eabi_attribute 34, 1
  12              		.eabi_attribute 18, 4
  13              		.file	"stm32f10x_bkp.c"
  14              		.text
  15              	.Ltext0:
  16              		.cfi_sections	.debug_frame
  17              		.file 1 "./Drivers/src/stm32f10x_bkp.c"
  18              		.section	.text.BKP_DeInit,"ax",%progbits
  19              		.align	1
  20              		.global	BKP_DeInit
  21              		.syntax unified
  22              		.thumb
  23              		.thumb_func
  25              	BKP_DeInit:
  26              	.LFB29:
   1:./Drivers/src/stm32f10x_bkp.c **** /**
   2:./Drivers/src/stm32f10x_bkp.c ****   ******************************************************************************
   3:./Drivers/src/stm32f10x_bkp.c ****   * @file    stm32f10x_bkp.c
   4:./Drivers/src/stm32f10x_bkp.c ****   * @author  MCD Application Team
   5:./Drivers/src/stm32f10x_bkp.c ****   * @version V3.6.2
   6:./Drivers/src/stm32f10x_bkp.c ****   * @date    17-September-2021
   7:./Drivers/src/stm32f10x_bkp.c ****   * @brief   This file provides all the BKP firmware functions.
   8:./Drivers/src/stm32f10x_bkp.c ****   ******************************************************************************
   9:./Drivers/src/stm32f10x_bkp.c ****   * @attention
  10:./Drivers/src/stm32f10x_bkp.c ****   *
  11:./Drivers/src/stm32f10x_bkp.c ****   * Copyright (c) 2012 STMicroelectronics.
  12:./Drivers/src/stm32f10x_bkp.c ****   * All rights reserved.
  13:./Drivers/src/stm32f10x_bkp.c ****   *
  14:./Drivers/src/stm32f10x_bkp.c ****   * This software is licensed under terms that can be found in the LICENSE file
  15:./Drivers/src/stm32f10x_bkp.c ****   * in the root directory of this software component.
  16:./Drivers/src/stm32f10x_bkp.c ****   * If no LICENSE file comes with this software, it is provided AS-IS.
  17:./Drivers/src/stm32f10x_bkp.c ****   *
  18:./Drivers/src/stm32f10x_bkp.c ****   ******************************************************************************
  19:./Drivers/src/stm32f10x_bkp.c ****   */
  20:./Drivers/src/stm32f10x_bkp.c **** 
  21:./Drivers/src/stm32f10x_bkp.c **** /* Includes ------------------------------------------------------------------*/
  22:./Drivers/src/stm32f10x_bkp.c **** #include "stm32f10x_bkp.h"
  23:./Drivers/src/stm32f10x_bkp.c **** #include "stm32f10x_rcc.h"
  24:./Drivers/src/stm32f10x_bkp.c **** 
  25:./Drivers/src/stm32f10x_bkp.c **** /** @addtogroup STM32F10x_StdPeriph_Driver
  26:./Drivers/src/stm32f10x_bkp.c ****   * @{
  27:./Drivers/src/stm32f10x_bkp.c ****   */
  28:./Drivers/src/stm32f10x_bkp.c **** 
  29:./Drivers/src/stm32f10x_bkp.c **** /** @defgroup BKP 
  30:./Drivers/src/stm32f10x_bkp.c ****   * @brief BKP driver modules
  31:./Drivers/src/stm32f10x_bkp.c ****   * @{
  32:./Drivers/src/stm32f10x_bkp.c ****   */
ARM GAS  /tmp/cc8GAdzf.s 			page 2


  33:./Drivers/src/stm32f10x_bkp.c **** 
  34:./Drivers/src/stm32f10x_bkp.c **** /** @defgroup BKP_Private_TypesDefinitions
  35:./Drivers/src/stm32f10x_bkp.c ****   * @{
  36:./Drivers/src/stm32f10x_bkp.c ****   */
  37:./Drivers/src/stm32f10x_bkp.c **** 
  38:./Drivers/src/stm32f10x_bkp.c **** /**
  39:./Drivers/src/stm32f10x_bkp.c ****   * @}
  40:./Drivers/src/stm32f10x_bkp.c ****   */
  41:./Drivers/src/stm32f10x_bkp.c **** 
  42:./Drivers/src/stm32f10x_bkp.c **** /** @defgroup BKP_Private_Defines
  43:./Drivers/src/stm32f10x_bkp.c ****   * @{
  44:./Drivers/src/stm32f10x_bkp.c ****   */
  45:./Drivers/src/stm32f10x_bkp.c **** 
  46:./Drivers/src/stm32f10x_bkp.c **** /* ------------ BKP registers bit address in the alias region --------------- */
  47:./Drivers/src/stm32f10x_bkp.c **** #define BKP_OFFSET        (BKP_BASE - PERIPH_BASE)
  48:./Drivers/src/stm32f10x_bkp.c **** 
  49:./Drivers/src/stm32f10x_bkp.c **** /* --- CR Register ----*/
  50:./Drivers/src/stm32f10x_bkp.c **** 
  51:./Drivers/src/stm32f10x_bkp.c **** /* Alias word address of TPAL bit */
  52:./Drivers/src/stm32f10x_bkp.c **** #define CR_OFFSET         (BKP_OFFSET + 0x30)
  53:./Drivers/src/stm32f10x_bkp.c **** #define TPAL_BitNumber    0x01
  54:./Drivers/src/stm32f10x_bkp.c **** #define CR_TPAL_BB        (PERIPH_BB_BASE + (CR_OFFSET * 32) + (TPAL_BitNumber * 4))
  55:./Drivers/src/stm32f10x_bkp.c **** 
  56:./Drivers/src/stm32f10x_bkp.c **** /* Alias word address of TPE bit */
  57:./Drivers/src/stm32f10x_bkp.c **** #define TPE_BitNumber     0x00
  58:./Drivers/src/stm32f10x_bkp.c **** #define CR_TPE_BB         (PERIPH_BB_BASE + (CR_OFFSET * 32) + (TPE_BitNumber * 4))
  59:./Drivers/src/stm32f10x_bkp.c **** 
  60:./Drivers/src/stm32f10x_bkp.c **** /* --- CSR Register ---*/
  61:./Drivers/src/stm32f10x_bkp.c **** 
  62:./Drivers/src/stm32f10x_bkp.c **** /* Alias word address of TPIE bit */
  63:./Drivers/src/stm32f10x_bkp.c **** #define CSR_OFFSET        (BKP_OFFSET + 0x34)
  64:./Drivers/src/stm32f10x_bkp.c **** #define TPIE_BitNumber    0x02
  65:./Drivers/src/stm32f10x_bkp.c **** #define CSR_TPIE_BB       (PERIPH_BB_BASE + (CSR_OFFSET * 32) + (TPIE_BitNumber * 4))
  66:./Drivers/src/stm32f10x_bkp.c **** 
  67:./Drivers/src/stm32f10x_bkp.c **** /* Alias word address of TIF bit */
  68:./Drivers/src/stm32f10x_bkp.c **** #define TIF_BitNumber     0x09
  69:./Drivers/src/stm32f10x_bkp.c **** #define CSR_TIF_BB        (PERIPH_BB_BASE + (CSR_OFFSET * 32) + (TIF_BitNumber * 4))
  70:./Drivers/src/stm32f10x_bkp.c **** 
  71:./Drivers/src/stm32f10x_bkp.c **** /* Alias word address of TEF bit */
  72:./Drivers/src/stm32f10x_bkp.c **** #define TEF_BitNumber     0x08
  73:./Drivers/src/stm32f10x_bkp.c **** #define CSR_TEF_BB        (PERIPH_BB_BASE + (CSR_OFFSET * 32) + (TEF_BitNumber * 4))
  74:./Drivers/src/stm32f10x_bkp.c **** 
  75:./Drivers/src/stm32f10x_bkp.c **** /* ---------------------- BKP registers bit mask ------------------------ */
  76:./Drivers/src/stm32f10x_bkp.c **** 
  77:./Drivers/src/stm32f10x_bkp.c **** /* RTCCR register bit mask */
  78:./Drivers/src/stm32f10x_bkp.c **** #define RTCCR_CAL_MASK    ((uint16_t)0xFF80)
  79:./Drivers/src/stm32f10x_bkp.c **** #define RTCCR_MASK        ((uint16_t)0xFC7F)
  80:./Drivers/src/stm32f10x_bkp.c **** 
  81:./Drivers/src/stm32f10x_bkp.c **** /**
  82:./Drivers/src/stm32f10x_bkp.c ****   * @}
  83:./Drivers/src/stm32f10x_bkp.c ****   */ 
  84:./Drivers/src/stm32f10x_bkp.c **** 
  85:./Drivers/src/stm32f10x_bkp.c **** 
  86:./Drivers/src/stm32f10x_bkp.c **** /** @defgroup BKP_Private_Macros
  87:./Drivers/src/stm32f10x_bkp.c ****   * @{
  88:./Drivers/src/stm32f10x_bkp.c ****   */
  89:./Drivers/src/stm32f10x_bkp.c **** 
ARM GAS  /tmp/cc8GAdzf.s 			page 3


  90:./Drivers/src/stm32f10x_bkp.c **** /**
  91:./Drivers/src/stm32f10x_bkp.c ****   * @}
  92:./Drivers/src/stm32f10x_bkp.c ****   */
  93:./Drivers/src/stm32f10x_bkp.c **** 
  94:./Drivers/src/stm32f10x_bkp.c **** /** @defgroup BKP_Private_Variables
  95:./Drivers/src/stm32f10x_bkp.c ****   * @{
  96:./Drivers/src/stm32f10x_bkp.c ****   */
  97:./Drivers/src/stm32f10x_bkp.c **** 
  98:./Drivers/src/stm32f10x_bkp.c **** /**
  99:./Drivers/src/stm32f10x_bkp.c ****   * @}
 100:./Drivers/src/stm32f10x_bkp.c ****   */
 101:./Drivers/src/stm32f10x_bkp.c **** 
 102:./Drivers/src/stm32f10x_bkp.c **** /** @defgroup BKP_Private_FunctionPrototypes
 103:./Drivers/src/stm32f10x_bkp.c ****   * @{
 104:./Drivers/src/stm32f10x_bkp.c ****   */
 105:./Drivers/src/stm32f10x_bkp.c **** 
 106:./Drivers/src/stm32f10x_bkp.c **** /**
 107:./Drivers/src/stm32f10x_bkp.c ****   * @}
 108:./Drivers/src/stm32f10x_bkp.c ****   */
 109:./Drivers/src/stm32f10x_bkp.c **** 
 110:./Drivers/src/stm32f10x_bkp.c **** /** @defgroup BKP_Private_Functions
 111:./Drivers/src/stm32f10x_bkp.c ****   * @{
 112:./Drivers/src/stm32f10x_bkp.c ****   */
 113:./Drivers/src/stm32f10x_bkp.c **** 
 114:./Drivers/src/stm32f10x_bkp.c **** /**
 115:./Drivers/src/stm32f10x_bkp.c ****   * @brief  Deinitializes the BKP peripheral registers to their default reset values.
 116:./Drivers/src/stm32f10x_bkp.c ****   * @param  None
 117:./Drivers/src/stm32f10x_bkp.c ****   * @retval None
 118:./Drivers/src/stm32f10x_bkp.c ****   */
 119:./Drivers/src/stm32f10x_bkp.c **** void BKP_DeInit(void)
 120:./Drivers/src/stm32f10x_bkp.c **** {
  27              		.loc 1 120 1 view -0
  28              		.cfi_startproc
  29              		@ args = 0, pretend = 0, frame = 0
  30              		@ frame_needed = 0, uses_anonymous_args = 0
  31 0000 08B5     		push	{r3, lr}
  32              	.LCFI0:
  33              		.cfi_def_cfa_offset 8
  34              		.cfi_offset 3, -8
  35              		.cfi_offset 14, -4
 121:./Drivers/src/stm32f10x_bkp.c ****   RCC_BackupResetCmd(ENABLE);
  36              		.loc 1 121 3 view .LVU1
  37 0002 0120     		movs	r0, #1
  38 0004 FFF7FEFF 		bl	RCC_BackupResetCmd
  39              	.LVL0:
 122:./Drivers/src/stm32f10x_bkp.c ****   RCC_BackupResetCmd(DISABLE);
  40              		.loc 1 122 3 view .LVU2
  41 0008 0020     		movs	r0, #0
  42 000a FFF7FEFF 		bl	RCC_BackupResetCmd
  43              	.LVL1:
 123:./Drivers/src/stm32f10x_bkp.c **** }
  44              		.loc 1 123 1 is_stmt 0 view .LVU3
  45 000e 08BD     		pop	{r3, pc}
  46              		.cfi_endproc
  47              	.LFE29:
  49              		.section	.text.BKP_TamperPinLevelConfig,"ax",%progbits
  50              		.align	1
ARM GAS  /tmp/cc8GAdzf.s 			page 4


  51              		.global	BKP_TamperPinLevelConfig
  52              		.syntax unified
  53              		.thumb
  54              		.thumb_func
  56              	BKP_TamperPinLevelConfig:
  57              	.LVL2:
  58              	.LFB30:
 124:./Drivers/src/stm32f10x_bkp.c **** 
 125:./Drivers/src/stm32f10x_bkp.c **** /**
 126:./Drivers/src/stm32f10x_bkp.c ****   * @brief  Configures the Tamper Pin active level.
 127:./Drivers/src/stm32f10x_bkp.c ****   * @param  BKP_TamperPinLevel: specifies the Tamper Pin active level.
 128:./Drivers/src/stm32f10x_bkp.c ****   *   This parameter can be one of the following values:
 129:./Drivers/src/stm32f10x_bkp.c ****   *     @arg BKP_TamperPinLevel_High: Tamper pin active on high level
 130:./Drivers/src/stm32f10x_bkp.c ****   *     @arg BKP_TamperPinLevel_Low: Tamper pin active on low level
 131:./Drivers/src/stm32f10x_bkp.c ****   * @retval None
 132:./Drivers/src/stm32f10x_bkp.c ****   */
 133:./Drivers/src/stm32f10x_bkp.c **** void BKP_TamperPinLevelConfig(uint16_t BKP_TamperPinLevel)
 134:./Drivers/src/stm32f10x_bkp.c **** {
  59              		.loc 1 134 1 is_stmt 1 view -0
  60              		.cfi_startproc
  61              		@ args = 0, pretend = 0, frame = 0
  62              		@ frame_needed = 0, uses_anonymous_args = 0
  63              		@ link register save eliminated.
 135:./Drivers/src/stm32f10x_bkp.c ****   /* Check the parameters */
 136:./Drivers/src/stm32f10x_bkp.c ****   assert_param(IS_BKP_TAMPER_PIN_LEVEL(BKP_TamperPinLevel));
  64              		.loc 1 136 3 view .LVU5
 137:./Drivers/src/stm32f10x_bkp.c ****   *(__IO uint32_t *) CR_TPAL_BB = BKP_TamperPinLevel;
  65              		.loc 1 137 3 view .LVU6
  66              		.loc 1 137 33 is_stmt 0 view .LVU7
  67 0000 014B     		ldr	r3, .L4
  68 0002 C3F80406 		str	r0, [r3, #1540]
 138:./Drivers/src/stm32f10x_bkp.c **** }
  69              		.loc 1 138 1 view .LVU8
  70 0006 7047     		bx	lr
  71              	.L5:
  72              		.align	2
  73              	.L4:
  74 0008 00800D42 		.word	1108180992
  75              		.cfi_endproc
  76              	.LFE30:
  78              		.section	.text.BKP_TamperPinCmd,"ax",%progbits
  79              		.align	1
  80              		.global	BKP_TamperPinCmd
  81              		.syntax unified
  82              		.thumb
  83              		.thumb_func
  85              	BKP_TamperPinCmd:
  86              	.LVL3:
  87              	.LFB31:
 139:./Drivers/src/stm32f10x_bkp.c **** 
 140:./Drivers/src/stm32f10x_bkp.c **** /**
 141:./Drivers/src/stm32f10x_bkp.c ****   * @brief  Enables or disables the Tamper Pin activation.
 142:./Drivers/src/stm32f10x_bkp.c ****   * @param  NewState: new state of the Tamper Pin activation.
 143:./Drivers/src/stm32f10x_bkp.c ****   *   This parameter can be: ENABLE or DISABLE.
 144:./Drivers/src/stm32f10x_bkp.c ****   * @retval None
 145:./Drivers/src/stm32f10x_bkp.c ****   */
 146:./Drivers/src/stm32f10x_bkp.c **** void BKP_TamperPinCmd(FunctionalState NewState)
ARM GAS  /tmp/cc8GAdzf.s 			page 5


 147:./Drivers/src/stm32f10x_bkp.c **** {
  88              		.loc 1 147 1 is_stmt 1 view -0
  89              		.cfi_startproc
  90              		@ args = 0, pretend = 0, frame = 0
  91              		@ frame_needed = 0, uses_anonymous_args = 0
  92              		@ link register save eliminated.
 148:./Drivers/src/stm32f10x_bkp.c ****   /* Check the parameters */
 149:./Drivers/src/stm32f10x_bkp.c ****   assert_param(IS_FUNCTIONAL_STATE(NewState));
  93              		.loc 1 149 3 view .LVU10
 150:./Drivers/src/stm32f10x_bkp.c ****   *(__IO uint32_t *) CR_TPE_BB = (uint32_t)NewState;
  94              		.loc 1 150 3 view .LVU11
  95              		.loc 1 150 32 is_stmt 0 view .LVU12
  96 0000 014B     		ldr	r3, .L7
  97 0002 C3F80006 		str	r0, [r3, #1536]
 151:./Drivers/src/stm32f10x_bkp.c **** }
  98              		.loc 1 151 1 view .LVU13
  99 0006 7047     		bx	lr
 100              	.L8:
 101              		.align	2
 102              	.L7:
 103 0008 00800D42 		.word	1108180992
 104              		.cfi_endproc
 105              	.LFE31:
 107              		.section	.text.BKP_ITConfig,"ax",%progbits
 108              		.align	1
 109              		.global	BKP_ITConfig
 110              		.syntax unified
 111              		.thumb
 112              		.thumb_func
 114              	BKP_ITConfig:
 115              	.LVL4:
 116              	.LFB32:
 152:./Drivers/src/stm32f10x_bkp.c **** 
 153:./Drivers/src/stm32f10x_bkp.c **** /**
 154:./Drivers/src/stm32f10x_bkp.c ****   * @brief  Enables or disables the Tamper Pin Interrupt.
 155:./Drivers/src/stm32f10x_bkp.c ****   * @param  NewState: new state of the Tamper Pin Interrupt.
 156:./Drivers/src/stm32f10x_bkp.c ****   *   This parameter can be: ENABLE or DISABLE.
 157:./Drivers/src/stm32f10x_bkp.c ****   * @retval None
 158:./Drivers/src/stm32f10x_bkp.c ****   */
 159:./Drivers/src/stm32f10x_bkp.c **** void BKP_ITConfig(FunctionalState NewState)
 160:./Drivers/src/stm32f10x_bkp.c **** {
 117              		.loc 1 160 1 is_stmt 1 view -0
 118              		.cfi_startproc
 119              		@ args = 0, pretend = 0, frame = 0
 120              		@ frame_needed = 0, uses_anonymous_args = 0
 121              		@ link register save eliminated.
 161:./Drivers/src/stm32f10x_bkp.c ****   /* Check the parameters */
 162:./Drivers/src/stm32f10x_bkp.c ****   assert_param(IS_FUNCTIONAL_STATE(NewState));
 122              		.loc 1 162 3 view .LVU15
 163:./Drivers/src/stm32f10x_bkp.c ****   *(__IO uint32_t *) CSR_TPIE_BB = (uint32_t)NewState;
 123              		.loc 1 163 3 view .LVU16
 124              		.loc 1 163 34 is_stmt 0 view .LVU17
 125 0000 014B     		ldr	r3, .L10
 126 0002 C3F88806 		str	r0, [r3, #1672]
 164:./Drivers/src/stm32f10x_bkp.c **** }
 127              		.loc 1 164 1 view .LVU18
 128 0006 7047     		bx	lr
ARM GAS  /tmp/cc8GAdzf.s 			page 6


 129              	.L11:
 130              		.align	2
 131              	.L10:
 132 0008 00800D42 		.word	1108180992
 133              		.cfi_endproc
 134              	.LFE32:
 136              		.section	.text.BKP_RTCOutputConfig,"ax",%progbits
 137              		.align	1
 138              		.global	BKP_RTCOutputConfig
 139              		.syntax unified
 140              		.thumb
 141              		.thumb_func
 143              	BKP_RTCOutputConfig:
 144              	.LVL5:
 145              	.LFB33:
 165:./Drivers/src/stm32f10x_bkp.c **** 
 166:./Drivers/src/stm32f10x_bkp.c **** /**
 167:./Drivers/src/stm32f10x_bkp.c ****   * @brief  Select the RTC output source to output on the Tamper pin.
 168:./Drivers/src/stm32f10x_bkp.c ****   * @param  BKP_RTCOutputSource: specifies the RTC output source.
 169:./Drivers/src/stm32f10x_bkp.c ****   *   This parameter can be one of the following values:
 170:./Drivers/src/stm32f10x_bkp.c ****   *     @arg BKP_RTCOutputSource_None: no RTC output on the Tamper pin.
 171:./Drivers/src/stm32f10x_bkp.c ****   *     @arg BKP_RTCOutputSource_CalibClock: output the RTC clock with frequency
 172:./Drivers/src/stm32f10x_bkp.c ****   *                                          divided by 64 on the Tamper pin.
 173:./Drivers/src/stm32f10x_bkp.c ****   *     @arg BKP_RTCOutputSource_Alarm: output the RTC Alarm pulse signal on
 174:./Drivers/src/stm32f10x_bkp.c ****   *                                     the Tamper pin.
 175:./Drivers/src/stm32f10x_bkp.c ****   *     @arg BKP_RTCOutputSource_Second: output the RTC Second pulse signal on
 176:./Drivers/src/stm32f10x_bkp.c ****   *                                      the Tamper pin.  
 177:./Drivers/src/stm32f10x_bkp.c ****   * @retval None
 178:./Drivers/src/stm32f10x_bkp.c ****   */
 179:./Drivers/src/stm32f10x_bkp.c **** void BKP_RTCOutputConfig(uint16_t BKP_RTCOutputSource)
 180:./Drivers/src/stm32f10x_bkp.c **** {
 146              		.loc 1 180 1 is_stmt 1 view -0
 147              		.cfi_startproc
 148              		@ args = 0, pretend = 0, frame = 0
 149              		@ frame_needed = 0, uses_anonymous_args = 0
 150              		@ link register save eliminated.
 181:./Drivers/src/stm32f10x_bkp.c ****   uint16_t tmpreg = 0;
 151              		.loc 1 181 3 view .LVU20
 182:./Drivers/src/stm32f10x_bkp.c ****   /* Check the parameters */
 183:./Drivers/src/stm32f10x_bkp.c ****   assert_param(IS_BKP_RTC_OUTPUT_SOURCE(BKP_RTCOutputSource));
 152              		.loc 1 183 3 view .LVU21
 184:./Drivers/src/stm32f10x_bkp.c ****   tmpreg = BKP->RTCCR;
 153              		.loc 1 184 3 view .LVU22
 154              		.loc 1 184 10 is_stmt 0 view .LVU23
 155 0000 034A     		ldr	r2, .L13
 156 0002 938D     		ldrh	r3, [r2, #44]
 157 0004 9BB2     		uxth	r3, r3
 158              	.LVL6:
 185:./Drivers/src/stm32f10x_bkp.c ****   /* Clear CCO, ASOE and ASOS bits */
 186:./Drivers/src/stm32f10x_bkp.c ****   tmpreg &= RTCCR_MASK;
 159              		.loc 1 186 3 is_stmt 1 view .LVU24
 160              		.loc 1 186 10 is_stmt 0 view .LVU25
 161 0006 23F46073 		bic	r3, r3, #896
 162              	.LVL7:
 187:./Drivers/src/stm32f10x_bkp.c ****   
 188:./Drivers/src/stm32f10x_bkp.c ****   /* Set CCO, ASOE and ASOS bits according to BKP_RTCOutputSource value */
 189:./Drivers/src/stm32f10x_bkp.c ****   tmpreg |= BKP_RTCOutputSource;
ARM GAS  /tmp/cc8GAdzf.s 			page 7


 163              		.loc 1 189 3 is_stmt 1 view .LVU26
 164              		.loc 1 189 10 is_stmt 0 view .LVU27
 165 000a 0343     		orrs	r3, r3, r0
 166              	.LVL8:
 190:./Drivers/src/stm32f10x_bkp.c ****   /* Store the new value */
 191:./Drivers/src/stm32f10x_bkp.c ****   BKP->RTCCR = tmpreg;
 167              		.loc 1 191 3 is_stmt 1 view .LVU28
 168              		.loc 1 191 14 is_stmt 0 view .LVU29
 169 000c 9385     		strh	r3, [r2, #44]	@ movhi
 192:./Drivers/src/stm32f10x_bkp.c **** }
 170              		.loc 1 192 1 view .LVU30
 171 000e 7047     		bx	lr
 172              	.L14:
 173              		.align	2
 174              	.L13:
 175 0010 006C0040 		.word	1073769472
 176              		.cfi_endproc
 177              	.LFE33:
 179              		.section	.text.BKP_SetRTCCalibrationValue,"ax",%progbits
 180              		.align	1
 181              		.global	BKP_SetRTCCalibrationValue
 182              		.syntax unified
 183              		.thumb
 184              		.thumb_func
 186              	BKP_SetRTCCalibrationValue:
 187              	.LVL9:
 188              	.LFB34:
 193:./Drivers/src/stm32f10x_bkp.c **** 
 194:./Drivers/src/stm32f10x_bkp.c **** /**
 195:./Drivers/src/stm32f10x_bkp.c ****   * @brief  Sets RTC Clock Calibration value.
 196:./Drivers/src/stm32f10x_bkp.c ****   * @param  CalibrationValue: specifies the RTC Clock Calibration value.
 197:./Drivers/src/stm32f10x_bkp.c ****   *   This parameter must be a number between 0 and 0x7F.
 198:./Drivers/src/stm32f10x_bkp.c ****   * @retval None
 199:./Drivers/src/stm32f10x_bkp.c ****   */
 200:./Drivers/src/stm32f10x_bkp.c **** void BKP_SetRTCCalibrationValue(uint8_t CalibrationValue)
 201:./Drivers/src/stm32f10x_bkp.c **** {
 189              		.loc 1 201 1 is_stmt 1 view -0
 190              		.cfi_startproc
 191              		@ args = 0, pretend = 0, frame = 0
 192              		@ frame_needed = 0, uses_anonymous_args = 0
 193              		@ link register save eliminated.
 202:./Drivers/src/stm32f10x_bkp.c ****   uint16_t tmpreg = 0;
 194              		.loc 1 202 3 view .LVU32
 203:./Drivers/src/stm32f10x_bkp.c ****   /* Check the parameters */
 204:./Drivers/src/stm32f10x_bkp.c ****   assert_param(IS_BKP_CALIBRATION_VALUE(CalibrationValue));
 195              		.loc 1 204 3 view .LVU33
 205:./Drivers/src/stm32f10x_bkp.c ****   tmpreg = BKP->RTCCR;
 196              		.loc 1 205 3 view .LVU34
 197              		.loc 1 205 10 is_stmt 0 view .LVU35
 198 0000 034A     		ldr	r2, .L16
 199 0002 938D     		ldrh	r3, [r2, #44]
 200 0004 9BB2     		uxth	r3, r3
 201              	.LVL10:
 206:./Drivers/src/stm32f10x_bkp.c ****   /* Clear CAL[6:0] bits */
 207:./Drivers/src/stm32f10x_bkp.c ****   tmpreg &= RTCCR_CAL_MASK;
 202              		.loc 1 207 3 is_stmt 1 view .LVU36
 203              		.loc 1 207 10 is_stmt 0 view .LVU37
ARM GAS  /tmp/cc8GAdzf.s 			page 8


 204 0006 23F07F03 		bic	r3, r3, #127
 205              	.LVL11:
 208:./Drivers/src/stm32f10x_bkp.c ****   /* Set CAL[6:0] bits according to CalibrationValue value */
 209:./Drivers/src/stm32f10x_bkp.c ****   tmpreg |= CalibrationValue;
 206              		.loc 1 209 3 is_stmt 1 view .LVU38
 207              		.loc 1 209 10 is_stmt 0 view .LVU39
 208 000a 0343     		orrs	r3, r3, r0
 209              	.LVL12:
 210:./Drivers/src/stm32f10x_bkp.c ****   /* Store the new value */
 211:./Drivers/src/stm32f10x_bkp.c ****   BKP->RTCCR = tmpreg;
 210              		.loc 1 211 3 is_stmt 1 view .LVU40
 211              		.loc 1 211 14 is_stmt 0 view .LVU41
 212 000c 9385     		strh	r3, [r2, #44]	@ movhi
 212:./Drivers/src/stm32f10x_bkp.c **** }
 213              		.loc 1 212 1 view .LVU42
 214 000e 7047     		bx	lr
 215              	.L17:
 216              		.align	2
 217              	.L16:
 218 0010 006C0040 		.word	1073769472
 219              		.cfi_endproc
 220              	.LFE34:
 222              		.section	.text.BKP_WriteBackupRegister,"ax",%progbits
 223              		.align	1
 224              		.global	BKP_WriteBackupRegister
 225              		.syntax unified
 226              		.thumb
 227              		.thumb_func
 229              	BKP_WriteBackupRegister:
 230              	.LVL13:
 231              	.LFB35:
 213:./Drivers/src/stm32f10x_bkp.c **** 
 214:./Drivers/src/stm32f10x_bkp.c **** /**
 215:./Drivers/src/stm32f10x_bkp.c ****   * @brief  Writes user data to the specified Data Backup Register.
 216:./Drivers/src/stm32f10x_bkp.c ****   * @param  BKP_DR: specifies the Data Backup Register.
 217:./Drivers/src/stm32f10x_bkp.c ****   *   This parameter can be BKP_DRx where x:[1, 42]
 218:./Drivers/src/stm32f10x_bkp.c ****   * @param  Data: data to write
 219:./Drivers/src/stm32f10x_bkp.c ****   * @retval None
 220:./Drivers/src/stm32f10x_bkp.c ****   */
 221:./Drivers/src/stm32f10x_bkp.c **** void BKP_WriteBackupRegister(uint16_t BKP_DR, uint16_t Data)
 222:./Drivers/src/stm32f10x_bkp.c **** {
 232              		.loc 1 222 1 is_stmt 1 view -0
 233              		.cfi_startproc
 234              		@ args = 0, pretend = 0, frame = 8
 235              		@ frame_needed = 0, uses_anonymous_args = 0
 236              		@ link register save eliminated.
 237              		.loc 1 222 1 is_stmt 0 view .LVU44
 238 0000 82B0     		sub	sp, sp, #8
 239              	.LCFI1:
 240              		.cfi_def_cfa_offset 8
 223:./Drivers/src/stm32f10x_bkp.c ****   __IO uint32_t tmp = 0;
 241              		.loc 1 223 3 is_stmt 1 view .LVU45
 242              		.loc 1 223 17 is_stmt 0 view .LVU46
 243 0002 0023     		movs	r3, #0
 244 0004 0193     		str	r3, [sp, #4]
 224:./Drivers/src/stm32f10x_bkp.c **** 
 225:./Drivers/src/stm32f10x_bkp.c ****   /* Check the parameters */
ARM GAS  /tmp/cc8GAdzf.s 			page 9


 226:./Drivers/src/stm32f10x_bkp.c ****   assert_param(IS_BKP_DR(BKP_DR));
 245              		.loc 1 226 3 is_stmt 1 view .LVU47
 227:./Drivers/src/stm32f10x_bkp.c **** 
 228:./Drivers/src/stm32f10x_bkp.c ****   tmp = (uint32_t)BKP_BASE; 
 246              		.loc 1 228 3 view .LVU48
 247              		.loc 1 228 7 is_stmt 0 view .LVU49
 248 0006 044B     		ldr	r3, .L20
 249 0008 0193     		str	r3, [sp, #4]
 229:./Drivers/src/stm32f10x_bkp.c ****   tmp += BKP_DR;
 250              		.loc 1 229 3 is_stmt 1 view .LVU50
 251              		.loc 1 229 7 is_stmt 0 view .LVU51
 252 000a 019B     		ldr	r3, [sp, #4]
 253 000c 1844     		add	r0, r0, r3
 254              	.LVL14:
 255              		.loc 1 229 7 view .LVU52
 256 000e 0190     		str	r0, [sp, #4]
 230:./Drivers/src/stm32f10x_bkp.c **** 
 231:./Drivers/src/stm32f10x_bkp.c ****   *(__IO uint32_t *) tmp = Data;
 257              		.loc 1 231 3 is_stmt 1 view .LVU53
 258              		.loc 1 231 4 is_stmt 0 view .LVU54
 259 0010 019B     		ldr	r3, [sp, #4]
 260              		.loc 1 231 26 view .LVU55
 261 0012 1960     		str	r1, [r3]
 232:./Drivers/src/stm32f10x_bkp.c **** }
 262              		.loc 1 232 1 view .LVU56
 263 0014 02B0     		add	sp, sp, #8
 264              	.LCFI2:
 265              		.cfi_def_cfa_offset 0
 266              		@ sp needed
 267 0016 7047     		bx	lr
 268              	.L21:
 269              		.align	2
 270              	.L20:
 271 0018 006C0040 		.word	1073769472
 272              		.cfi_endproc
 273              	.LFE35:
 275              		.section	.text.BKP_ReadBackupRegister,"ax",%progbits
 276              		.align	1
 277              		.global	BKP_ReadBackupRegister
 278              		.syntax unified
 279              		.thumb
 280              		.thumb_func
 282              	BKP_ReadBackupRegister:
 283              	.LVL15:
 284              	.LFB36:
 233:./Drivers/src/stm32f10x_bkp.c **** 
 234:./Drivers/src/stm32f10x_bkp.c **** /**
 235:./Drivers/src/stm32f10x_bkp.c ****   * @brief  Reads data from the specified Data Backup Register.
 236:./Drivers/src/stm32f10x_bkp.c ****   * @param  BKP_DR: specifies the Data Backup Register.
 237:./Drivers/src/stm32f10x_bkp.c ****   *   This parameter can be BKP_DRx where x:[1, 42]
 238:./Drivers/src/stm32f10x_bkp.c ****   * @retval The content of the specified Data Backup Register
 239:./Drivers/src/stm32f10x_bkp.c ****   */
 240:./Drivers/src/stm32f10x_bkp.c **** uint16_t BKP_ReadBackupRegister(uint16_t BKP_DR)
 241:./Drivers/src/stm32f10x_bkp.c **** {
 285              		.loc 1 241 1 is_stmt 1 view -0
 286              		.cfi_startproc
 287              		@ args = 0, pretend = 0, frame = 8
ARM GAS  /tmp/cc8GAdzf.s 			page 10


 288              		@ frame_needed = 0, uses_anonymous_args = 0
 289              		@ link register save eliminated.
 290              		.loc 1 241 1 is_stmt 0 view .LVU58
 291 0000 82B0     		sub	sp, sp, #8
 292              	.LCFI3:
 293              		.cfi_def_cfa_offset 8
 242:./Drivers/src/stm32f10x_bkp.c ****   __IO uint32_t tmp = 0;
 294              		.loc 1 242 3 is_stmt 1 view .LVU59
 295              		.loc 1 242 17 is_stmt 0 view .LVU60
 296 0002 0023     		movs	r3, #0
 297 0004 0193     		str	r3, [sp, #4]
 243:./Drivers/src/stm32f10x_bkp.c **** 
 244:./Drivers/src/stm32f10x_bkp.c ****   /* Check the parameters */
 245:./Drivers/src/stm32f10x_bkp.c ****   assert_param(IS_BKP_DR(BKP_DR));
 298              		.loc 1 245 3 is_stmt 1 view .LVU61
 246:./Drivers/src/stm32f10x_bkp.c **** 
 247:./Drivers/src/stm32f10x_bkp.c ****   tmp = (uint32_t)BKP_BASE; 
 299              		.loc 1 247 3 view .LVU62
 300              		.loc 1 247 7 is_stmt 0 view .LVU63
 301 0006 054B     		ldr	r3, .L24
 302 0008 0193     		str	r3, [sp, #4]
 248:./Drivers/src/stm32f10x_bkp.c ****   tmp += BKP_DR;
 303              		.loc 1 248 3 is_stmt 1 view .LVU64
 304              		.loc 1 248 7 is_stmt 0 view .LVU65
 305 000a 019B     		ldr	r3, [sp, #4]
 306 000c 1844     		add	r0, r0, r3
 307              	.LVL16:
 308              		.loc 1 248 7 view .LVU66
 309 000e 0190     		str	r0, [sp, #4]
 249:./Drivers/src/stm32f10x_bkp.c **** 
 250:./Drivers/src/stm32f10x_bkp.c ****   return (*(__IO uint16_t *) tmp);
 310              		.loc 1 250 3 is_stmt 1 view .LVU67
 311              		.loc 1 250 12 is_stmt 0 view .LVU68
 312 0010 019B     		ldr	r3, [sp, #4]
 313              		.loc 1 250 11 view .LVU69
 314 0012 1888     		ldrh	r0, [r3]
 251:./Drivers/src/stm32f10x_bkp.c **** }
 315              		.loc 1 251 1 view .LVU70
 316 0014 80B2     		uxth	r0, r0
 317 0016 02B0     		add	sp, sp, #8
 318              	.LCFI4:
 319              		.cfi_def_cfa_offset 0
 320              		@ sp needed
 321 0018 7047     		bx	lr
 322              	.L25:
 323 001a 00BF     		.align	2
 324              	.L24:
 325 001c 006C0040 		.word	1073769472
 326              		.cfi_endproc
 327              	.LFE36:
 329              		.section	.text.BKP_GetFlagStatus,"ax",%progbits
 330              		.align	1
 331              		.global	BKP_GetFlagStatus
 332              		.syntax unified
 333              		.thumb
 334              		.thumb_func
 336              	BKP_GetFlagStatus:
ARM GAS  /tmp/cc8GAdzf.s 			page 11


 337              	.LFB37:
 252:./Drivers/src/stm32f10x_bkp.c **** 
 253:./Drivers/src/stm32f10x_bkp.c **** /**
 254:./Drivers/src/stm32f10x_bkp.c ****   * @brief  Checks whether the Tamper Pin Event flag is set or not.
 255:./Drivers/src/stm32f10x_bkp.c ****   * @param  None
 256:./Drivers/src/stm32f10x_bkp.c ****   * @retval The new state of the Tamper Pin Event flag (SET or RESET).
 257:./Drivers/src/stm32f10x_bkp.c ****   */
 258:./Drivers/src/stm32f10x_bkp.c **** FlagStatus BKP_GetFlagStatus(void)
 259:./Drivers/src/stm32f10x_bkp.c **** {
 338              		.loc 1 259 1 is_stmt 1 view -0
 339              		.cfi_startproc
 340              		@ args = 0, pretend = 0, frame = 0
 341              		@ frame_needed = 0, uses_anonymous_args = 0
 342              		@ link register save eliminated.
 260:./Drivers/src/stm32f10x_bkp.c ****   return (FlagStatus)(*(__IO uint32_t *) CSR_TEF_BB);
 343              		.loc 1 260 3 view .LVU72
 344              		.loc 1 260 23 is_stmt 0 view .LVU73
 345 0000 024B     		ldr	r3, .L27
 346 0002 D3F8A006 		ldr	r0, [r3, #1696]
 261:./Drivers/src/stm32f10x_bkp.c **** }
 347              		.loc 1 261 1 view .LVU74
 348 0006 C0B2     		uxtb	r0, r0
 349 0008 7047     		bx	lr
 350              	.L28:
 351 000a 00BF     		.align	2
 352              	.L27:
 353 000c 00800D42 		.word	1108180992
 354              		.cfi_endproc
 355              	.LFE37:
 357              		.section	.text.BKP_ClearFlag,"ax",%progbits
 358              		.align	1
 359              		.global	BKP_ClearFlag
 360              		.syntax unified
 361              		.thumb
 362              		.thumb_func
 364              	BKP_ClearFlag:
 365              	.LFB38:
 262:./Drivers/src/stm32f10x_bkp.c **** 
 263:./Drivers/src/stm32f10x_bkp.c **** /**
 264:./Drivers/src/stm32f10x_bkp.c ****   * @brief  Clears Tamper Pin Event pending flag.
 265:./Drivers/src/stm32f10x_bkp.c ****   * @param  None
 266:./Drivers/src/stm32f10x_bkp.c ****   * @retval None
 267:./Drivers/src/stm32f10x_bkp.c ****   */
 268:./Drivers/src/stm32f10x_bkp.c **** void BKP_ClearFlag(void)
 269:./Drivers/src/stm32f10x_bkp.c **** {
 366              		.loc 1 269 1 is_stmt 1 view -0
 367              		.cfi_startproc
 368              		@ args = 0, pretend = 0, frame = 0
 369              		@ frame_needed = 0, uses_anonymous_args = 0
 370              		@ link register save eliminated.
 270:./Drivers/src/stm32f10x_bkp.c ****   /* Set CTE bit to clear Tamper Pin Event flag */
 271:./Drivers/src/stm32f10x_bkp.c ****   BKP->CSR |= BKP_CSR_CTE;
 371              		.loc 1 271 3 view .LVU76
 372              		.loc 1 271 6 is_stmt 0 view .LVU77
 373 0000 034A     		ldr	r2, .L30
 374 0002 938E     		ldrh	r3, [r2, #52]
 375 0004 9BB2     		uxth	r3, r3
ARM GAS  /tmp/cc8GAdzf.s 			page 12


 376              		.loc 1 271 12 view .LVU78
 377 0006 43F00103 		orr	r3, r3, #1
 378 000a 9386     		strh	r3, [r2, #52]	@ movhi
 272:./Drivers/src/stm32f10x_bkp.c **** }
 379              		.loc 1 272 1 view .LVU79
 380 000c 7047     		bx	lr
 381              	.L31:
 382 000e 00BF     		.align	2
 383              	.L30:
 384 0010 006C0040 		.word	1073769472
 385              		.cfi_endproc
 386              	.LFE38:
 388              		.section	.text.BKP_GetITStatus,"ax",%progbits
 389              		.align	1
 390              		.global	BKP_GetITStatus
 391              		.syntax unified
 392              		.thumb
 393              		.thumb_func
 395              	BKP_GetITStatus:
 396              	.LFB39:
 273:./Drivers/src/stm32f10x_bkp.c **** 
 274:./Drivers/src/stm32f10x_bkp.c **** /**
 275:./Drivers/src/stm32f10x_bkp.c ****   * @brief  Checks whether the Tamper Pin Interrupt has occurred or not.
 276:./Drivers/src/stm32f10x_bkp.c ****   * @param  None
 277:./Drivers/src/stm32f10x_bkp.c ****   * @retval The new state of the Tamper Pin Interrupt (SET or RESET).
 278:./Drivers/src/stm32f10x_bkp.c ****   */
 279:./Drivers/src/stm32f10x_bkp.c **** ITStatus BKP_GetITStatus(void)
 280:./Drivers/src/stm32f10x_bkp.c **** {
 397              		.loc 1 280 1 is_stmt 1 view -0
 398              		.cfi_startproc
 399              		@ args = 0, pretend = 0, frame = 0
 400              		@ frame_needed = 0, uses_anonymous_args = 0
 401              		@ link register save eliminated.
 281:./Drivers/src/stm32f10x_bkp.c ****   return (ITStatus)(*(__IO uint32_t *) CSR_TIF_BB);
 402              		.loc 1 281 3 view .LVU81
 403              		.loc 1 281 21 is_stmt 0 view .LVU82
 404 0000 024B     		ldr	r3, .L33
 405 0002 D3F8A406 		ldr	r0, [r3, #1700]
 282:./Drivers/src/stm32f10x_bkp.c **** }
 406              		.loc 1 282 1 view .LVU83
 407 0006 C0B2     		uxtb	r0, r0
 408 0008 7047     		bx	lr
 409              	.L34:
 410 000a 00BF     		.align	2
 411              	.L33:
 412 000c 00800D42 		.word	1108180992
 413              		.cfi_endproc
 414              	.LFE39:
 416              		.section	.text.BKP_ClearITPendingBit,"ax",%progbits
 417              		.align	1
 418              		.global	BKP_ClearITPendingBit
 419              		.syntax unified
 420              		.thumb
 421              		.thumb_func
 423              	BKP_ClearITPendingBit:
 424              	.LFB40:
 283:./Drivers/src/stm32f10x_bkp.c **** 
ARM GAS  /tmp/cc8GAdzf.s 			page 13


 284:./Drivers/src/stm32f10x_bkp.c **** /**
 285:./Drivers/src/stm32f10x_bkp.c ****   * @brief  Clears Tamper Pin Interrupt pending bit.
 286:./Drivers/src/stm32f10x_bkp.c ****   * @param  None
 287:./Drivers/src/stm32f10x_bkp.c ****   * @retval None
 288:./Drivers/src/stm32f10x_bkp.c ****   */
 289:./Drivers/src/stm32f10x_bkp.c **** void BKP_ClearITPendingBit(void)
 290:./Drivers/src/stm32f10x_bkp.c **** {
 425              		.loc 1 290 1 is_stmt 1 view -0
 426              		.cfi_startproc
 427              		@ args = 0, pretend = 0, frame = 0
 428              		@ frame_needed = 0, uses_anonymous_args = 0
 429              		@ link register save eliminated.
 291:./Drivers/src/stm32f10x_bkp.c ****   /* Set CTI bit to clear Tamper Pin Interrupt pending bit */
 292:./Drivers/src/stm32f10x_bkp.c ****   BKP->CSR |= BKP_CSR_CTI;
 430              		.loc 1 292 3 view .LVU85
 431              		.loc 1 292 6 is_stmt 0 view .LVU86
 432 0000 034A     		ldr	r2, .L36
 433 0002 938E     		ldrh	r3, [r2, #52]
 434 0004 9BB2     		uxth	r3, r3
 435              		.loc 1 292 12 view .LVU87
 436 0006 43F00203 		orr	r3, r3, #2
 437 000a 9386     		strh	r3, [r2, #52]	@ movhi
 293:./Drivers/src/stm32f10x_bkp.c **** }
 438              		.loc 1 293 1 view .LVU88
 439 000c 7047     		bx	lr
 440              	.L37:
 441 000e 00BF     		.align	2
 442              	.L36:
 443 0010 006C0040 		.word	1073769472
 444              		.cfi_endproc
 445              	.LFE40:
 447              		.text
 448              	.Letext0:
 449              		.file 2 "/usr/arm-none-eabi/include/machine/_default_types.h"
 450              		.file 3 "/usr/arm-none-eabi/include/sys/_stdint.h"
 451              		.file 4 "cmsis/stm32f10x.h"
 452              		.file 5 "Drivers/inc/stm32f10x_rcc.h"
ARM GAS  /tmp/cc8GAdzf.s 			page 14

