ARM GAS  /tmp/cc4BEF2L.s 			page 1


   1              		.cpu cortex-m3
   2              		.arch armv7-m
   3              		.fpu softvfp
   4              		.eabi_attribute 20, 1
   5              		.eabi_attribute 21, 1
   6              		.eabi_attribute 23, 3
   7              		.eabi_attribute 24, 1
   8              		.eabi_attribute 25, 1
   9              		.eabi_attribute 26, 1
  10              		.eabi_attribute 30, 1
  11              		.eabi_attribute 34, 1
  12              		.eabi_attribute 18, 4
  13              		.file	"stm32f10x_sdio.c"
  14              		.text
  15              	.Ltext0:
  16              		.cfi_sections	.debug_frame
  17              		.file 1 "./Drivers/src/stm32f10x_sdio.c"
  18              		.section	.text.SDIO_DeInit,"ax",%progbits
  19              		.align	1
  20              		.global	SDIO_DeInit
  21              		.syntax unified
  22              		.thumb
  23              		.thumb_func
  25              	SDIO_DeInit:
  26              	.LFB29:
   1:./Drivers/src/stm32f10x_sdio.c **** /**
   2:./Drivers/src/stm32f10x_sdio.c ****   ******************************************************************************
   3:./Drivers/src/stm32f10x_sdio.c ****   * @file    stm32f10x_sdio.c
   4:./Drivers/src/stm32f10x_sdio.c ****   * @author  MCD Application Team
   5:./Drivers/src/stm32f10x_sdio.c ****   * @version V3.6.2
   6:./Drivers/src/stm32f10x_sdio.c ****   * @date    17-September-2021
   7:./Drivers/src/stm32f10x_sdio.c ****   * @brief   This file provides all the SDIO firmware functions.
   8:./Drivers/src/stm32f10x_sdio.c ****   ******************************************************************************
   9:./Drivers/src/stm32f10x_sdio.c ****   * @attention
  10:./Drivers/src/stm32f10x_sdio.c ****   *
  11:./Drivers/src/stm32f10x_sdio.c ****   * Copyright (c) 2012 STMicroelectronics.
  12:./Drivers/src/stm32f10x_sdio.c ****   * All rights reserved.
  13:./Drivers/src/stm32f10x_sdio.c ****   *
  14:./Drivers/src/stm32f10x_sdio.c ****   * This software is licensed under terms that can be found in the LICENSE file
  15:./Drivers/src/stm32f10x_sdio.c ****   * in the root directory of this software component.
  16:./Drivers/src/stm32f10x_sdio.c ****   * If no LICENSE file comes with this software, it is provided AS-IS.
  17:./Drivers/src/stm32f10x_sdio.c ****   *
  18:./Drivers/src/stm32f10x_sdio.c ****   ******************************************************************************
  19:./Drivers/src/stm32f10x_sdio.c ****   */
  20:./Drivers/src/stm32f10x_sdio.c **** 
  21:./Drivers/src/stm32f10x_sdio.c **** /* Includes ------------------------------------------------------------------*/
  22:./Drivers/src/stm32f10x_sdio.c **** #include "stm32f10x_sdio.h"
  23:./Drivers/src/stm32f10x_sdio.c **** #include "stm32f10x_rcc.h"
  24:./Drivers/src/stm32f10x_sdio.c **** 
  25:./Drivers/src/stm32f10x_sdio.c **** /** @addtogroup STM32F10x_StdPeriph_Driver
  26:./Drivers/src/stm32f10x_sdio.c ****   * @{
  27:./Drivers/src/stm32f10x_sdio.c ****   */
  28:./Drivers/src/stm32f10x_sdio.c **** 
  29:./Drivers/src/stm32f10x_sdio.c **** /** @defgroup SDIO 
  30:./Drivers/src/stm32f10x_sdio.c ****   * @brief SDIO driver modules
  31:./Drivers/src/stm32f10x_sdio.c ****   * @{
  32:./Drivers/src/stm32f10x_sdio.c ****   */ 
ARM GAS  /tmp/cc4BEF2L.s 			page 2


  33:./Drivers/src/stm32f10x_sdio.c **** 
  34:./Drivers/src/stm32f10x_sdio.c **** /** @defgroup SDIO_Private_TypesDefinitions
  35:./Drivers/src/stm32f10x_sdio.c ****   * @{
  36:./Drivers/src/stm32f10x_sdio.c ****   */ 
  37:./Drivers/src/stm32f10x_sdio.c **** 
  38:./Drivers/src/stm32f10x_sdio.c **** /* ------------ SDIO registers bit address in the alias region ----------- */
  39:./Drivers/src/stm32f10x_sdio.c **** #define SDIO_OFFSET                (SDIO_BASE - PERIPH_BASE)
  40:./Drivers/src/stm32f10x_sdio.c **** 
  41:./Drivers/src/stm32f10x_sdio.c **** /* --- CLKCR Register ---*/
  42:./Drivers/src/stm32f10x_sdio.c **** 
  43:./Drivers/src/stm32f10x_sdio.c **** /* Alias word address of CLKEN bit */
  44:./Drivers/src/stm32f10x_sdio.c **** #define CLKCR_OFFSET              (SDIO_OFFSET + 0x04)
  45:./Drivers/src/stm32f10x_sdio.c **** #define CLKEN_BitNumber           0x08
  46:./Drivers/src/stm32f10x_sdio.c **** #define CLKCR_CLKEN_BB            (PERIPH_BB_BASE + (CLKCR_OFFSET * 32) + (CLKEN_BitNumber * 4))
  47:./Drivers/src/stm32f10x_sdio.c **** 
  48:./Drivers/src/stm32f10x_sdio.c **** /* --- CMD Register ---*/
  49:./Drivers/src/stm32f10x_sdio.c **** 
  50:./Drivers/src/stm32f10x_sdio.c **** /* Alias word address of SDIOSUSPEND bit */
  51:./Drivers/src/stm32f10x_sdio.c **** #define CMD_OFFSET                (SDIO_OFFSET + 0x0C)
  52:./Drivers/src/stm32f10x_sdio.c **** #define SDIOSUSPEND_BitNumber     0x0B
  53:./Drivers/src/stm32f10x_sdio.c **** #define CMD_SDIOSUSPEND_BB        (PERIPH_BB_BASE + (CMD_OFFSET * 32) + (SDIOSUSPEND_BitNumber * 4)
  54:./Drivers/src/stm32f10x_sdio.c **** 
  55:./Drivers/src/stm32f10x_sdio.c **** /* Alias word address of ENCMDCOMPL bit */
  56:./Drivers/src/stm32f10x_sdio.c **** #define ENCMDCOMPL_BitNumber      0x0C
  57:./Drivers/src/stm32f10x_sdio.c **** #define CMD_ENCMDCOMPL_BB         (PERIPH_BB_BASE + (CMD_OFFSET * 32) + (ENCMDCOMPL_BitNumber * 4))
  58:./Drivers/src/stm32f10x_sdio.c **** 
  59:./Drivers/src/stm32f10x_sdio.c **** /* Alias word address of NIEN bit */
  60:./Drivers/src/stm32f10x_sdio.c **** #define NIEN_BitNumber            0x0D
  61:./Drivers/src/stm32f10x_sdio.c **** #define CMD_NIEN_BB               (PERIPH_BB_BASE + (CMD_OFFSET * 32) + (NIEN_BitNumber * 4))
  62:./Drivers/src/stm32f10x_sdio.c **** 
  63:./Drivers/src/stm32f10x_sdio.c **** /* Alias word address of ATACMD bit */
  64:./Drivers/src/stm32f10x_sdio.c **** #define ATACMD_BitNumber          0x0E
  65:./Drivers/src/stm32f10x_sdio.c **** #define CMD_ATACMD_BB             (PERIPH_BB_BASE + (CMD_OFFSET * 32) + (ATACMD_BitNumber * 4))
  66:./Drivers/src/stm32f10x_sdio.c **** 
  67:./Drivers/src/stm32f10x_sdio.c **** /* --- DCTRL Register ---*/
  68:./Drivers/src/stm32f10x_sdio.c **** 
  69:./Drivers/src/stm32f10x_sdio.c **** /* Alias word address of DMAEN bit */
  70:./Drivers/src/stm32f10x_sdio.c **** #define DCTRL_OFFSET              (SDIO_OFFSET + 0x2C)
  71:./Drivers/src/stm32f10x_sdio.c **** #define DMAEN_BitNumber           0x03
  72:./Drivers/src/stm32f10x_sdio.c **** #define DCTRL_DMAEN_BB            (PERIPH_BB_BASE + (DCTRL_OFFSET * 32) + (DMAEN_BitNumber * 4))
  73:./Drivers/src/stm32f10x_sdio.c **** 
  74:./Drivers/src/stm32f10x_sdio.c **** /* Alias word address of RWSTART bit */
  75:./Drivers/src/stm32f10x_sdio.c **** #define RWSTART_BitNumber         0x08
  76:./Drivers/src/stm32f10x_sdio.c **** #define DCTRL_RWSTART_BB          (PERIPH_BB_BASE + (DCTRL_OFFSET * 32) + (RWSTART_BitNumber * 4))
  77:./Drivers/src/stm32f10x_sdio.c **** 
  78:./Drivers/src/stm32f10x_sdio.c **** /* Alias word address of RWSTOP bit */
  79:./Drivers/src/stm32f10x_sdio.c **** #define RWSTOP_BitNumber          0x09
  80:./Drivers/src/stm32f10x_sdio.c **** #define DCTRL_RWSTOP_BB           (PERIPH_BB_BASE + (DCTRL_OFFSET * 32) + (RWSTOP_BitNumber * 4))
  81:./Drivers/src/stm32f10x_sdio.c **** 
  82:./Drivers/src/stm32f10x_sdio.c **** /* Alias word address of RWMOD bit */
  83:./Drivers/src/stm32f10x_sdio.c **** #define RWMOD_BitNumber           0x0A
  84:./Drivers/src/stm32f10x_sdio.c **** #define DCTRL_RWMOD_BB            (PERIPH_BB_BASE + (DCTRL_OFFSET * 32) + (RWMOD_BitNumber * 4))
  85:./Drivers/src/stm32f10x_sdio.c **** 
  86:./Drivers/src/stm32f10x_sdio.c **** /* Alias word address of SDIOEN bit */
  87:./Drivers/src/stm32f10x_sdio.c **** #define SDIOEN_BitNumber          0x0B
  88:./Drivers/src/stm32f10x_sdio.c **** #define DCTRL_SDIOEN_BB           (PERIPH_BB_BASE + (DCTRL_OFFSET * 32) + (SDIOEN_BitNumber * 4))
  89:./Drivers/src/stm32f10x_sdio.c **** 
ARM GAS  /tmp/cc4BEF2L.s 			page 3


  90:./Drivers/src/stm32f10x_sdio.c **** /* ---------------------- SDIO registers bit mask ------------------------ */
  91:./Drivers/src/stm32f10x_sdio.c **** 
  92:./Drivers/src/stm32f10x_sdio.c **** /* --- CLKCR Register ---*/
  93:./Drivers/src/stm32f10x_sdio.c **** 
  94:./Drivers/src/stm32f10x_sdio.c **** /* CLKCR register clear mask */
  95:./Drivers/src/stm32f10x_sdio.c **** #define CLKCR_CLEAR_MASK         ((uint32_t)0xFFFF8100) 
  96:./Drivers/src/stm32f10x_sdio.c **** 
  97:./Drivers/src/stm32f10x_sdio.c **** /* --- PWRCTRL Register ---*/
  98:./Drivers/src/stm32f10x_sdio.c **** 
  99:./Drivers/src/stm32f10x_sdio.c **** /* SDIO PWRCTRL Mask */
 100:./Drivers/src/stm32f10x_sdio.c **** #define PWR_PWRCTRL_MASK         ((uint32_t)0xFFFFFFFC)
 101:./Drivers/src/stm32f10x_sdio.c **** 
 102:./Drivers/src/stm32f10x_sdio.c **** /* --- DCTRL Register ---*/
 103:./Drivers/src/stm32f10x_sdio.c **** 
 104:./Drivers/src/stm32f10x_sdio.c **** /* SDIO DCTRL Clear Mask */
 105:./Drivers/src/stm32f10x_sdio.c **** #define DCTRL_CLEAR_MASK         ((uint32_t)0xFFFFFF08)
 106:./Drivers/src/stm32f10x_sdio.c **** 
 107:./Drivers/src/stm32f10x_sdio.c **** /* --- CMD Register ---*/
 108:./Drivers/src/stm32f10x_sdio.c **** 
 109:./Drivers/src/stm32f10x_sdio.c **** /* CMD Register clear mask */
 110:./Drivers/src/stm32f10x_sdio.c **** #define CMD_CLEAR_MASK           ((uint32_t)0xFFFFF800)
 111:./Drivers/src/stm32f10x_sdio.c **** 
 112:./Drivers/src/stm32f10x_sdio.c **** /* SDIO RESP Registers Address */
 113:./Drivers/src/stm32f10x_sdio.c **** #define SDIO_RESP_ADDR           ((uint32_t)(SDIO_BASE + 0x14))
 114:./Drivers/src/stm32f10x_sdio.c **** 
 115:./Drivers/src/stm32f10x_sdio.c **** /**
 116:./Drivers/src/stm32f10x_sdio.c ****   * @}
 117:./Drivers/src/stm32f10x_sdio.c ****   */
 118:./Drivers/src/stm32f10x_sdio.c **** 
 119:./Drivers/src/stm32f10x_sdio.c **** /** @defgroup SDIO_Private_Defines
 120:./Drivers/src/stm32f10x_sdio.c ****   * @{
 121:./Drivers/src/stm32f10x_sdio.c ****   */
 122:./Drivers/src/stm32f10x_sdio.c **** 
 123:./Drivers/src/stm32f10x_sdio.c **** /**
 124:./Drivers/src/stm32f10x_sdio.c ****   * @}
 125:./Drivers/src/stm32f10x_sdio.c ****   */
 126:./Drivers/src/stm32f10x_sdio.c **** 
 127:./Drivers/src/stm32f10x_sdio.c **** /** @defgroup SDIO_Private_Macros
 128:./Drivers/src/stm32f10x_sdio.c ****   * @{
 129:./Drivers/src/stm32f10x_sdio.c ****   */
 130:./Drivers/src/stm32f10x_sdio.c **** 
 131:./Drivers/src/stm32f10x_sdio.c **** /**
 132:./Drivers/src/stm32f10x_sdio.c ****   * @}
 133:./Drivers/src/stm32f10x_sdio.c ****   */
 134:./Drivers/src/stm32f10x_sdio.c **** 
 135:./Drivers/src/stm32f10x_sdio.c **** /** @defgroup SDIO_Private_Variables
 136:./Drivers/src/stm32f10x_sdio.c ****   * @{
 137:./Drivers/src/stm32f10x_sdio.c ****   */
 138:./Drivers/src/stm32f10x_sdio.c **** 
 139:./Drivers/src/stm32f10x_sdio.c **** /**
 140:./Drivers/src/stm32f10x_sdio.c ****   * @}
 141:./Drivers/src/stm32f10x_sdio.c ****   */
 142:./Drivers/src/stm32f10x_sdio.c **** 
 143:./Drivers/src/stm32f10x_sdio.c **** /** @defgroup SDIO_Private_FunctionPrototypes
 144:./Drivers/src/stm32f10x_sdio.c ****   * @{
 145:./Drivers/src/stm32f10x_sdio.c ****   */
 146:./Drivers/src/stm32f10x_sdio.c **** 
ARM GAS  /tmp/cc4BEF2L.s 			page 4


 147:./Drivers/src/stm32f10x_sdio.c **** /**
 148:./Drivers/src/stm32f10x_sdio.c ****   * @}
 149:./Drivers/src/stm32f10x_sdio.c ****   */
 150:./Drivers/src/stm32f10x_sdio.c **** 
 151:./Drivers/src/stm32f10x_sdio.c **** /** @defgroup SDIO_Private_Functions
 152:./Drivers/src/stm32f10x_sdio.c ****   * @{
 153:./Drivers/src/stm32f10x_sdio.c ****   */
 154:./Drivers/src/stm32f10x_sdio.c **** 
 155:./Drivers/src/stm32f10x_sdio.c **** /**
 156:./Drivers/src/stm32f10x_sdio.c ****   * @brief  Deinitializes the SDIO peripheral registers to their default reset values.
 157:./Drivers/src/stm32f10x_sdio.c ****   * @param  None
 158:./Drivers/src/stm32f10x_sdio.c ****   * @retval None
 159:./Drivers/src/stm32f10x_sdio.c ****   */
 160:./Drivers/src/stm32f10x_sdio.c **** void SDIO_DeInit(void)
 161:./Drivers/src/stm32f10x_sdio.c **** {
  27              		.loc 1 161 1 view -0
  28              		.cfi_startproc
  29              		@ args = 0, pretend = 0, frame = 0
  30              		@ frame_needed = 0, uses_anonymous_args = 0
  31              		@ link register save eliminated.
 162:./Drivers/src/stm32f10x_sdio.c ****   SDIO->POWER = 0x00000000;
  32              		.loc 1 162 3 view .LVU1
  33              		.loc 1 162 15 is_stmt 0 view .LVU2
  34 0000 064B     		ldr	r3, .L2
  35 0002 0022     		movs	r2, #0
  36 0004 1A60     		str	r2, [r3]
 163:./Drivers/src/stm32f10x_sdio.c ****   SDIO->CLKCR = 0x00000000;
  37              		.loc 1 163 3 is_stmt 1 view .LVU3
  38              		.loc 1 163 15 is_stmt 0 view .LVU4
  39 0006 5A60     		str	r2, [r3, #4]
 164:./Drivers/src/stm32f10x_sdio.c ****   SDIO->ARG = 0x00000000;
  40              		.loc 1 164 3 is_stmt 1 view .LVU5
  41              		.loc 1 164 13 is_stmt 0 view .LVU6
  42 0008 9A60     		str	r2, [r3, #8]
 165:./Drivers/src/stm32f10x_sdio.c ****   SDIO->CMD = 0x00000000;
  43              		.loc 1 165 3 is_stmt 1 view .LVU7
  44              		.loc 1 165 13 is_stmt 0 view .LVU8
  45 000a DA60     		str	r2, [r3, #12]
 166:./Drivers/src/stm32f10x_sdio.c ****   SDIO->DTIMER = 0x00000000;
  46              		.loc 1 166 3 is_stmt 1 view .LVU9
  47              		.loc 1 166 16 is_stmt 0 view .LVU10
  48 000c 5A62     		str	r2, [r3, #36]
 167:./Drivers/src/stm32f10x_sdio.c ****   SDIO->DLEN = 0x00000000;
  49              		.loc 1 167 3 is_stmt 1 view .LVU11
  50              		.loc 1 167 14 is_stmt 0 view .LVU12
  51 000e 9A62     		str	r2, [r3, #40]
 168:./Drivers/src/stm32f10x_sdio.c ****   SDIO->DCTRL = 0x00000000;
  52              		.loc 1 168 3 is_stmt 1 view .LVU13
  53              		.loc 1 168 15 is_stmt 0 view .LVU14
  54 0010 DA62     		str	r2, [r3, #44]
 169:./Drivers/src/stm32f10x_sdio.c ****   SDIO->ICR = 0x00C007FF;
  55              		.loc 1 169 3 is_stmt 1 view .LVU15
  56              		.loc 1 169 13 is_stmt 0 view .LVU16
  57 0012 0349     		ldr	r1, .L2+4
  58 0014 9963     		str	r1, [r3, #56]
 170:./Drivers/src/stm32f10x_sdio.c ****   SDIO->MASK = 0x00000000;
  59              		.loc 1 170 3 is_stmt 1 view .LVU17
ARM GAS  /tmp/cc4BEF2L.s 			page 5


  60              		.loc 1 170 14 is_stmt 0 view .LVU18
  61 0016 DA63     		str	r2, [r3, #60]
 171:./Drivers/src/stm32f10x_sdio.c **** }
  62              		.loc 1 171 1 view .LVU19
  63 0018 7047     		bx	lr
  64              	.L3:
  65 001a 00BF     		.align	2
  66              	.L2:
  67 001c 00800140 		.word	1073840128
  68 0020 FF07C000 		.word	12584959
  69              		.cfi_endproc
  70              	.LFE29:
  72              		.section	.text.SDIO_Init,"ax",%progbits
  73              		.align	1
  74              		.global	SDIO_Init
  75              		.syntax unified
  76              		.thumb
  77              		.thumb_func
  79              	SDIO_Init:
  80              	.LVL0:
  81              	.LFB30:
 172:./Drivers/src/stm32f10x_sdio.c **** 
 173:./Drivers/src/stm32f10x_sdio.c **** /**
 174:./Drivers/src/stm32f10x_sdio.c ****   * @brief  Initializes the SDIO peripheral according to the specified 
 175:./Drivers/src/stm32f10x_sdio.c ****   *         parameters in the SDIO_InitStruct.
 176:./Drivers/src/stm32f10x_sdio.c ****   * @param  SDIO_InitStruct : pointer to a SDIO_InitTypeDef structure 
 177:./Drivers/src/stm32f10x_sdio.c ****   *         that contains the configuration information for the SDIO peripheral.
 178:./Drivers/src/stm32f10x_sdio.c ****   * @retval None
 179:./Drivers/src/stm32f10x_sdio.c ****   */
 180:./Drivers/src/stm32f10x_sdio.c **** void SDIO_Init(SDIO_InitTypeDef* SDIO_InitStruct)
 181:./Drivers/src/stm32f10x_sdio.c **** {
  82              		.loc 1 181 1 is_stmt 1 view -0
  83              		.cfi_startproc
  84              		@ args = 0, pretend = 0, frame = 0
  85              		@ frame_needed = 0, uses_anonymous_args = 0
  86              		@ link register save eliminated.
  87              		.loc 1 181 1 is_stmt 0 view .LVU21
  88 0000 10B4     		push	{r4}
  89              	.LCFI0:
  90              		.cfi_def_cfa_offset 4
  91              		.cfi_offset 4, -4
 182:./Drivers/src/stm32f10x_sdio.c ****   uint32_t tmpreg = 0;
  92              		.loc 1 182 3 is_stmt 1 view .LVU22
  93              	.LVL1:
 183:./Drivers/src/stm32f10x_sdio.c ****     
 184:./Drivers/src/stm32f10x_sdio.c ****   /* Check the parameters */
 185:./Drivers/src/stm32f10x_sdio.c ****   assert_param(IS_SDIO_CLOCK_EDGE(SDIO_InitStruct->SDIO_ClockEdge));
  94              		.loc 1 185 3 view .LVU23
 186:./Drivers/src/stm32f10x_sdio.c ****   assert_param(IS_SDIO_CLOCK_BYPASS(SDIO_InitStruct->SDIO_ClockBypass));
  95              		.loc 1 186 3 view .LVU24
 187:./Drivers/src/stm32f10x_sdio.c ****   assert_param(IS_SDIO_CLOCK_POWER_SAVE(SDIO_InitStruct->SDIO_ClockPowerSave));
  96              		.loc 1 187 3 view .LVU25
 188:./Drivers/src/stm32f10x_sdio.c ****   assert_param(IS_SDIO_BUS_WIDE(SDIO_InitStruct->SDIO_BusWide));
  97              		.loc 1 188 3 view .LVU26
 189:./Drivers/src/stm32f10x_sdio.c ****   assert_param(IS_SDIO_HARDWARE_FLOW_CONTROL(SDIO_InitStruct->SDIO_HardwareFlowControl)); 
  98              		.loc 1 189 3 view .LVU27
 190:./Drivers/src/stm32f10x_sdio.c ****    
ARM GAS  /tmp/cc4BEF2L.s 			page 6


 191:./Drivers/src/stm32f10x_sdio.c **** /*---------------------------- SDIO CLKCR Configuration ------------------------*/  
 192:./Drivers/src/stm32f10x_sdio.c ****   /* Get the SDIO CLKCR value */
 193:./Drivers/src/stm32f10x_sdio.c ****   tmpreg = SDIO->CLKCR;
  99              		.loc 1 193 3 view .LVU28
 100              		.loc 1 193 10 is_stmt 0 view .LVU29
 101 0002 0A49     		ldr	r1, .L6
 102 0004 4A68     		ldr	r2, [r1, #4]
 103              	.LVL2:
 194:./Drivers/src/stm32f10x_sdio.c ****   
 195:./Drivers/src/stm32f10x_sdio.c ****   /* Clear CLKDIV, PWRSAV, BYPASS, WIDBUS, NEGEDGE, HWFC_EN bits */
 196:./Drivers/src/stm32f10x_sdio.c ****   tmpreg &= CLKCR_CLEAR_MASK;
 104              		.loc 1 196 3 is_stmt 1 view .LVU30
 105              		.loc 1 196 10 is_stmt 0 view .LVU31
 106 0006 22F4FD42 		bic	r2, r2, #32384
 107              	.LVL3:
 108              		.loc 1 196 10 view .LVU32
 109 000a 22F07F02 		bic	r2, r2, #127
 110              	.LVL4:
 197:./Drivers/src/stm32f10x_sdio.c ****   
 198:./Drivers/src/stm32f10x_sdio.c ****   /* Set CLKDIV bits according to SDIO_ClockDiv value */
 199:./Drivers/src/stm32f10x_sdio.c ****   /* Set PWRSAV bit according to SDIO_ClockPowerSave value */
 200:./Drivers/src/stm32f10x_sdio.c ****   /* Set BYPASS bit according to SDIO_ClockBypass value */
 201:./Drivers/src/stm32f10x_sdio.c ****   /* Set WIDBUS bits according to SDIO_BusWide value */
 202:./Drivers/src/stm32f10x_sdio.c ****   /* Set NEGEDGE bits according to SDIO_ClockEdge value */
 203:./Drivers/src/stm32f10x_sdio.c ****   /* Set HWFC_EN bits according to SDIO_HardwareFlowControl value */
 204:./Drivers/src/stm32f10x_sdio.c ****   tmpreg |= (SDIO_InitStruct->SDIO_ClockDiv  | SDIO_InitStruct->SDIO_ClockPowerSave |
 111              		.loc 1 204 3 is_stmt 1 view .LVU33
 112              		.loc 1 204 29 is_stmt 0 view .LVU34
 113 000e 037D     		ldrb	r3, [r0, #20]	@ zero_extendqisi2
 114              		.loc 1 204 46 view .LVU35
 115 0010 8468     		ldr	r4, [r0, #8]
 116 0012 2343     		orrs	r3, r3, r4
 117              		.loc 1 204 85 view .LVU36
 118 0014 4468     		ldr	r4, [r0, #4]
 119 0016 2343     		orrs	r3, r3, r4
 205:./Drivers/src/stm32f10x_sdio.c ****              SDIO_InitStruct->SDIO_ClockBypass | SDIO_InitStruct->SDIO_BusWide |
 120              		.loc 1 205 48 view .LVU37
 121 0018 C468     		ldr	r4, [r0, #12]
 122 001a 2343     		orrs	r3, r3, r4
 123              		.loc 1 205 80 view .LVU38
 124 001c 0468     		ldr	r4, [r0]
 125 001e 2343     		orrs	r3, r3, r4
 206:./Drivers/src/stm32f10x_sdio.c ****              SDIO_InitStruct->SDIO_ClockEdge | SDIO_InitStruct->SDIO_HardwareFlowControl); 
 126              		.loc 1 206 63 view .LVU39
 127 0020 0069     		ldr	r0, [r0, #16]
 128              	.LVL5:
 129              		.loc 1 206 46 view .LVU40
 130 0022 0343     		orrs	r3, r3, r0
 204:./Drivers/src/stm32f10x_sdio.c ****              SDIO_InitStruct->SDIO_ClockBypass | SDIO_InitStruct->SDIO_BusWide |
 131              		.loc 1 204 10 view .LVU41
 132 0024 1343     		orrs	r3, r3, r2
 133              	.LVL6:
 207:./Drivers/src/stm32f10x_sdio.c ****   
 208:./Drivers/src/stm32f10x_sdio.c ****   /* Write to SDIO CLKCR */
 209:./Drivers/src/stm32f10x_sdio.c ****   SDIO->CLKCR = tmpreg;
 134              		.loc 1 209 3 is_stmt 1 view .LVU42
 135              		.loc 1 209 15 is_stmt 0 view .LVU43
ARM GAS  /tmp/cc4BEF2L.s 			page 7


 136 0026 4B60     		str	r3, [r1, #4]
 210:./Drivers/src/stm32f10x_sdio.c **** }
 137              		.loc 1 210 1 view .LVU44
 138 0028 10BC     		pop	{r4}
 139              	.LCFI1:
 140              		.cfi_restore 4
 141              		.cfi_def_cfa_offset 0
 142 002a 7047     		bx	lr
 143              	.L7:
 144              		.align	2
 145              	.L6:
 146 002c 00800140 		.word	1073840128
 147              		.cfi_endproc
 148              	.LFE30:
 150              		.section	.text.SDIO_StructInit,"ax",%progbits
 151              		.align	1
 152              		.global	SDIO_StructInit
 153              		.syntax unified
 154              		.thumb
 155              		.thumb_func
 157              	SDIO_StructInit:
 158              	.LVL7:
 159              	.LFB31:
 211:./Drivers/src/stm32f10x_sdio.c **** 
 212:./Drivers/src/stm32f10x_sdio.c **** /**
 213:./Drivers/src/stm32f10x_sdio.c ****   * @brief  Fills each SDIO_InitStruct member with its default value.
 214:./Drivers/src/stm32f10x_sdio.c ****   * @param  SDIO_InitStruct: pointer to an SDIO_InitTypeDef structure which 
 215:./Drivers/src/stm32f10x_sdio.c ****   *   will be initialized.
 216:./Drivers/src/stm32f10x_sdio.c ****   * @retval None
 217:./Drivers/src/stm32f10x_sdio.c ****   */
 218:./Drivers/src/stm32f10x_sdio.c **** void SDIO_StructInit(SDIO_InitTypeDef* SDIO_InitStruct)
 219:./Drivers/src/stm32f10x_sdio.c **** {
 160              		.loc 1 219 1 is_stmt 1 view -0
 161              		.cfi_startproc
 162              		@ args = 0, pretend = 0, frame = 0
 163              		@ frame_needed = 0, uses_anonymous_args = 0
 164              		@ link register save eliminated.
 220:./Drivers/src/stm32f10x_sdio.c ****   /* SDIO_InitStruct members default value */
 221:./Drivers/src/stm32f10x_sdio.c ****   SDIO_InitStruct->SDIO_ClockDiv = 0x00;
 165              		.loc 1 221 3 view .LVU46
 166              		.loc 1 221 34 is_stmt 0 view .LVU47
 167 0000 0023     		movs	r3, #0
 168 0002 0375     		strb	r3, [r0, #20]
 222:./Drivers/src/stm32f10x_sdio.c ****   SDIO_InitStruct->SDIO_ClockEdge = SDIO_ClockEdge_Rising;
 169              		.loc 1 222 3 is_stmt 1 view .LVU48
 170              		.loc 1 222 35 is_stmt 0 view .LVU49
 171 0004 0360     		str	r3, [r0]
 223:./Drivers/src/stm32f10x_sdio.c ****   SDIO_InitStruct->SDIO_ClockBypass = SDIO_ClockBypass_Disable;
 172              		.loc 1 223 3 is_stmt 1 view .LVU50
 173              		.loc 1 223 37 is_stmt 0 view .LVU51
 174 0006 4360     		str	r3, [r0, #4]
 224:./Drivers/src/stm32f10x_sdio.c ****   SDIO_InitStruct->SDIO_ClockPowerSave = SDIO_ClockPowerSave_Disable;
 175              		.loc 1 224 3 is_stmt 1 view .LVU52
 176              		.loc 1 224 40 is_stmt 0 view .LVU53
 177 0008 8360     		str	r3, [r0, #8]
 225:./Drivers/src/stm32f10x_sdio.c ****   SDIO_InitStruct->SDIO_BusWide = SDIO_BusWide_1b;
 178              		.loc 1 225 3 is_stmt 1 view .LVU54
ARM GAS  /tmp/cc4BEF2L.s 			page 8


 179              		.loc 1 225 33 is_stmt 0 view .LVU55
 180 000a C360     		str	r3, [r0, #12]
 226:./Drivers/src/stm32f10x_sdio.c ****   SDIO_InitStruct->SDIO_HardwareFlowControl = SDIO_HardwareFlowControl_Disable;
 181              		.loc 1 226 3 is_stmt 1 view .LVU56
 182              		.loc 1 226 45 is_stmt 0 view .LVU57
 183 000c 0361     		str	r3, [r0, #16]
 227:./Drivers/src/stm32f10x_sdio.c **** }
 184              		.loc 1 227 1 view .LVU58
 185 000e 7047     		bx	lr
 186              		.cfi_endproc
 187              	.LFE31:
 189              		.section	.text.SDIO_ClockCmd,"ax",%progbits
 190              		.align	1
 191              		.global	SDIO_ClockCmd
 192              		.syntax unified
 193              		.thumb
 194              		.thumb_func
 196              	SDIO_ClockCmd:
 197              	.LVL8:
 198              	.LFB32:
 228:./Drivers/src/stm32f10x_sdio.c **** 
 229:./Drivers/src/stm32f10x_sdio.c **** /**
 230:./Drivers/src/stm32f10x_sdio.c ****   * @brief  Enables or disables the SDIO Clock.
 231:./Drivers/src/stm32f10x_sdio.c ****   * @param  NewState: new state of the SDIO Clock. This parameter can be: ENABLE or DISABLE.
 232:./Drivers/src/stm32f10x_sdio.c ****   * @retval None
 233:./Drivers/src/stm32f10x_sdio.c ****   */
 234:./Drivers/src/stm32f10x_sdio.c **** void SDIO_ClockCmd(FunctionalState NewState)
 235:./Drivers/src/stm32f10x_sdio.c **** {
 199              		.loc 1 235 1 is_stmt 1 view -0
 200              		.cfi_startproc
 201              		@ args = 0, pretend = 0, frame = 0
 202              		@ frame_needed = 0, uses_anonymous_args = 0
 203              		@ link register save eliminated.
 236:./Drivers/src/stm32f10x_sdio.c ****   /* Check the parameters */
 237:./Drivers/src/stm32f10x_sdio.c ****   assert_param(IS_FUNCTIONAL_STATE(NewState));
 204              		.loc 1 237 3 view .LVU60
 238:./Drivers/src/stm32f10x_sdio.c ****   
 239:./Drivers/src/stm32f10x_sdio.c ****   *(__IO uint32_t *) CLKCR_CLKEN_BB = (uint32_t)NewState;
 205              		.loc 1 239 3 view .LVU61
 206              		.loc 1 239 37 is_stmt 0 view .LVU62
 207 0000 014B     		ldr	r3, .L10
 208 0002 C3F8A000 		str	r0, [r3, #160]
 240:./Drivers/src/stm32f10x_sdio.c **** }
 209              		.loc 1 240 1 view .LVU63
 210 0006 7047     		bx	lr
 211              	.L11:
 212              		.align	2
 213              	.L10:
 214 0008 00003042 		.word	1110441984
 215              		.cfi_endproc
 216              	.LFE32:
 218              		.section	.text.SDIO_SetPowerState,"ax",%progbits
 219              		.align	1
 220              		.global	SDIO_SetPowerState
 221              		.syntax unified
 222              		.thumb
 223              		.thumb_func
ARM GAS  /tmp/cc4BEF2L.s 			page 9


 225              	SDIO_SetPowerState:
 226              	.LVL9:
 227              	.LFB33:
 241:./Drivers/src/stm32f10x_sdio.c **** 
 242:./Drivers/src/stm32f10x_sdio.c **** /**
 243:./Drivers/src/stm32f10x_sdio.c ****   * @brief  Sets the power status of the controller.
 244:./Drivers/src/stm32f10x_sdio.c ****   * @param  SDIO_PowerState: new state of the Power state. 
 245:./Drivers/src/stm32f10x_sdio.c ****   *   This parameter can be one of the following values:
 246:./Drivers/src/stm32f10x_sdio.c ****   *     @arg SDIO_PowerState_OFF
 247:./Drivers/src/stm32f10x_sdio.c ****   *     @arg SDIO_PowerState_ON
 248:./Drivers/src/stm32f10x_sdio.c ****   * @retval None
 249:./Drivers/src/stm32f10x_sdio.c ****   */
 250:./Drivers/src/stm32f10x_sdio.c **** void SDIO_SetPowerState(uint32_t SDIO_PowerState)
 251:./Drivers/src/stm32f10x_sdio.c **** {
 228              		.loc 1 251 1 is_stmt 1 view -0
 229              		.cfi_startproc
 230              		@ args = 0, pretend = 0, frame = 0
 231              		@ frame_needed = 0, uses_anonymous_args = 0
 232              		@ link register save eliminated.
 252:./Drivers/src/stm32f10x_sdio.c ****   /* Check the parameters */
 253:./Drivers/src/stm32f10x_sdio.c ****   assert_param(IS_SDIO_POWER_STATE(SDIO_PowerState));
 233              		.loc 1 253 3 view .LVU65
 254:./Drivers/src/stm32f10x_sdio.c ****   
 255:./Drivers/src/stm32f10x_sdio.c ****   SDIO->POWER = SDIO_PowerState;
 234              		.loc 1 255 3 view .LVU66
 235              		.loc 1 255 15 is_stmt 0 view .LVU67
 236 0000 014B     		ldr	r3, .L13
 237 0002 1860     		str	r0, [r3]
 256:./Drivers/src/stm32f10x_sdio.c **** }
 238              		.loc 1 256 1 view .LVU68
 239 0004 7047     		bx	lr
 240              	.L14:
 241 0006 00BF     		.align	2
 242              	.L13:
 243 0008 00800140 		.word	1073840128
 244              		.cfi_endproc
 245              	.LFE33:
 247              		.section	.text.SDIO_GetPowerState,"ax",%progbits
 248              		.align	1
 249              		.global	SDIO_GetPowerState
 250              		.syntax unified
 251              		.thumb
 252              		.thumb_func
 254              	SDIO_GetPowerState:
 255              	.LFB34:
 257:./Drivers/src/stm32f10x_sdio.c **** 
 258:./Drivers/src/stm32f10x_sdio.c **** /**
 259:./Drivers/src/stm32f10x_sdio.c ****   * @brief  Gets the power status of the controller.
 260:./Drivers/src/stm32f10x_sdio.c ****   * @param  None
 261:./Drivers/src/stm32f10x_sdio.c ****   * @retval Power status of the controller. The returned value can
 262:./Drivers/src/stm32f10x_sdio.c ****   *   be one of the following:
 263:./Drivers/src/stm32f10x_sdio.c ****   * - 0x00: Power OFF
 264:./Drivers/src/stm32f10x_sdio.c ****   * - 0x02: Power UP
 265:./Drivers/src/stm32f10x_sdio.c ****   * - 0x03: Power ON 
 266:./Drivers/src/stm32f10x_sdio.c ****   */
 267:./Drivers/src/stm32f10x_sdio.c **** uint32_t SDIO_GetPowerState(void)
 268:./Drivers/src/stm32f10x_sdio.c **** {
ARM GAS  /tmp/cc4BEF2L.s 			page 10


 256              		.loc 1 268 1 is_stmt 1 view -0
 257              		.cfi_startproc
 258              		@ args = 0, pretend = 0, frame = 0
 259              		@ frame_needed = 0, uses_anonymous_args = 0
 260              		@ link register save eliminated.
 269:./Drivers/src/stm32f10x_sdio.c ****   return (SDIO->POWER & (~PWR_PWRCTRL_MASK));
 261              		.loc 1 269 3 view .LVU70
 262              		.loc 1 269 15 is_stmt 0 view .LVU71
 263 0000 024B     		ldr	r3, .L16
 264 0002 1868     		ldr	r0, [r3]
 270:./Drivers/src/stm32f10x_sdio.c **** }
 265              		.loc 1 270 1 view .LVU72
 266 0004 00F00300 		and	r0, r0, #3
 267 0008 7047     		bx	lr
 268              	.L17:
 269 000a 00BF     		.align	2
 270              	.L16:
 271 000c 00800140 		.word	1073840128
 272              		.cfi_endproc
 273              	.LFE34:
 275              		.section	.text.SDIO_ITConfig,"ax",%progbits
 276              		.align	1
 277              		.global	SDIO_ITConfig
 278              		.syntax unified
 279              		.thumb
 280              		.thumb_func
 282              	SDIO_ITConfig:
 283              	.LVL10:
 284              	.LFB35:
 271:./Drivers/src/stm32f10x_sdio.c **** 
 272:./Drivers/src/stm32f10x_sdio.c **** /**
 273:./Drivers/src/stm32f10x_sdio.c ****   * @brief  Enables or disables the SDIO interrupts.
 274:./Drivers/src/stm32f10x_sdio.c ****   * @param  SDIO_IT: specifies the SDIO interrupt sources to be enabled or disabled.
 275:./Drivers/src/stm32f10x_sdio.c ****   *   This parameter can be one or a combination of the following values:
 276:./Drivers/src/stm32f10x_sdio.c ****   *     @arg SDIO_IT_CCRCFAIL: Command response received (CRC check failed) interrupt
 277:./Drivers/src/stm32f10x_sdio.c ****   *     @arg SDIO_IT_DCRCFAIL: Data block sent/received (CRC check failed) interrupt
 278:./Drivers/src/stm32f10x_sdio.c ****   *     @arg SDIO_IT_CTIMEOUT: Command response timeout interrupt
 279:./Drivers/src/stm32f10x_sdio.c ****   *     @arg SDIO_IT_DTIMEOUT: Data timeout interrupt
 280:./Drivers/src/stm32f10x_sdio.c ****   *     @arg SDIO_IT_TXUNDERR: Transmit FIFO underrun error interrupt
 281:./Drivers/src/stm32f10x_sdio.c ****   *     @arg SDIO_IT_RXOVERR:  Received FIFO overrun error interrupt
 282:./Drivers/src/stm32f10x_sdio.c ****   *     @arg SDIO_IT_CMDREND:  Command response received (CRC check passed) interrupt
 283:./Drivers/src/stm32f10x_sdio.c ****   *     @arg SDIO_IT_CMDSENT:  Command sent (no response required) interrupt
 284:./Drivers/src/stm32f10x_sdio.c ****   *     @arg SDIO_IT_DATAEND:  Data end (data counter, SDIDCOUNT, is zero) interrupt
 285:./Drivers/src/stm32f10x_sdio.c ****   *     @arg SDIO_IT_STBITERR: Start bit not detected on all data signals in wide 
 286:./Drivers/src/stm32f10x_sdio.c ****   *                            bus mode interrupt
 287:./Drivers/src/stm32f10x_sdio.c ****   *     @arg SDIO_IT_DBCKEND:  Data block sent/received (CRC check passed) interrupt
 288:./Drivers/src/stm32f10x_sdio.c ****   *     @arg SDIO_IT_CMDACT:   Command transfer in progress interrupt
 289:./Drivers/src/stm32f10x_sdio.c ****   *     @arg SDIO_IT_TXACT:    Data transmit in progress interrupt
 290:./Drivers/src/stm32f10x_sdio.c ****   *     @arg SDIO_IT_RXACT:    Data receive in progress interrupt
 291:./Drivers/src/stm32f10x_sdio.c ****   *     @arg SDIO_IT_TXFIFOHE: Transmit FIFO Half Empty interrupt
 292:./Drivers/src/stm32f10x_sdio.c ****   *     @arg SDIO_IT_RXFIFOHF: Receive FIFO Half Full interrupt
 293:./Drivers/src/stm32f10x_sdio.c ****   *     @arg SDIO_IT_TXFIFOF:  Transmit FIFO full interrupt
 294:./Drivers/src/stm32f10x_sdio.c ****   *     @arg SDIO_IT_RXFIFOF:  Receive FIFO full interrupt
 295:./Drivers/src/stm32f10x_sdio.c ****   *     @arg SDIO_IT_TXFIFOE:  Transmit FIFO empty interrupt
 296:./Drivers/src/stm32f10x_sdio.c ****   *     @arg SDIO_IT_RXFIFOE:  Receive FIFO empty interrupt
 297:./Drivers/src/stm32f10x_sdio.c ****   *     @arg SDIO_IT_TXDAVL:   Data available in transmit FIFO interrupt
 298:./Drivers/src/stm32f10x_sdio.c ****   *     @arg SDIO_IT_RXDAVL:   Data available in receive FIFO interrupt
ARM GAS  /tmp/cc4BEF2L.s 			page 11


 299:./Drivers/src/stm32f10x_sdio.c ****   *     @arg SDIO_IT_SDIOIT:   SD I/O interrupt received interrupt
 300:./Drivers/src/stm32f10x_sdio.c ****   *     @arg SDIO_IT_CEATAEND: CE-ATA command completion signal received for CMD61 interrupt
 301:./Drivers/src/stm32f10x_sdio.c ****   * @param  NewState: new state of the specified SDIO interrupts.
 302:./Drivers/src/stm32f10x_sdio.c ****   *   This parameter can be: ENABLE or DISABLE.
 303:./Drivers/src/stm32f10x_sdio.c ****   * @retval None 
 304:./Drivers/src/stm32f10x_sdio.c ****   */
 305:./Drivers/src/stm32f10x_sdio.c **** void SDIO_ITConfig(uint32_t SDIO_IT, FunctionalState NewState)
 306:./Drivers/src/stm32f10x_sdio.c **** {
 285              		.loc 1 306 1 is_stmt 1 view -0
 286              		.cfi_startproc
 287              		@ args = 0, pretend = 0, frame = 0
 288              		@ frame_needed = 0, uses_anonymous_args = 0
 289              		@ link register save eliminated.
 307:./Drivers/src/stm32f10x_sdio.c ****   /* Check the parameters */
 308:./Drivers/src/stm32f10x_sdio.c ****   assert_param(IS_SDIO_IT(SDIO_IT));
 290              		.loc 1 308 3 view .LVU74
 309:./Drivers/src/stm32f10x_sdio.c ****   assert_param(IS_FUNCTIONAL_STATE(NewState));
 291              		.loc 1 309 3 view .LVU75
 310:./Drivers/src/stm32f10x_sdio.c ****   
 311:./Drivers/src/stm32f10x_sdio.c ****   if (NewState != DISABLE)
 292              		.loc 1 311 3 view .LVU76
 293              		.loc 1 311 6 is_stmt 0 view .LVU77
 294 0000 21B1     		cbz	r1, .L19
 312:./Drivers/src/stm32f10x_sdio.c ****   {
 313:./Drivers/src/stm32f10x_sdio.c ****     /* Enable the SDIO interrupts */
 314:./Drivers/src/stm32f10x_sdio.c ****     SDIO->MASK |= SDIO_IT;
 295              		.loc 1 314 5 is_stmt 1 view .LVU78
 296              		.loc 1 314 9 is_stmt 0 view .LVU79
 297 0002 054A     		ldr	r2, .L21
 298 0004 D36B     		ldr	r3, [r2, #60]
 299              		.loc 1 314 16 view .LVU80
 300 0006 0343     		orrs	r3, r3, r0
 301 0008 D363     		str	r3, [r2, #60]
 302 000a 7047     		bx	lr
 303              	.L19:
 315:./Drivers/src/stm32f10x_sdio.c ****   }
 316:./Drivers/src/stm32f10x_sdio.c ****   else
 317:./Drivers/src/stm32f10x_sdio.c ****   {
 318:./Drivers/src/stm32f10x_sdio.c ****     /* Disable the SDIO interrupts */
 319:./Drivers/src/stm32f10x_sdio.c ****     SDIO->MASK &= ~SDIO_IT;
 304              		.loc 1 319 5 is_stmt 1 view .LVU81
 305              		.loc 1 319 9 is_stmt 0 view .LVU82
 306 000c 024A     		ldr	r2, .L21
 307 000e D36B     		ldr	r3, [r2, #60]
 308              		.loc 1 319 16 view .LVU83
 309 0010 23EA0003 		bic	r3, r3, r0
 310 0014 D363     		str	r3, [r2, #60]
 320:./Drivers/src/stm32f10x_sdio.c ****   } 
 321:./Drivers/src/stm32f10x_sdio.c **** }
 311              		.loc 1 321 1 view .LVU84
 312 0016 7047     		bx	lr
 313              	.L22:
 314              		.align	2
 315              	.L21:
 316 0018 00800140 		.word	1073840128
 317              		.cfi_endproc
 318              	.LFE35:
ARM GAS  /tmp/cc4BEF2L.s 			page 12


 320              		.section	.text.SDIO_DMACmd,"ax",%progbits
 321              		.align	1
 322              		.global	SDIO_DMACmd
 323              		.syntax unified
 324              		.thumb
 325              		.thumb_func
 327              	SDIO_DMACmd:
 328              	.LVL11:
 329              	.LFB36:
 322:./Drivers/src/stm32f10x_sdio.c **** 
 323:./Drivers/src/stm32f10x_sdio.c **** /**
 324:./Drivers/src/stm32f10x_sdio.c ****   * @brief  Enables or disables the SDIO DMA request.
 325:./Drivers/src/stm32f10x_sdio.c ****   * @param  NewState: new state of the selected SDIO DMA request.
 326:./Drivers/src/stm32f10x_sdio.c ****   *   This parameter can be: ENABLE or DISABLE.
 327:./Drivers/src/stm32f10x_sdio.c ****   * @retval None
 328:./Drivers/src/stm32f10x_sdio.c ****   */
 329:./Drivers/src/stm32f10x_sdio.c **** void SDIO_DMACmd(FunctionalState NewState)
 330:./Drivers/src/stm32f10x_sdio.c **** {
 330              		.loc 1 330 1 is_stmt 1 view -0
 331              		.cfi_startproc
 332              		@ args = 0, pretend = 0, frame = 0
 333              		@ frame_needed = 0, uses_anonymous_args = 0
 334              		@ link register save eliminated.
 331:./Drivers/src/stm32f10x_sdio.c ****   /* Check the parameters */
 332:./Drivers/src/stm32f10x_sdio.c ****   assert_param(IS_FUNCTIONAL_STATE(NewState));
 335              		.loc 1 332 3 view .LVU86
 333:./Drivers/src/stm32f10x_sdio.c ****   
 334:./Drivers/src/stm32f10x_sdio.c ****   *(__IO uint32_t *) DCTRL_DMAEN_BB = (uint32_t)NewState;
 336              		.loc 1 334 3 view .LVU87
 337              		.loc 1 334 37 is_stmt 0 view .LVU88
 338 0000 014B     		ldr	r3, .L24
 339 0002 C3F88C05 		str	r0, [r3, #1420]
 335:./Drivers/src/stm32f10x_sdio.c **** }
 340              		.loc 1 335 1 view .LVU89
 341 0006 7047     		bx	lr
 342              	.L25:
 343              		.align	2
 344              	.L24:
 345 0008 00003042 		.word	1110441984
 346              		.cfi_endproc
 347              	.LFE36:
 349              		.section	.text.SDIO_SendCommand,"ax",%progbits
 350              		.align	1
 351              		.global	SDIO_SendCommand
 352              		.syntax unified
 353              		.thumb
 354              		.thumb_func
 356              	SDIO_SendCommand:
 357              	.LVL12:
 358              	.LFB37:
 336:./Drivers/src/stm32f10x_sdio.c **** 
 337:./Drivers/src/stm32f10x_sdio.c **** /**
 338:./Drivers/src/stm32f10x_sdio.c ****   * @brief  Initializes the SDIO Command according to the specified 
 339:./Drivers/src/stm32f10x_sdio.c ****   *         parameters in the SDIO_CmdInitStruct and send the command.
 340:./Drivers/src/stm32f10x_sdio.c ****   * @param  SDIO_CmdInitStruct : pointer to a SDIO_CmdInitTypeDef 
 341:./Drivers/src/stm32f10x_sdio.c ****   *         structure that contains the configuration information for the SDIO command.
 342:./Drivers/src/stm32f10x_sdio.c ****   * @retval None
ARM GAS  /tmp/cc4BEF2L.s 			page 13


 343:./Drivers/src/stm32f10x_sdio.c ****   */
 344:./Drivers/src/stm32f10x_sdio.c **** void SDIO_SendCommand(SDIO_CmdInitTypeDef *SDIO_CmdInitStruct)
 345:./Drivers/src/stm32f10x_sdio.c **** {
 359              		.loc 1 345 1 is_stmt 1 view -0
 360              		.cfi_startproc
 361              		@ args = 0, pretend = 0, frame = 0
 362              		@ frame_needed = 0, uses_anonymous_args = 0
 363              		@ link register save eliminated.
 364              		.loc 1 345 1 is_stmt 0 view .LVU91
 365 0000 10B4     		push	{r4}
 366              	.LCFI2:
 367              		.cfi_def_cfa_offset 4
 368              		.cfi_offset 4, -4
 346:./Drivers/src/stm32f10x_sdio.c ****   uint32_t tmpreg = 0;
 369              		.loc 1 346 3 is_stmt 1 view .LVU92
 370              	.LVL13:
 347:./Drivers/src/stm32f10x_sdio.c ****   
 348:./Drivers/src/stm32f10x_sdio.c ****   /* Check the parameters */
 349:./Drivers/src/stm32f10x_sdio.c ****   assert_param(IS_SDIO_CMD_INDEX(SDIO_CmdInitStruct->SDIO_CmdIndex));
 371              		.loc 1 349 3 view .LVU93
 350:./Drivers/src/stm32f10x_sdio.c ****   assert_param(IS_SDIO_RESPONSE(SDIO_CmdInitStruct->SDIO_Response));
 372              		.loc 1 350 3 view .LVU94
 351:./Drivers/src/stm32f10x_sdio.c ****   assert_param(IS_SDIO_WAIT(SDIO_CmdInitStruct->SDIO_Wait));
 373              		.loc 1 351 3 view .LVU95
 352:./Drivers/src/stm32f10x_sdio.c ****   assert_param(IS_SDIO_CPSM(SDIO_CmdInitStruct->SDIO_CPSM));
 374              		.loc 1 352 3 view .LVU96
 353:./Drivers/src/stm32f10x_sdio.c ****   
 354:./Drivers/src/stm32f10x_sdio.c **** /*---------------------------- SDIO ARG Configuration ------------------------*/
 355:./Drivers/src/stm32f10x_sdio.c ****   /* Set the SDIO Argument value */
 356:./Drivers/src/stm32f10x_sdio.c ****   SDIO->ARG = SDIO_CmdInitStruct->SDIO_Argument;
 375              		.loc 1 356 3 view .LVU97
 376              		.loc 1 356 33 is_stmt 0 view .LVU98
 377 0002 0368     		ldr	r3, [r0]
 378              		.loc 1 356 13 view .LVU99
 379 0004 074A     		ldr	r2, .L28
 380 0006 9360     		str	r3, [r2, #8]
 357:./Drivers/src/stm32f10x_sdio.c ****   
 358:./Drivers/src/stm32f10x_sdio.c **** /*---------------------------- SDIO CMD Configuration ------------------------*/  
 359:./Drivers/src/stm32f10x_sdio.c ****   /* Get the SDIO CMD value */
 360:./Drivers/src/stm32f10x_sdio.c ****   tmpreg = SDIO->CMD;
 381              		.loc 1 360 3 is_stmt 1 view .LVU100
 382              		.loc 1 360 10 is_stmt 0 view .LVU101
 383 0008 D168     		ldr	r1, [r2, #12]
 384              	.LVL14:
 361:./Drivers/src/stm32f10x_sdio.c ****   /* Clear CMDINDEX, WAITRESP, WAITINT, WAITPEND, CPSMEN bits */
 362:./Drivers/src/stm32f10x_sdio.c ****   tmpreg &= CMD_CLEAR_MASK;
 385              		.loc 1 362 3 is_stmt 1 view .LVU102
 386              		.loc 1 362 10 is_stmt 0 view .LVU103
 387 000a 6FF30A01 		bfc	r1, #0, #11
 388              	.LVL15:
 363:./Drivers/src/stm32f10x_sdio.c ****   /* Set CMDINDEX bits according to SDIO_CmdIndex value */
 364:./Drivers/src/stm32f10x_sdio.c ****   /* Set WAITRESP bits according to SDIO_Response value */
 365:./Drivers/src/stm32f10x_sdio.c ****   /* Set WAITINT and WAITPEND bits according to SDIO_Wait value */
 366:./Drivers/src/stm32f10x_sdio.c ****   /* Set CPSMEN bits according to SDIO_CPSM value */
 367:./Drivers/src/stm32f10x_sdio.c ****   tmpreg |= (uint32_t)SDIO_CmdInitStruct->SDIO_CmdIndex | SDIO_CmdInitStruct->SDIO_Response
 389              		.loc 1 367 3 is_stmt 1 view .LVU104
 390              		.loc 1 367 41 is_stmt 0 view .LVU105
ARM GAS  /tmp/cc4BEF2L.s 			page 14


 391 000e 4368     		ldr	r3, [r0, #4]
 392              		.loc 1 367 57 view .LVU106
 393 0010 8468     		ldr	r4, [r0, #8]
 394 0012 2343     		orrs	r3, r3, r4
 368:./Drivers/src/stm32f10x_sdio.c ****            | SDIO_CmdInitStruct->SDIO_Wait | SDIO_CmdInitStruct->SDIO_CPSM;
 395              		.loc 1 368 12 view .LVU107
 396 0014 C468     		ldr	r4, [r0, #12]
 397 0016 2343     		orrs	r3, r3, r4
 398              		.loc 1 368 64 view .LVU108
 399 0018 0069     		ldr	r0, [r0, #16]
 400              	.LVL16:
 401              		.loc 1 368 44 view .LVU109
 402 001a 0343     		orrs	r3, r3, r0
 367:./Drivers/src/stm32f10x_sdio.c ****            | SDIO_CmdInitStruct->SDIO_Wait | SDIO_CmdInitStruct->SDIO_CPSM;
 403              		.loc 1 367 10 view .LVU110
 404 001c 0B43     		orrs	r3, r3, r1
 405              	.LVL17:
 369:./Drivers/src/stm32f10x_sdio.c ****   
 370:./Drivers/src/stm32f10x_sdio.c ****   /* Write to SDIO CMD */
 371:./Drivers/src/stm32f10x_sdio.c ****   SDIO->CMD = tmpreg;
 406              		.loc 1 371 3 is_stmt 1 view .LVU111
 407              		.loc 1 371 13 is_stmt 0 view .LVU112
 408 001e D360     		str	r3, [r2, #12]
 372:./Drivers/src/stm32f10x_sdio.c **** }
 409              		.loc 1 372 1 view .LVU113
 410 0020 10BC     		pop	{r4}
 411              	.LCFI3:
 412              		.cfi_restore 4
 413              		.cfi_def_cfa_offset 0
 414 0022 7047     		bx	lr
 415              	.L29:
 416              		.align	2
 417              	.L28:
 418 0024 00800140 		.word	1073840128
 419              		.cfi_endproc
 420              	.LFE37:
 422              		.section	.text.SDIO_CmdStructInit,"ax",%progbits
 423              		.align	1
 424              		.global	SDIO_CmdStructInit
 425              		.syntax unified
 426              		.thumb
 427              		.thumb_func
 429              	SDIO_CmdStructInit:
 430              	.LVL18:
 431              	.LFB38:
 373:./Drivers/src/stm32f10x_sdio.c **** 
 374:./Drivers/src/stm32f10x_sdio.c **** /**
 375:./Drivers/src/stm32f10x_sdio.c ****   * @brief  Fills each SDIO_CmdInitStruct member with its default value.
 376:./Drivers/src/stm32f10x_sdio.c ****   * @param  SDIO_CmdInitStruct: pointer to an SDIO_CmdInitTypeDef 
 377:./Drivers/src/stm32f10x_sdio.c ****   *         structure which will be initialized.
 378:./Drivers/src/stm32f10x_sdio.c ****   * @retval None
 379:./Drivers/src/stm32f10x_sdio.c ****   */
 380:./Drivers/src/stm32f10x_sdio.c **** void SDIO_CmdStructInit(SDIO_CmdInitTypeDef* SDIO_CmdInitStruct)
 381:./Drivers/src/stm32f10x_sdio.c **** {
 432              		.loc 1 381 1 is_stmt 1 view -0
 433              		.cfi_startproc
 434              		@ args = 0, pretend = 0, frame = 0
ARM GAS  /tmp/cc4BEF2L.s 			page 15


 435              		@ frame_needed = 0, uses_anonymous_args = 0
 436              		@ link register save eliminated.
 382:./Drivers/src/stm32f10x_sdio.c ****   /* SDIO_CmdInitStruct members default value */
 383:./Drivers/src/stm32f10x_sdio.c ****   SDIO_CmdInitStruct->SDIO_Argument = 0x00;
 437              		.loc 1 383 3 view .LVU115
 438              		.loc 1 383 37 is_stmt 0 view .LVU116
 439 0000 0023     		movs	r3, #0
 440 0002 0360     		str	r3, [r0]
 384:./Drivers/src/stm32f10x_sdio.c ****   SDIO_CmdInitStruct->SDIO_CmdIndex = 0x00;
 441              		.loc 1 384 3 is_stmt 1 view .LVU117
 442              		.loc 1 384 37 is_stmt 0 view .LVU118
 443 0004 4360     		str	r3, [r0, #4]
 385:./Drivers/src/stm32f10x_sdio.c ****   SDIO_CmdInitStruct->SDIO_Response = SDIO_Response_No;
 444              		.loc 1 385 3 is_stmt 1 view .LVU119
 445              		.loc 1 385 37 is_stmt 0 view .LVU120
 446 0006 8360     		str	r3, [r0, #8]
 386:./Drivers/src/stm32f10x_sdio.c ****   SDIO_CmdInitStruct->SDIO_Wait = SDIO_Wait_No;
 447              		.loc 1 386 3 is_stmt 1 view .LVU121
 448              		.loc 1 386 33 is_stmt 0 view .LVU122
 449 0008 C360     		str	r3, [r0, #12]
 387:./Drivers/src/stm32f10x_sdio.c ****   SDIO_CmdInitStruct->SDIO_CPSM = SDIO_CPSM_Disable;
 450              		.loc 1 387 3 is_stmt 1 view .LVU123
 451              		.loc 1 387 33 is_stmt 0 view .LVU124
 452 000a 0361     		str	r3, [r0, #16]
 388:./Drivers/src/stm32f10x_sdio.c **** }
 453              		.loc 1 388 1 view .LVU125
 454 000c 7047     		bx	lr
 455              		.cfi_endproc
 456              	.LFE38:
 458              		.section	.text.SDIO_GetCommandResponse,"ax",%progbits
 459              		.align	1
 460              		.global	SDIO_GetCommandResponse
 461              		.syntax unified
 462              		.thumb
 463              		.thumb_func
 465              	SDIO_GetCommandResponse:
 466              	.LFB39:
 389:./Drivers/src/stm32f10x_sdio.c **** 
 390:./Drivers/src/stm32f10x_sdio.c **** /**
 391:./Drivers/src/stm32f10x_sdio.c ****   * @brief  Returns command index of last command for which response received.
 392:./Drivers/src/stm32f10x_sdio.c ****   * @param  None
 393:./Drivers/src/stm32f10x_sdio.c ****   * @retval Returns the command index of the last command response received.
 394:./Drivers/src/stm32f10x_sdio.c ****   */
 395:./Drivers/src/stm32f10x_sdio.c **** uint8_t SDIO_GetCommandResponse(void)
 396:./Drivers/src/stm32f10x_sdio.c **** {
 467              		.loc 1 396 1 is_stmt 1 view -0
 468              		.cfi_startproc
 469              		@ args = 0, pretend = 0, frame = 0
 470              		@ frame_needed = 0, uses_anonymous_args = 0
 471              		@ link register save eliminated.
 397:./Drivers/src/stm32f10x_sdio.c ****   return (uint8_t)(SDIO->RESPCMD);
 472              		.loc 1 397 3 view .LVU127
 473              		.loc 1 397 24 is_stmt 0 view .LVU128
 474 0000 014B     		ldr	r3, .L32
 475 0002 1869     		ldr	r0, [r3, #16]
 398:./Drivers/src/stm32f10x_sdio.c **** }
 476              		.loc 1 398 1 view .LVU129
ARM GAS  /tmp/cc4BEF2L.s 			page 16


 477 0004 C0B2     		uxtb	r0, r0
 478 0006 7047     		bx	lr
 479              	.L33:
 480              		.align	2
 481              	.L32:
 482 0008 00800140 		.word	1073840128
 483              		.cfi_endproc
 484              	.LFE39:
 486              		.section	.text.SDIO_GetResponse,"ax",%progbits
 487              		.align	1
 488              		.global	SDIO_GetResponse
 489              		.syntax unified
 490              		.thumb
 491              		.thumb_func
 493              	SDIO_GetResponse:
 494              	.LVL19:
 495              	.LFB40:
 399:./Drivers/src/stm32f10x_sdio.c **** 
 400:./Drivers/src/stm32f10x_sdio.c **** /**
 401:./Drivers/src/stm32f10x_sdio.c ****   * @brief  Returns response received from the card for the last command.
 402:./Drivers/src/stm32f10x_sdio.c ****   * @param  SDIO_RESP: Specifies the SDIO response register. 
 403:./Drivers/src/stm32f10x_sdio.c ****   *   This parameter can be one of the following values:
 404:./Drivers/src/stm32f10x_sdio.c ****   *     @arg SDIO_RESP1: Response Register 1
 405:./Drivers/src/stm32f10x_sdio.c ****   *     @arg SDIO_RESP2: Response Register 2
 406:./Drivers/src/stm32f10x_sdio.c ****   *     @arg SDIO_RESP3: Response Register 3
 407:./Drivers/src/stm32f10x_sdio.c ****   *     @arg SDIO_RESP4: Response Register 4
 408:./Drivers/src/stm32f10x_sdio.c ****   * @retval The Corresponding response register value.
 409:./Drivers/src/stm32f10x_sdio.c ****   */
 410:./Drivers/src/stm32f10x_sdio.c **** uint32_t SDIO_GetResponse(uint32_t SDIO_RESP)
 411:./Drivers/src/stm32f10x_sdio.c **** {
 496              		.loc 1 411 1 is_stmt 1 view -0
 497              		.cfi_startproc
 498              		@ args = 0, pretend = 0, frame = 8
 499              		@ frame_needed = 0, uses_anonymous_args = 0
 500              		@ link register save eliminated.
 501              		.loc 1 411 1 is_stmt 0 view .LVU131
 502 0000 82B0     		sub	sp, sp, #8
 503              	.LCFI4:
 504              		.cfi_def_cfa_offset 8
 412:./Drivers/src/stm32f10x_sdio.c ****   __IO uint32_t tmp = 0;
 505              		.loc 1 412 3 is_stmt 1 view .LVU132
 506              		.loc 1 412 17 is_stmt 0 view .LVU133
 507 0002 0023     		movs	r3, #0
 508 0004 0193     		str	r3, [sp, #4]
 413:./Drivers/src/stm32f10x_sdio.c **** 
 414:./Drivers/src/stm32f10x_sdio.c ****   /* Check the parameters */
 415:./Drivers/src/stm32f10x_sdio.c ****   assert_param(IS_SDIO_RESP(SDIO_RESP));
 509              		.loc 1 415 3 is_stmt 1 view .LVU134
 416:./Drivers/src/stm32f10x_sdio.c **** 
 417:./Drivers/src/stm32f10x_sdio.c ****   tmp = SDIO_RESP_ADDR + SDIO_RESP;
 510              		.loc 1 417 3 view .LVU135
 511              		.loc 1 417 24 is_stmt 0 view .LVU136
 512 0006 034B     		ldr	r3, .L36
 513 0008 0344     		add	r3, r3, r0
 514              		.loc 1 417 7 view .LVU137
 515 000a 0193     		str	r3, [sp, #4]
 418:./Drivers/src/stm32f10x_sdio.c ****   
ARM GAS  /tmp/cc4BEF2L.s 			page 17


 419:./Drivers/src/stm32f10x_sdio.c ****   return (*(__IO uint32_t *) tmp); 
 516              		.loc 1 419 3 is_stmt 1 view .LVU138
 517              		.loc 1 419 12 is_stmt 0 view .LVU139
 518 000c 019B     		ldr	r3, [sp, #4]
 519              		.loc 1 419 11 view .LVU140
 520 000e 1868     		ldr	r0, [r3]
 521              	.LVL20:
 420:./Drivers/src/stm32f10x_sdio.c **** }
 522              		.loc 1 420 1 view .LVU141
 523 0010 02B0     		add	sp, sp, #8
 524              	.LCFI5:
 525              		.cfi_def_cfa_offset 0
 526              		@ sp needed
 527 0012 7047     		bx	lr
 528              	.L37:
 529              		.align	2
 530              	.L36:
 531 0014 14800140 		.word	1073840148
 532              		.cfi_endproc
 533              	.LFE40:
 535              		.section	.text.SDIO_DataConfig,"ax",%progbits
 536              		.align	1
 537              		.global	SDIO_DataConfig
 538              		.syntax unified
 539              		.thumb
 540              		.thumb_func
 542              	SDIO_DataConfig:
 543              	.LVL21:
 544              	.LFB41:
 421:./Drivers/src/stm32f10x_sdio.c **** 
 422:./Drivers/src/stm32f10x_sdio.c **** /**
 423:./Drivers/src/stm32f10x_sdio.c ****   * @brief  Initializes the SDIO data path according to the specified 
 424:./Drivers/src/stm32f10x_sdio.c ****   *   parameters in the SDIO_DataInitStruct.
 425:./Drivers/src/stm32f10x_sdio.c ****   * @param  SDIO_DataInitStruct : pointer to a SDIO_DataInitTypeDef structure that
 426:./Drivers/src/stm32f10x_sdio.c ****   *   contains the configuration information for the SDIO command.
 427:./Drivers/src/stm32f10x_sdio.c ****   * @retval None
 428:./Drivers/src/stm32f10x_sdio.c ****   */
 429:./Drivers/src/stm32f10x_sdio.c **** void SDIO_DataConfig(SDIO_DataInitTypeDef* SDIO_DataInitStruct)
 430:./Drivers/src/stm32f10x_sdio.c **** {
 545              		.loc 1 430 1 is_stmt 1 view -0
 546              		.cfi_startproc
 547              		@ args = 0, pretend = 0, frame = 0
 548              		@ frame_needed = 0, uses_anonymous_args = 0
 549              		@ link register save eliminated.
 550              		.loc 1 430 1 is_stmt 0 view .LVU143
 551 0000 10B4     		push	{r4}
 552              	.LCFI6:
 553              		.cfi_def_cfa_offset 4
 554              		.cfi_offset 4, -4
 431:./Drivers/src/stm32f10x_sdio.c ****   uint32_t tmpreg = 0;
 555              		.loc 1 431 3 is_stmt 1 view .LVU144
 556              	.LVL22:
 432:./Drivers/src/stm32f10x_sdio.c ****   
 433:./Drivers/src/stm32f10x_sdio.c ****   /* Check the parameters */
 434:./Drivers/src/stm32f10x_sdio.c ****   assert_param(IS_SDIO_DATA_LENGTH(SDIO_DataInitStruct->SDIO_DataLength));
 557              		.loc 1 434 3 view .LVU145
 435:./Drivers/src/stm32f10x_sdio.c ****   assert_param(IS_SDIO_BLOCK_SIZE(SDIO_DataInitStruct->SDIO_DataBlockSize));
ARM GAS  /tmp/cc4BEF2L.s 			page 18


 558              		.loc 1 435 3 view .LVU146
 436:./Drivers/src/stm32f10x_sdio.c ****   assert_param(IS_SDIO_TRANSFER_DIR(SDIO_DataInitStruct->SDIO_TransferDir));
 559              		.loc 1 436 3 view .LVU147
 437:./Drivers/src/stm32f10x_sdio.c ****   assert_param(IS_SDIO_TRANSFER_MODE(SDIO_DataInitStruct->SDIO_TransferMode));
 560              		.loc 1 437 3 view .LVU148
 438:./Drivers/src/stm32f10x_sdio.c ****   assert_param(IS_SDIO_DPSM(SDIO_DataInitStruct->SDIO_DPSM));
 561              		.loc 1 438 3 view .LVU149
 439:./Drivers/src/stm32f10x_sdio.c **** 
 440:./Drivers/src/stm32f10x_sdio.c **** /*---------------------------- SDIO DTIMER Configuration ---------------------*/
 441:./Drivers/src/stm32f10x_sdio.c ****   /* Set the SDIO Data TimeOut value */
 442:./Drivers/src/stm32f10x_sdio.c ****   SDIO->DTIMER = SDIO_DataInitStruct->SDIO_DataTimeOut;
 562              		.loc 1 442 3 view .LVU150
 563              		.loc 1 442 37 is_stmt 0 view .LVU151
 564 0002 0368     		ldr	r3, [r0]
 565              		.loc 1 442 16 view .LVU152
 566 0004 084A     		ldr	r2, .L40
 567 0006 5362     		str	r3, [r2, #36]
 443:./Drivers/src/stm32f10x_sdio.c **** 
 444:./Drivers/src/stm32f10x_sdio.c **** /*---------------------------- SDIO DLEN Configuration -----------------------*/
 445:./Drivers/src/stm32f10x_sdio.c ****   /* Set the SDIO DataLength value */
 446:./Drivers/src/stm32f10x_sdio.c ****   SDIO->DLEN = SDIO_DataInitStruct->SDIO_DataLength;
 568              		.loc 1 446 3 is_stmt 1 view .LVU153
 569              		.loc 1 446 35 is_stmt 0 view .LVU154
 570 0008 4368     		ldr	r3, [r0, #4]
 571              		.loc 1 446 14 view .LVU155
 572 000a 9362     		str	r3, [r2, #40]
 447:./Drivers/src/stm32f10x_sdio.c **** 
 448:./Drivers/src/stm32f10x_sdio.c **** /*---------------------------- SDIO DCTRL Configuration ----------------------*/  
 449:./Drivers/src/stm32f10x_sdio.c ****   /* Get the SDIO DCTRL value */
 450:./Drivers/src/stm32f10x_sdio.c ****   tmpreg = SDIO->DCTRL;
 573              		.loc 1 450 3 is_stmt 1 view .LVU156
 574              		.loc 1 450 10 is_stmt 0 view .LVU157
 575 000c D16A     		ldr	r1, [r2, #44]
 576              	.LVL23:
 451:./Drivers/src/stm32f10x_sdio.c ****   /* Clear DEN, DTMODE, DTDIR and DBCKSIZE bits */
 452:./Drivers/src/stm32f10x_sdio.c ****   tmpreg &= DCTRL_CLEAR_MASK;
 577              		.loc 1 452 3 is_stmt 1 view .LVU158
 578              		.loc 1 452 10 is_stmt 0 view .LVU159
 579 000e 21F0F701 		bic	r1, r1, #247
 580              	.LVL24:
 453:./Drivers/src/stm32f10x_sdio.c ****   /* Set DEN bit according to SDIO_DPSM value */
 454:./Drivers/src/stm32f10x_sdio.c ****   /* Set DTMODE bit according to SDIO_TransferMode value */
 455:./Drivers/src/stm32f10x_sdio.c ****   /* Set DTDIR bit according to SDIO_TransferDir value */
 456:./Drivers/src/stm32f10x_sdio.c ****   /* Set DBCKSIZE bits according to SDIO_DataBlockSize value */
 457:./Drivers/src/stm32f10x_sdio.c ****   tmpreg |= (uint32_t)SDIO_DataInitStruct->SDIO_DataBlockSize | SDIO_DataInitStruct->SDIO_TransferD
 581              		.loc 1 457 3 is_stmt 1 view .LVU160
 582              		.loc 1 457 42 is_stmt 0 view .LVU161
 583 0012 8368     		ldr	r3, [r0, #8]
 584              		.loc 1 457 63 view .LVU162
 585 0014 C468     		ldr	r4, [r0, #12]
 586 0016 2343     		orrs	r3, r3, r4
 458:./Drivers/src/stm32f10x_sdio.c ****            | SDIO_DataInitStruct->SDIO_TransferMode | SDIO_DataInitStruct->SDIO_DPSM;
 587              		.loc 1 458 12 view .LVU163
 588 0018 0469     		ldr	r4, [r0, #16]
 589 001a 2343     		orrs	r3, r3, r4
 590              		.loc 1 458 74 view .LVU164
 591 001c 4069     		ldr	r0, [r0, #20]
ARM GAS  /tmp/cc4BEF2L.s 			page 19


 592              	.LVL25:
 593              		.loc 1 458 53 view .LVU165
 594 001e 0343     		orrs	r3, r3, r0
 457:./Drivers/src/stm32f10x_sdio.c ****            | SDIO_DataInitStruct->SDIO_TransferMode | SDIO_DataInitStruct->SDIO_DPSM;
 595              		.loc 1 457 10 view .LVU166
 596 0020 0B43     		orrs	r3, r3, r1
 597              	.LVL26:
 459:./Drivers/src/stm32f10x_sdio.c **** 
 460:./Drivers/src/stm32f10x_sdio.c ****   /* Write to SDIO DCTRL */
 461:./Drivers/src/stm32f10x_sdio.c ****   SDIO->DCTRL = tmpreg;
 598              		.loc 1 461 3 is_stmt 1 view .LVU167
 599              		.loc 1 461 15 is_stmt 0 view .LVU168
 600 0022 D362     		str	r3, [r2, #44]
 462:./Drivers/src/stm32f10x_sdio.c **** }
 601              		.loc 1 462 1 view .LVU169
 602 0024 10BC     		pop	{r4}
 603              	.LCFI7:
 604              		.cfi_restore 4
 605              		.cfi_def_cfa_offset 0
 606 0026 7047     		bx	lr
 607              	.L41:
 608              		.align	2
 609              	.L40:
 610 0028 00800140 		.word	1073840128
 611              		.cfi_endproc
 612              	.LFE41:
 614              		.section	.text.SDIO_DataStructInit,"ax",%progbits
 615              		.align	1
 616              		.global	SDIO_DataStructInit
 617              		.syntax unified
 618              		.thumb
 619              		.thumb_func
 621              	SDIO_DataStructInit:
 622              	.LVL27:
 623              	.LFB42:
 463:./Drivers/src/stm32f10x_sdio.c **** 
 464:./Drivers/src/stm32f10x_sdio.c **** /**
 465:./Drivers/src/stm32f10x_sdio.c ****   * @brief  Fills each SDIO_DataInitStruct member with its default value.
 466:./Drivers/src/stm32f10x_sdio.c ****   * @param  SDIO_DataInitStruct: pointer to an SDIO_DataInitTypeDef structure which
 467:./Drivers/src/stm32f10x_sdio.c ****   *         will be initialized.
 468:./Drivers/src/stm32f10x_sdio.c ****   * @retval None
 469:./Drivers/src/stm32f10x_sdio.c ****   */
 470:./Drivers/src/stm32f10x_sdio.c **** void SDIO_DataStructInit(SDIO_DataInitTypeDef* SDIO_DataInitStruct)
 471:./Drivers/src/stm32f10x_sdio.c **** {
 624              		.loc 1 471 1 is_stmt 1 view -0
 625              		.cfi_startproc
 626              		@ args = 0, pretend = 0, frame = 0
 627              		@ frame_needed = 0, uses_anonymous_args = 0
 628              		@ link register save eliminated.
 472:./Drivers/src/stm32f10x_sdio.c ****   /* SDIO_DataInitStruct members default value */
 473:./Drivers/src/stm32f10x_sdio.c ****   SDIO_DataInitStruct->SDIO_DataTimeOut = 0xFFFFFFFF;
 629              		.loc 1 473 3 view .LVU171
 630              		.loc 1 473 41 is_stmt 0 view .LVU172
 631 0000 4FF0FF33 		mov	r3, #-1
 632 0004 0360     		str	r3, [r0]
 474:./Drivers/src/stm32f10x_sdio.c ****   SDIO_DataInitStruct->SDIO_DataLength = 0x00;
 633              		.loc 1 474 3 is_stmt 1 view .LVU173
ARM GAS  /tmp/cc4BEF2L.s 			page 20


 634              		.loc 1 474 40 is_stmt 0 view .LVU174
 635 0006 0023     		movs	r3, #0
 636 0008 4360     		str	r3, [r0, #4]
 475:./Drivers/src/stm32f10x_sdio.c ****   SDIO_DataInitStruct->SDIO_DataBlockSize = SDIO_DataBlockSize_1b;
 637              		.loc 1 475 3 is_stmt 1 view .LVU175
 638              		.loc 1 475 43 is_stmt 0 view .LVU176
 639 000a 8360     		str	r3, [r0, #8]
 476:./Drivers/src/stm32f10x_sdio.c ****   SDIO_DataInitStruct->SDIO_TransferDir = SDIO_TransferDir_ToCard;
 640              		.loc 1 476 3 is_stmt 1 view .LVU177
 641              		.loc 1 476 41 is_stmt 0 view .LVU178
 642 000c C360     		str	r3, [r0, #12]
 477:./Drivers/src/stm32f10x_sdio.c ****   SDIO_DataInitStruct->SDIO_TransferMode = SDIO_TransferMode_Block;  
 643              		.loc 1 477 3 is_stmt 1 view .LVU179
 644              		.loc 1 477 42 is_stmt 0 view .LVU180
 645 000e 0361     		str	r3, [r0, #16]
 478:./Drivers/src/stm32f10x_sdio.c ****   SDIO_DataInitStruct->SDIO_DPSM = SDIO_DPSM_Disable;
 646              		.loc 1 478 3 is_stmt 1 view .LVU181
 647              		.loc 1 478 34 is_stmt 0 view .LVU182
 648 0010 4361     		str	r3, [r0, #20]
 479:./Drivers/src/stm32f10x_sdio.c **** }
 649              		.loc 1 479 1 view .LVU183
 650 0012 7047     		bx	lr
 651              		.cfi_endproc
 652              	.LFE42:
 654              		.section	.text.SDIO_GetDataCounter,"ax",%progbits
 655              		.align	1
 656              		.global	SDIO_GetDataCounter
 657              		.syntax unified
 658              		.thumb
 659              		.thumb_func
 661              	SDIO_GetDataCounter:
 662              	.LFB43:
 480:./Drivers/src/stm32f10x_sdio.c **** 
 481:./Drivers/src/stm32f10x_sdio.c **** /**
 482:./Drivers/src/stm32f10x_sdio.c ****   * @brief  Returns number of remaining data bytes to be transferred.
 483:./Drivers/src/stm32f10x_sdio.c ****   * @param  None
 484:./Drivers/src/stm32f10x_sdio.c ****   * @retval Number of remaining data bytes to be transferred
 485:./Drivers/src/stm32f10x_sdio.c ****   */
 486:./Drivers/src/stm32f10x_sdio.c **** uint32_t SDIO_GetDataCounter(void)
 487:./Drivers/src/stm32f10x_sdio.c **** { 
 663              		.loc 1 487 1 is_stmt 1 view -0
 664              		.cfi_startproc
 665              		@ args = 0, pretend = 0, frame = 0
 666              		@ frame_needed = 0, uses_anonymous_args = 0
 667              		@ link register save eliminated.
 488:./Drivers/src/stm32f10x_sdio.c ****   return SDIO->DCOUNT;
 668              		.loc 1 488 3 view .LVU185
 669              		.loc 1 488 14 is_stmt 0 view .LVU186
 670 0000 014B     		ldr	r3, .L44
 671 0002 186B     		ldr	r0, [r3, #48]
 489:./Drivers/src/stm32f10x_sdio.c **** }
 672              		.loc 1 489 1 view .LVU187
 673 0004 7047     		bx	lr
 674              	.L45:
 675 0006 00BF     		.align	2
 676              	.L44:
 677 0008 00800140 		.word	1073840128
ARM GAS  /tmp/cc4BEF2L.s 			page 21


 678              		.cfi_endproc
 679              	.LFE43:
 681              		.section	.text.SDIO_ReadData,"ax",%progbits
 682              		.align	1
 683              		.global	SDIO_ReadData
 684              		.syntax unified
 685              		.thumb
 686              		.thumb_func
 688              	SDIO_ReadData:
 689              	.LFB44:
 490:./Drivers/src/stm32f10x_sdio.c **** 
 491:./Drivers/src/stm32f10x_sdio.c **** /**
 492:./Drivers/src/stm32f10x_sdio.c ****   * @brief  Read one data word from Rx FIFO.
 493:./Drivers/src/stm32f10x_sdio.c ****   * @param  None
 494:./Drivers/src/stm32f10x_sdio.c ****   * @retval Data received
 495:./Drivers/src/stm32f10x_sdio.c ****   */
 496:./Drivers/src/stm32f10x_sdio.c **** uint32_t SDIO_ReadData(void)
 497:./Drivers/src/stm32f10x_sdio.c **** { 
 690              		.loc 1 497 1 is_stmt 1 view -0
 691              		.cfi_startproc
 692              		@ args = 0, pretend = 0, frame = 0
 693              		@ frame_needed = 0, uses_anonymous_args = 0
 694              		@ link register save eliminated.
 498:./Drivers/src/stm32f10x_sdio.c ****   return SDIO->FIFO;
 695              		.loc 1 498 3 view .LVU189
 696              		.loc 1 498 14 is_stmt 0 view .LVU190
 697 0000 014B     		ldr	r3, .L47
 698 0002 D3F88000 		ldr	r0, [r3, #128]
 499:./Drivers/src/stm32f10x_sdio.c **** }
 699              		.loc 1 499 1 view .LVU191
 700 0006 7047     		bx	lr
 701              	.L48:
 702              		.align	2
 703              	.L47:
 704 0008 00800140 		.word	1073840128
 705              		.cfi_endproc
 706              	.LFE44:
 708              		.section	.text.SDIO_WriteData,"ax",%progbits
 709              		.align	1
 710              		.global	SDIO_WriteData
 711              		.syntax unified
 712              		.thumb
 713              		.thumb_func
 715              	SDIO_WriteData:
 716              	.LVL28:
 717              	.LFB45:
 500:./Drivers/src/stm32f10x_sdio.c **** 
 501:./Drivers/src/stm32f10x_sdio.c **** /**
 502:./Drivers/src/stm32f10x_sdio.c ****   * @brief  Write one data word to Tx FIFO.
 503:./Drivers/src/stm32f10x_sdio.c ****   * @param  Data: 32-bit data word to write.
 504:./Drivers/src/stm32f10x_sdio.c ****   * @retval None
 505:./Drivers/src/stm32f10x_sdio.c ****   */
 506:./Drivers/src/stm32f10x_sdio.c **** void SDIO_WriteData(uint32_t Data)
 507:./Drivers/src/stm32f10x_sdio.c **** { 
 718              		.loc 1 507 1 is_stmt 1 view -0
 719              		.cfi_startproc
 720              		@ args = 0, pretend = 0, frame = 0
ARM GAS  /tmp/cc4BEF2L.s 			page 22


 721              		@ frame_needed = 0, uses_anonymous_args = 0
 722              		@ link register save eliminated.
 508:./Drivers/src/stm32f10x_sdio.c ****   SDIO->FIFO = Data;
 723              		.loc 1 508 3 view .LVU193
 724              		.loc 1 508 14 is_stmt 0 view .LVU194
 725 0000 014B     		ldr	r3, .L50
 726 0002 C3F88000 		str	r0, [r3, #128]
 509:./Drivers/src/stm32f10x_sdio.c **** }
 727              		.loc 1 509 1 view .LVU195
 728 0006 7047     		bx	lr
 729              	.L51:
 730              		.align	2
 731              	.L50:
 732 0008 00800140 		.word	1073840128
 733              		.cfi_endproc
 734              	.LFE45:
 736              		.section	.text.SDIO_GetFIFOCount,"ax",%progbits
 737              		.align	1
 738              		.global	SDIO_GetFIFOCount
 739              		.syntax unified
 740              		.thumb
 741              		.thumb_func
 743              	SDIO_GetFIFOCount:
 744              	.LFB46:
 510:./Drivers/src/stm32f10x_sdio.c **** 
 511:./Drivers/src/stm32f10x_sdio.c **** /**
 512:./Drivers/src/stm32f10x_sdio.c ****   * @brief  Returns the number of words left to be written to or read from FIFO.	
 513:./Drivers/src/stm32f10x_sdio.c ****   * @param  None
 514:./Drivers/src/stm32f10x_sdio.c ****   * @retval Remaining number of words.
 515:./Drivers/src/stm32f10x_sdio.c ****   */
 516:./Drivers/src/stm32f10x_sdio.c **** uint32_t SDIO_GetFIFOCount(void)
 517:./Drivers/src/stm32f10x_sdio.c **** { 
 745              		.loc 1 517 1 is_stmt 1 view -0
 746              		.cfi_startproc
 747              		@ args = 0, pretend = 0, frame = 0
 748              		@ frame_needed = 0, uses_anonymous_args = 0
 749              		@ link register save eliminated.
 518:./Drivers/src/stm32f10x_sdio.c ****   return SDIO->FIFOCNT;
 750              		.loc 1 518 3 view .LVU197
 751              		.loc 1 518 14 is_stmt 0 view .LVU198
 752 0000 014B     		ldr	r3, .L53
 753 0002 986C     		ldr	r0, [r3, #72]
 519:./Drivers/src/stm32f10x_sdio.c **** }
 754              		.loc 1 519 1 view .LVU199
 755 0004 7047     		bx	lr
 756              	.L54:
 757 0006 00BF     		.align	2
 758              	.L53:
 759 0008 00800140 		.word	1073840128
 760              		.cfi_endproc
 761              	.LFE46:
 763              		.section	.text.SDIO_StartSDIOReadWait,"ax",%progbits
 764              		.align	1
 765              		.global	SDIO_StartSDIOReadWait
 766              		.syntax unified
 767              		.thumb
 768              		.thumb_func
ARM GAS  /tmp/cc4BEF2L.s 			page 23


 770              	SDIO_StartSDIOReadWait:
 771              	.LVL29:
 772              	.LFB47:
 520:./Drivers/src/stm32f10x_sdio.c **** 
 521:./Drivers/src/stm32f10x_sdio.c **** /**
 522:./Drivers/src/stm32f10x_sdio.c ****   * @brief  Starts the SD I/O Read Wait operation.	
 523:./Drivers/src/stm32f10x_sdio.c ****   * @param  NewState: new state of the Start SDIO Read Wait operation. 
 524:./Drivers/src/stm32f10x_sdio.c ****   *   This parameter can be: ENABLE or DISABLE.
 525:./Drivers/src/stm32f10x_sdio.c ****   * @retval None
 526:./Drivers/src/stm32f10x_sdio.c ****   */
 527:./Drivers/src/stm32f10x_sdio.c **** void SDIO_StartSDIOReadWait(FunctionalState NewState)
 528:./Drivers/src/stm32f10x_sdio.c **** { 
 773              		.loc 1 528 1 is_stmt 1 view -0
 774              		.cfi_startproc
 775              		@ args = 0, pretend = 0, frame = 0
 776              		@ frame_needed = 0, uses_anonymous_args = 0
 777              		@ link register save eliminated.
 529:./Drivers/src/stm32f10x_sdio.c ****   /* Check the parameters */
 530:./Drivers/src/stm32f10x_sdio.c ****   assert_param(IS_FUNCTIONAL_STATE(NewState));
 778              		.loc 1 530 3 view .LVU201
 531:./Drivers/src/stm32f10x_sdio.c ****   
 532:./Drivers/src/stm32f10x_sdio.c ****   *(__IO uint32_t *) DCTRL_RWSTART_BB = (uint32_t) NewState;
 779              		.loc 1 532 3 view .LVU202
 780              		.loc 1 532 39 is_stmt 0 view .LVU203
 781 0000 014B     		ldr	r3, .L56
 782 0002 C3F8A005 		str	r0, [r3, #1440]
 533:./Drivers/src/stm32f10x_sdio.c **** }
 783              		.loc 1 533 1 view .LVU204
 784 0006 7047     		bx	lr
 785              	.L57:
 786              		.align	2
 787              	.L56:
 788 0008 00003042 		.word	1110441984
 789              		.cfi_endproc
 790              	.LFE47:
 792              		.section	.text.SDIO_StopSDIOReadWait,"ax",%progbits
 793              		.align	1
 794              		.global	SDIO_StopSDIOReadWait
 795              		.syntax unified
 796              		.thumb
 797              		.thumb_func
 799              	SDIO_StopSDIOReadWait:
 800              	.LVL30:
 801              	.LFB48:
 534:./Drivers/src/stm32f10x_sdio.c **** 
 535:./Drivers/src/stm32f10x_sdio.c **** /**
 536:./Drivers/src/stm32f10x_sdio.c ****   * @brief  Stops the SD I/O Read Wait operation.	
 537:./Drivers/src/stm32f10x_sdio.c ****   * @param  NewState: new state of the Stop SDIO Read Wait operation. 
 538:./Drivers/src/stm32f10x_sdio.c ****   *   This parameter can be: ENABLE or DISABLE.
 539:./Drivers/src/stm32f10x_sdio.c ****   * @retval None
 540:./Drivers/src/stm32f10x_sdio.c ****   */
 541:./Drivers/src/stm32f10x_sdio.c **** void SDIO_StopSDIOReadWait(FunctionalState NewState)
 542:./Drivers/src/stm32f10x_sdio.c **** { 
 802              		.loc 1 542 1 is_stmt 1 view -0
 803              		.cfi_startproc
 804              		@ args = 0, pretend = 0, frame = 0
 805              		@ frame_needed = 0, uses_anonymous_args = 0
ARM GAS  /tmp/cc4BEF2L.s 			page 24


 806              		@ link register save eliminated.
 543:./Drivers/src/stm32f10x_sdio.c ****   /* Check the parameters */
 544:./Drivers/src/stm32f10x_sdio.c ****   assert_param(IS_FUNCTIONAL_STATE(NewState));
 807              		.loc 1 544 3 view .LVU206
 545:./Drivers/src/stm32f10x_sdio.c ****   
 546:./Drivers/src/stm32f10x_sdio.c ****   *(__IO uint32_t *) DCTRL_RWSTOP_BB = (uint32_t) NewState;
 808              		.loc 1 546 3 view .LVU207
 809              		.loc 1 546 38 is_stmt 0 view .LVU208
 810 0000 014B     		ldr	r3, .L59
 811 0002 C3F8A405 		str	r0, [r3, #1444]
 547:./Drivers/src/stm32f10x_sdio.c **** }
 812              		.loc 1 547 1 view .LVU209
 813 0006 7047     		bx	lr
 814              	.L60:
 815              		.align	2
 816              	.L59:
 817 0008 00003042 		.word	1110441984
 818              		.cfi_endproc
 819              	.LFE48:
 821              		.section	.text.SDIO_SetSDIOReadWaitMode,"ax",%progbits
 822              		.align	1
 823              		.global	SDIO_SetSDIOReadWaitMode
 824              		.syntax unified
 825              		.thumb
 826              		.thumb_func
 828              	SDIO_SetSDIOReadWaitMode:
 829              	.LVL31:
 830              	.LFB49:
 548:./Drivers/src/stm32f10x_sdio.c **** 
 549:./Drivers/src/stm32f10x_sdio.c **** /**
 550:./Drivers/src/stm32f10x_sdio.c ****   * @brief  Sets one of the two options of inserting read wait interval.
 551:./Drivers/src/stm32f10x_sdio.c ****   * @param  SDIO_ReadWaitMode: SD I/O Read Wait operation mode.
 552:./Drivers/src/stm32f10x_sdio.c ****   *   This parameter can be:
 553:./Drivers/src/stm32f10x_sdio.c ****   *     @arg SDIO_ReadWaitMode_CLK: Read Wait control by stopping SDIOCLK
 554:./Drivers/src/stm32f10x_sdio.c ****   *     @arg SDIO_ReadWaitMode_DATA2: Read Wait control using SDIO_DATA2
 555:./Drivers/src/stm32f10x_sdio.c ****   * @retval None
 556:./Drivers/src/stm32f10x_sdio.c ****   */
 557:./Drivers/src/stm32f10x_sdio.c **** void SDIO_SetSDIOReadWaitMode(uint32_t SDIO_ReadWaitMode)
 558:./Drivers/src/stm32f10x_sdio.c **** {
 831              		.loc 1 558 1 is_stmt 1 view -0
 832              		.cfi_startproc
 833              		@ args = 0, pretend = 0, frame = 0
 834              		@ frame_needed = 0, uses_anonymous_args = 0
 835              		@ link register save eliminated.
 559:./Drivers/src/stm32f10x_sdio.c ****   /* Check the parameters */
 560:./Drivers/src/stm32f10x_sdio.c ****   assert_param(IS_SDIO_READWAIT_MODE(SDIO_ReadWaitMode));
 836              		.loc 1 560 3 view .LVU211
 561:./Drivers/src/stm32f10x_sdio.c ****   
 562:./Drivers/src/stm32f10x_sdio.c ****   *(__IO uint32_t *) DCTRL_RWMOD_BB = SDIO_ReadWaitMode;
 837              		.loc 1 562 3 view .LVU212
 838              		.loc 1 562 37 is_stmt 0 view .LVU213
 839 0000 014B     		ldr	r3, .L62
 840 0002 C3F8A805 		str	r0, [r3, #1448]
 563:./Drivers/src/stm32f10x_sdio.c **** }
 841              		.loc 1 563 1 view .LVU214
 842 0006 7047     		bx	lr
 843              	.L63:
ARM GAS  /tmp/cc4BEF2L.s 			page 25


 844              		.align	2
 845              	.L62:
 846 0008 00003042 		.word	1110441984
 847              		.cfi_endproc
 848              	.LFE49:
 850              		.section	.text.SDIO_SetSDIOOperation,"ax",%progbits
 851              		.align	1
 852              		.global	SDIO_SetSDIOOperation
 853              		.syntax unified
 854              		.thumb
 855              		.thumb_func
 857              	SDIO_SetSDIOOperation:
 858              	.LVL32:
 859              	.LFB50:
 564:./Drivers/src/stm32f10x_sdio.c **** 
 565:./Drivers/src/stm32f10x_sdio.c **** /**
 566:./Drivers/src/stm32f10x_sdio.c ****   * @brief  Enables or disables the SD I/O Mode Operation.
 567:./Drivers/src/stm32f10x_sdio.c ****   * @param  NewState: new state of SDIO specific operation. 
 568:./Drivers/src/stm32f10x_sdio.c ****   *   This parameter can be: ENABLE or DISABLE.
 569:./Drivers/src/stm32f10x_sdio.c ****   * @retval None
 570:./Drivers/src/stm32f10x_sdio.c ****   */
 571:./Drivers/src/stm32f10x_sdio.c **** void SDIO_SetSDIOOperation(FunctionalState NewState)
 572:./Drivers/src/stm32f10x_sdio.c **** { 
 860              		.loc 1 572 1 is_stmt 1 view -0
 861              		.cfi_startproc
 862              		@ args = 0, pretend = 0, frame = 0
 863              		@ frame_needed = 0, uses_anonymous_args = 0
 864              		@ link register save eliminated.
 573:./Drivers/src/stm32f10x_sdio.c ****   /* Check the parameters */
 574:./Drivers/src/stm32f10x_sdio.c ****   assert_param(IS_FUNCTIONAL_STATE(NewState));
 865              		.loc 1 574 3 view .LVU216
 575:./Drivers/src/stm32f10x_sdio.c ****   
 576:./Drivers/src/stm32f10x_sdio.c ****   *(__IO uint32_t *) DCTRL_SDIOEN_BB = (uint32_t)NewState;
 866              		.loc 1 576 3 view .LVU217
 867              		.loc 1 576 38 is_stmt 0 view .LVU218
 868 0000 014B     		ldr	r3, .L65
 869 0002 C3F8AC05 		str	r0, [r3, #1452]
 577:./Drivers/src/stm32f10x_sdio.c **** }
 870              		.loc 1 577 1 view .LVU219
 871 0006 7047     		bx	lr
 872              	.L66:
 873              		.align	2
 874              	.L65:
 875 0008 00003042 		.word	1110441984
 876              		.cfi_endproc
 877              	.LFE50:
 879              		.section	.text.SDIO_SendSDIOSuspendCmd,"ax",%progbits
 880              		.align	1
 881              		.global	SDIO_SendSDIOSuspendCmd
 882              		.syntax unified
 883              		.thumb
 884              		.thumb_func
 886              	SDIO_SendSDIOSuspendCmd:
 887              	.LVL33:
 888              	.LFB51:
 578:./Drivers/src/stm32f10x_sdio.c **** 
 579:./Drivers/src/stm32f10x_sdio.c **** /**
ARM GAS  /tmp/cc4BEF2L.s 			page 26


 580:./Drivers/src/stm32f10x_sdio.c ****   * @brief  Enables or disables the SD I/O Mode suspend command sending.
 581:./Drivers/src/stm32f10x_sdio.c ****   * @param  NewState: new state of the SD I/O Mode suspend command.
 582:./Drivers/src/stm32f10x_sdio.c ****   *   This parameter can be: ENABLE or DISABLE.
 583:./Drivers/src/stm32f10x_sdio.c ****   * @retval None
 584:./Drivers/src/stm32f10x_sdio.c ****   */
 585:./Drivers/src/stm32f10x_sdio.c **** void SDIO_SendSDIOSuspendCmd(FunctionalState NewState)
 586:./Drivers/src/stm32f10x_sdio.c **** { 
 889              		.loc 1 586 1 is_stmt 1 view -0
 890              		.cfi_startproc
 891              		@ args = 0, pretend = 0, frame = 0
 892              		@ frame_needed = 0, uses_anonymous_args = 0
 893              		@ link register save eliminated.
 587:./Drivers/src/stm32f10x_sdio.c ****   /* Check the parameters */
 588:./Drivers/src/stm32f10x_sdio.c ****   assert_param(IS_FUNCTIONAL_STATE(NewState));
 894              		.loc 1 588 3 view .LVU221
 589:./Drivers/src/stm32f10x_sdio.c ****   
 590:./Drivers/src/stm32f10x_sdio.c ****   *(__IO uint32_t *) CMD_SDIOSUSPEND_BB = (uint32_t)NewState;
 895              		.loc 1 590 3 view .LVU222
 896              		.loc 1 590 41 is_stmt 0 view .LVU223
 897 0000 014B     		ldr	r3, .L68
 898 0002 C3F8AC01 		str	r0, [r3, #428]
 591:./Drivers/src/stm32f10x_sdio.c **** }
 899              		.loc 1 591 1 view .LVU224
 900 0006 7047     		bx	lr
 901              	.L69:
 902              		.align	2
 903              	.L68:
 904 0008 00003042 		.word	1110441984
 905              		.cfi_endproc
 906              	.LFE51:
 908              		.section	.text.SDIO_CommandCompletionCmd,"ax",%progbits
 909              		.align	1
 910              		.global	SDIO_CommandCompletionCmd
 911              		.syntax unified
 912              		.thumb
 913              		.thumb_func
 915              	SDIO_CommandCompletionCmd:
 916              	.LVL34:
 917              	.LFB52:
 592:./Drivers/src/stm32f10x_sdio.c **** 
 593:./Drivers/src/stm32f10x_sdio.c **** /**
 594:./Drivers/src/stm32f10x_sdio.c ****   * @brief  Enables or disables the command completion signal.
 595:./Drivers/src/stm32f10x_sdio.c ****   * @param  NewState: new state of command completion signal. 
 596:./Drivers/src/stm32f10x_sdio.c ****   *   This parameter can be: ENABLE or DISABLE.
 597:./Drivers/src/stm32f10x_sdio.c ****   * @retval None
 598:./Drivers/src/stm32f10x_sdio.c ****   */
 599:./Drivers/src/stm32f10x_sdio.c **** void SDIO_CommandCompletionCmd(FunctionalState NewState)
 600:./Drivers/src/stm32f10x_sdio.c **** { 
 918              		.loc 1 600 1 is_stmt 1 view -0
 919              		.cfi_startproc
 920              		@ args = 0, pretend = 0, frame = 0
 921              		@ frame_needed = 0, uses_anonymous_args = 0
 922              		@ link register save eliminated.
 601:./Drivers/src/stm32f10x_sdio.c ****   /* Check the parameters */
 602:./Drivers/src/stm32f10x_sdio.c ****   assert_param(IS_FUNCTIONAL_STATE(NewState));
 923              		.loc 1 602 3 view .LVU226
 603:./Drivers/src/stm32f10x_sdio.c ****   
ARM GAS  /tmp/cc4BEF2L.s 			page 27


 604:./Drivers/src/stm32f10x_sdio.c ****   *(__IO uint32_t *) CMD_ENCMDCOMPL_BB = (uint32_t)NewState;
 924              		.loc 1 604 3 view .LVU227
 925              		.loc 1 604 40 is_stmt 0 view .LVU228
 926 0000 014B     		ldr	r3, .L71
 927 0002 C3F8B001 		str	r0, [r3, #432]
 605:./Drivers/src/stm32f10x_sdio.c **** }
 928              		.loc 1 605 1 view .LVU229
 929 0006 7047     		bx	lr
 930              	.L72:
 931              		.align	2
 932              	.L71:
 933 0008 00003042 		.word	1110441984
 934              		.cfi_endproc
 935              	.LFE52:
 937              		.section	.text.SDIO_CEATAITCmd,"ax",%progbits
 938              		.align	1
 939              		.global	SDIO_CEATAITCmd
 940              		.syntax unified
 941              		.thumb
 942              		.thumb_func
 944              	SDIO_CEATAITCmd:
 945              	.LVL35:
 946              	.LFB53:
 606:./Drivers/src/stm32f10x_sdio.c **** 
 607:./Drivers/src/stm32f10x_sdio.c **** /**
 608:./Drivers/src/stm32f10x_sdio.c ****   * @brief  Enables or disables the CE-ATA interrupt.
 609:./Drivers/src/stm32f10x_sdio.c ****   * @param  NewState: new state of CE-ATA interrupt. This parameter can be: ENABLE or DISABLE.
 610:./Drivers/src/stm32f10x_sdio.c ****   * @retval None
 611:./Drivers/src/stm32f10x_sdio.c ****   */
 612:./Drivers/src/stm32f10x_sdio.c **** void SDIO_CEATAITCmd(FunctionalState NewState)
 613:./Drivers/src/stm32f10x_sdio.c **** { 
 947              		.loc 1 613 1 is_stmt 1 view -0
 948              		.cfi_startproc
 949              		@ args = 0, pretend = 0, frame = 0
 950              		@ frame_needed = 0, uses_anonymous_args = 0
 951              		@ link register save eliminated.
 614:./Drivers/src/stm32f10x_sdio.c ****   /* Check the parameters */
 615:./Drivers/src/stm32f10x_sdio.c ****   assert_param(IS_FUNCTIONAL_STATE(NewState));
 952              		.loc 1 615 3 view .LVU231
 616:./Drivers/src/stm32f10x_sdio.c ****   
 617:./Drivers/src/stm32f10x_sdio.c ****   *(__IO uint32_t *) CMD_NIEN_BB = (uint32_t)((~((uint32_t)NewState)) & ((uint32_t)0x1));
 953              		.loc 1 617 3 view .LVU232
 954              		.loc 1 617 48 is_stmt 0 view .LVU233
 955 0000 C043     		mvns	r0, r0
 956              	.LVL36:
 957              		.loc 1 617 36 view .LVU234
 958 0002 00F00100 		and	r0, r0, #1
 959              	.LVL37:
 960              		.loc 1 617 34 view .LVU235
 961 0006 024B     		ldr	r3, .L74
 962 0008 C3F8B401 		str	r0, [r3, #436]
 618:./Drivers/src/stm32f10x_sdio.c **** }
 963              		.loc 1 618 1 view .LVU236
 964 000c 7047     		bx	lr
 965              	.L75:
 966 000e 00BF     		.align	2
 967              	.L74:
ARM GAS  /tmp/cc4BEF2L.s 			page 28


 968 0010 00003042 		.word	1110441984
 969              		.cfi_endproc
 970              	.LFE53:
 972              		.section	.text.SDIO_SendCEATACmd,"ax",%progbits
 973              		.align	1
 974              		.global	SDIO_SendCEATACmd
 975              		.syntax unified
 976              		.thumb
 977              		.thumb_func
 979              	SDIO_SendCEATACmd:
 980              	.LVL38:
 981              	.LFB54:
 619:./Drivers/src/stm32f10x_sdio.c **** 
 620:./Drivers/src/stm32f10x_sdio.c **** /**
 621:./Drivers/src/stm32f10x_sdio.c ****   * @brief  Sends CE-ATA command (CMD61).
 622:./Drivers/src/stm32f10x_sdio.c ****   * @param  NewState: new state of CE-ATA command. This parameter can be: ENABLE or DISABLE.
 623:./Drivers/src/stm32f10x_sdio.c ****   * @retval None
 624:./Drivers/src/stm32f10x_sdio.c ****   */
 625:./Drivers/src/stm32f10x_sdio.c **** void SDIO_SendCEATACmd(FunctionalState NewState)
 626:./Drivers/src/stm32f10x_sdio.c **** { 
 982              		.loc 1 626 1 is_stmt 1 view -0
 983              		.cfi_startproc
 984              		@ args = 0, pretend = 0, frame = 0
 985              		@ frame_needed = 0, uses_anonymous_args = 0
 986              		@ link register save eliminated.
 627:./Drivers/src/stm32f10x_sdio.c ****   /* Check the parameters */
 628:./Drivers/src/stm32f10x_sdio.c ****   assert_param(IS_FUNCTIONAL_STATE(NewState));
 987              		.loc 1 628 3 view .LVU238
 629:./Drivers/src/stm32f10x_sdio.c ****   
 630:./Drivers/src/stm32f10x_sdio.c ****   *(__IO uint32_t *) CMD_ATACMD_BB = (uint32_t)NewState;
 988              		.loc 1 630 3 view .LVU239
 989              		.loc 1 630 36 is_stmt 0 view .LVU240
 990 0000 014B     		ldr	r3, .L77
 991 0002 C3F8B801 		str	r0, [r3, #440]
 631:./Drivers/src/stm32f10x_sdio.c **** }
 992              		.loc 1 631 1 view .LVU241
 993 0006 7047     		bx	lr
 994              	.L78:
 995              		.align	2
 996              	.L77:
 997 0008 00003042 		.word	1110441984
 998              		.cfi_endproc
 999              	.LFE54:
 1001              		.section	.text.SDIO_GetFlagStatus,"ax",%progbits
 1002              		.align	1
 1003              		.global	SDIO_GetFlagStatus
 1004              		.syntax unified
 1005              		.thumb
 1006              		.thumb_func
 1008              	SDIO_GetFlagStatus:
 1009              	.LVL39:
 1010              	.LFB55:
 632:./Drivers/src/stm32f10x_sdio.c **** 
 633:./Drivers/src/stm32f10x_sdio.c **** /**
 634:./Drivers/src/stm32f10x_sdio.c ****   * @brief  Checks whether the specified SDIO flag is set or not.
 635:./Drivers/src/stm32f10x_sdio.c ****   * @param  SDIO_FLAG: specifies the flag to check. 
 636:./Drivers/src/stm32f10x_sdio.c ****   *   This parameter can be one of the following values:
ARM GAS  /tmp/cc4BEF2L.s 			page 29


 637:./Drivers/src/stm32f10x_sdio.c ****   *     @arg SDIO_FLAG_CCRCFAIL: Command response received (CRC check failed)
 638:./Drivers/src/stm32f10x_sdio.c ****   *     @arg SDIO_FLAG_DCRCFAIL: Data block sent/received (CRC check failed)
 639:./Drivers/src/stm32f10x_sdio.c ****   *     @arg SDIO_FLAG_CTIMEOUT: Command response timeout
 640:./Drivers/src/stm32f10x_sdio.c ****   *     @arg SDIO_FLAG_DTIMEOUT: Data timeout
 641:./Drivers/src/stm32f10x_sdio.c ****   *     @arg SDIO_FLAG_TXUNDERR: Transmit FIFO underrun error
 642:./Drivers/src/stm32f10x_sdio.c ****   *     @arg SDIO_FLAG_RXOVERR:  Received FIFO overrun error
 643:./Drivers/src/stm32f10x_sdio.c ****   *     @arg SDIO_FLAG_CMDREND:  Command response received (CRC check passed)
 644:./Drivers/src/stm32f10x_sdio.c ****   *     @arg SDIO_FLAG_CMDSENT:  Command sent (no response required)
 645:./Drivers/src/stm32f10x_sdio.c ****   *     @arg SDIO_FLAG_DATAEND:  Data end (data counter, SDIDCOUNT, is zero)
 646:./Drivers/src/stm32f10x_sdio.c ****   *     @arg SDIO_FLAG_STBITERR: Start bit not detected on all data signals in wide 
 647:./Drivers/src/stm32f10x_sdio.c ****   *                              bus mode.
 648:./Drivers/src/stm32f10x_sdio.c ****   *     @arg SDIO_FLAG_DBCKEND:  Data block sent/received (CRC check passed)
 649:./Drivers/src/stm32f10x_sdio.c ****   *     @arg SDIO_FLAG_CMDACT:   Command transfer in progress
 650:./Drivers/src/stm32f10x_sdio.c ****   *     @arg SDIO_FLAG_TXACT:    Data transmit in progress
 651:./Drivers/src/stm32f10x_sdio.c ****   *     @arg SDIO_FLAG_RXACT:    Data receive in progress
 652:./Drivers/src/stm32f10x_sdio.c ****   *     @arg SDIO_FLAG_TXFIFOHE: Transmit FIFO Half Empty
 653:./Drivers/src/stm32f10x_sdio.c ****   *     @arg SDIO_FLAG_RXFIFOHF: Receive FIFO Half Full
 654:./Drivers/src/stm32f10x_sdio.c ****   *     @arg SDIO_FLAG_TXFIFOF:  Transmit FIFO full
 655:./Drivers/src/stm32f10x_sdio.c ****   *     @arg SDIO_FLAG_RXFIFOF:  Receive FIFO full
 656:./Drivers/src/stm32f10x_sdio.c ****   *     @arg SDIO_FLAG_TXFIFOE:  Transmit FIFO empty
 657:./Drivers/src/stm32f10x_sdio.c ****   *     @arg SDIO_FLAG_RXFIFOE:  Receive FIFO empty
 658:./Drivers/src/stm32f10x_sdio.c ****   *     @arg SDIO_FLAG_TXDAVL:   Data available in transmit FIFO
 659:./Drivers/src/stm32f10x_sdio.c ****   *     @arg SDIO_FLAG_RXDAVL:   Data available in receive FIFO
 660:./Drivers/src/stm32f10x_sdio.c ****   *     @arg SDIO_FLAG_SDIOIT:   SD I/O interrupt received
 661:./Drivers/src/stm32f10x_sdio.c ****   *     @arg SDIO_FLAG_CEATAEND: CE-ATA command completion signal received for CMD61
 662:./Drivers/src/stm32f10x_sdio.c ****   * @retval The new state of SDIO_FLAG (SET or RESET).
 663:./Drivers/src/stm32f10x_sdio.c ****   */
 664:./Drivers/src/stm32f10x_sdio.c **** FlagStatus SDIO_GetFlagStatus(uint32_t SDIO_FLAG)
 665:./Drivers/src/stm32f10x_sdio.c **** { 
 1011              		.loc 1 665 1 is_stmt 1 view -0
 1012              		.cfi_startproc
 1013              		@ args = 0, pretend = 0, frame = 0
 1014              		@ frame_needed = 0, uses_anonymous_args = 0
 1015              		@ link register save eliminated.
 666:./Drivers/src/stm32f10x_sdio.c ****   FlagStatus bitstatus = RESET;
 1016              		.loc 1 666 3 view .LVU243
 667:./Drivers/src/stm32f10x_sdio.c ****   
 668:./Drivers/src/stm32f10x_sdio.c ****   /* Check the parameters */
 669:./Drivers/src/stm32f10x_sdio.c ****   assert_param(IS_SDIO_FLAG(SDIO_FLAG));
 1017              		.loc 1 669 3 view .LVU244
 670:./Drivers/src/stm32f10x_sdio.c ****   
 671:./Drivers/src/stm32f10x_sdio.c ****   if ((SDIO->STA & SDIO_FLAG) != (uint32_t)RESET)
 1018              		.loc 1 671 3 view .LVU245
 1019              		.loc 1 671 12 is_stmt 0 view .LVU246
 1020 0000 034B     		ldr	r3, .L82
 1021 0002 5B6B     		ldr	r3, [r3, #52]
 1022              		.loc 1 671 6 view .LVU247
 1023 0004 0342     		tst	r3, r0
 1024 0006 01D0     		beq	.L81
 672:./Drivers/src/stm32f10x_sdio.c ****   {
 673:./Drivers/src/stm32f10x_sdio.c ****     bitstatus = SET;
 1025              		.loc 1 673 15 view .LVU248
 1026 0008 0120     		movs	r0, #1
 1027              	.LVL40:
 1028              		.loc 1 673 15 view .LVU249
 1029 000a 7047     		bx	lr
 1030              	.LVL41:
ARM GAS  /tmp/cc4BEF2L.s 			page 30


 1031              	.L81:
 674:./Drivers/src/stm32f10x_sdio.c ****   }
 675:./Drivers/src/stm32f10x_sdio.c ****   else
 676:./Drivers/src/stm32f10x_sdio.c ****   {
 677:./Drivers/src/stm32f10x_sdio.c ****     bitstatus = RESET;
 1032              		.loc 1 677 15 view .LVU250
 1033 000c 0020     		movs	r0, #0
 1034              	.LVL42:
 678:./Drivers/src/stm32f10x_sdio.c ****   }
 679:./Drivers/src/stm32f10x_sdio.c ****   return bitstatus;
 1035              		.loc 1 679 3 is_stmt 1 view .LVU251
 680:./Drivers/src/stm32f10x_sdio.c **** }
 1036              		.loc 1 680 1 is_stmt 0 view .LVU252
 1037 000e 7047     		bx	lr
 1038              	.L83:
 1039              		.align	2
 1040              	.L82:
 1041 0010 00800140 		.word	1073840128
 1042              		.cfi_endproc
 1043              	.LFE55:
 1045              		.section	.text.SDIO_ClearFlag,"ax",%progbits
 1046              		.align	1
 1047              		.global	SDIO_ClearFlag
 1048              		.syntax unified
 1049              		.thumb
 1050              		.thumb_func
 1052              	SDIO_ClearFlag:
 1053              	.LVL43:
 1054              	.LFB56:
 681:./Drivers/src/stm32f10x_sdio.c **** 
 682:./Drivers/src/stm32f10x_sdio.c **** /**
 683:./Drivers/src/stm32f10x_sdio.c ****   * @brief  Clears the SDIO's pending flags.
 684:./Drivers/src/stm32f10x_sdio.c ****   * @param  SDIO_FLAG: specifies the flag to clear.  
 685:./Drivers/src/stm32f10x_sdio.c ****   *   This parameter can be one or a combination of the following values:
 686:./Drivers/src/stm32f10x_sdio.c ****   *     @arg SDIO_FLAG_CCRCFAIL: Command response received (CRC check failed)
 687:./Drivers/src/stm32f10x_sdio.c ****   *     @arg SDIO_FLAG_DCRCFAIL: Data block sent/received (CRC check failed)
 688:./Drivers/src/stm32f10x_sdio.c ****   *     @arg SDIO_FLAG_CTIMEOUT: Command response timeout
 689:./Drivers/src/stm32f10x_sdio.c ****   *     @arg SDIO_FLAG_DTIMEOUT: Data timeout
 690:./Drivers/src/stm32f10x_sdio.c ****   *     @arg SDIO_FLAG_TXUNDERR: Transmit FIFO underrun error
 691:./Drivers/src/stm32f10x_sdio.c ****   *     @arg SDIO_FLAG_RXOVERR:  Received FIFO overrun error
 692:./Drivers/src/stm32f10x_sdio.c ****   *     @arg SDIO_FLAG_CMDREND:  Command response received (CRC check passed)
 693:./Drivers/src/stm32f10x_sdio.c ****   *     @arg SDIO_FLAG_CMDSENT:  Command sent (no response required)
 694:./Drivers/src/stm32f10x_sdio.c ****   *     @arg SDIO_FLAG_DATAEND:  Data end (data counter, SDIDCOUNT, is zero)
 695:./Drivers/src/stm32f10x_sdio.c ****   *     @arg SDIO_FLAG_STBITERR: Start bit not detected on all data signals in wide 
 696:./Drivers/src/stm32f10x_sdio.c ****   *                              bus mode
 697:./Drivers/src/stm32f10x_sdio.c ****   *     @arg SDIO_FLAG_DBCKEND:  Data block sent/received (CRC check passed)
 698:./Drivers/src/stm32f10x_sdio.c ****   *     @arg SDIO_FLAG_SDIOIT:   SD I/O interrupt received
 699:./Drivers/src/stm32f10x_sdio.c ****   *     @arg SDIO_FLAG_CEATAEND: CE-ATA command completion signal received for CMD61
 700:./Drivers/src/stm32f10x_sdio.c ****   * @retval None
 701:./Drivers/src/stm32f10x_sdio.c ****   */
 702:./Drivers/src/stm32f10x_sdio.c **** void SDIO_ClearFlag(uint32_t SDIO_FLAG)
 703:./Drivers/src/stm32f10x_sdio.c **** { 
 1055              		.loc 1 703 1 is_stmt 1 view -0
 1056              		.cfi_startproc
 1057              		@ args = 0, pretend = 0, frame = 0
 1058              		@ frame_needed = 0, uses_anonymous_args = 0
 1059              		@ link register save eliminated.
ARM GAS  /tmp/cc4BEF2L.s 			page 31


 704:./Drivers/src/stm32f10x_sdio.c ****   /* Check the parameters */
 705:./Drivers/src/stm32f10x_sdio.c ****   assert_param(IS_SDIO_CLEAR_FLAG(SDIO_FLAG));
 1060              		.loc 1 705 3 view .LVU254
 706:./Drivers/src/stm32f10x_sdio.c ****    
 707:./Drivers/src/stm32f10x_sdio.c ****   SDIO->ICR = SDIO_FLAG;
 1061              		.loc 1 707 3 view .LVU255
 1062              		.loc 1 707 13 is_stmt 0 view .LVU256
 1063 0000 014B     		ldr	r3, .L85
 1064 0002 9863     		str	r0, [r3, #56]
 708:./Drivers/src/stm32f10x_sdio.c **** }
 1065              		.loc 1 708 1 view .LVU257
 1066 0004 7047     		bx	lr
 1067              	.L86:
 1068 0006 00BF     		.align	2
 1069              	.L85:
 1070 0008 00800140 		.word	1073840128
 1071              		.cfi_endproc
 1072              	.LFE56:
 1074              		.section	.text.SDIO_GetITStatus,"ax",%progbits
 1075              		.align	1
 1076              		.global	SDIO_GetITStatus
 1077              		.syntax unified
 1078              		.thumb
 1079              		.thumb_func
 1081              	SDIO_GetITStatus:
 1082              	.LVL44:
 1083              	.LFB57:
 709:./Drivers/src/stm32f10x_sdio.c **** 
 710:./Drivers/src/stm32f10x_sdio.c **** /**
 711:./Drivers/src/stm32f10x_sdio.c ****   * @brief  Checks whether the specified SDIO interrupt has occurred or not.
 712:./Drivers/src/stm32f10x_sdio.c ****   * @param  SDIO_IT: specifies the SDIO interrupt source to check. 
 713:./Drivers/src/stm32f10x_sdio.c ****   *   This parameter can be one of the following values:
 714:./Drivers/src/stm32f10x_sdio.c ****   *     @arg SDIO_IT_CCRCFAIL: Command response received (CRC check failed) interrupt
 715:./Drivers/src/stm32f10x_sdio.c ****   *     @arg SDIO_IT_DCRCFAIL: Data block sent/received (CRC check failed) interrupt
 716:./Drivers/src/stm32f10x_sdio.c ****   *     @arg SDIO_IT_CTIMEOUT: Command response timeout interrupt
 717:./Drivers/src/stm32f10x_sdio.c ****   *     @arg SDIO_IT_DTIMEOUT: Data timeout interrupt
 718:./Drivers/src/stm32f10x_sdio.c ****   *     @arg SDIO_IT_TXUNDERR: Transmit FIFO underrun error interrupt
 719:./Drivers/src/stm32f10x_sdio.c ****   *     @arg SDIO_IT_RXOVERR:  Received FIFO overrun error interrupt
 720:./Drivers/src/stm32f10x_sdio.c ****   *     @arg SDIO_IT_CMDREND:  Command response received (CRC check passed) interrupt
 721:./Drivers/src/stm32f10x_sdio.c ****   *     @arg SDIO_IT_CMDSENT:  Command sent (no response required) interrupt
 722:./Drivers/src/stm32f10x_sdio.c ****   *     @arg SDIO_IT_DATAEND:  Data end (data counter, SDIDCOUNT, is zero) interrupt
 723:./Drivers/src/stm32f10x_sdio.c ****   *     @arg SDIO_IT_STBITERR: Start bit not detected on all data signals in wide 
 724:./Drivers/src/stm32f10x_sdio.c ****   *                            bus mode interrupt
 725:./Drivers/src/stm32f10x_sdio.c ****   *     @arg SDIO_IT_DBCKEND:  Data block sent/received (CRC check passed) interrupt
 726:./Drivers/src/stm32f10x_sdio.c ****   *     @arg SDIO_IT_CMDACT:   Command transfer in progress interrupt
 727:./Drivers/src/stm32f10x_sdio.c ****   *     @arg SDIO_IT_TXACT:    Data transmit in progress interrupt
 728:./Drivers/src/stm32f10x_sdio.c ****   *     @arg SDIO_IT_RXACT:    Data receive in progress interrupt
 729:./Drivers/src/stm32f10x_sdio.c ****   *     @arg SDIO_IT_TXFIFOHE: Transmit FIFO Half Empty interrupt
 730:./Drivers/src/stm32f10x_sdio.c ****   *     @arg SDIO_IT_RXFIFOHF: Receive FIFO Half Full interrupt
 731:./Drivers/src/stm32f10x_sdio.c ****   *     @arg SDIO_IT_TXFIFOF:  Transmit FIFO full interrupt
 732:./Drivers/src/stm32f10x_sdio.c ****   *     @arg SDIO_IT_RXFIFOF:  Receive FIFO full interrupt
 733:./Drivers/src/stm32f10x_sdio.c ****   *     @arg SDIO_IT_TXFIFOE:  Transmit FIFO empty interrupt
 734:./Drivers/src/stm32f10x_sdio.c ****   *     @arg SDIO_IT_RXFIFOE:  Receive FIFO empty interrupt
 735:./Drivers/src/stm32f10x_sdio.c ****   *     @arg SDIO_IT_TXDAVL:   Data available in transmit FIFO interrupt
 736:./Drivers/src/stm32f10x_sdio.c ****   *     @arg SDIO_IT_RXDAVL:   Data available in receive FIFO interrupt
 737:./Drivers/src/stm32f10x_sdio.c ****   *     @arg SDIO_IT_SDIOIT:   SD I/O interrupt received interrupt
 738:./Drivers/src/stm32f10x_sdio.c ****   *     @arg SDIO_IT_CEATAEND: CE-ATA command completion signal received for CMD61 interrupt
ARM GAS  /tmp/cc4BEF2L.s 			page 32


 739:./Drivers/src/stm32f10x_sdio.c ****   * @retval The new state of SDIO_IT (SET or RESET).
 740:./Drivers/src/stm32f10x_sdio.c ****   */
 741:./Drivers/src/stm32f10x_sdio.c **** ITStatus SDIO_GetITStatus(uint32_t SDIO_IT)
 742:./Drivers/src/stm32f10x_sdio.c **** { 
 1084              		.loc 1 742 1 is_stmt 1 view -0
 1085              		.cfi_startproc
 1086              		@ args = 0, pretend = 0, frame = 0
 1087              		@ frame_needed = 0, uses_anonymous_args = 0
 1088              		@ link register save eliminated.
 743:./Drivers/src/stm32f10x_sdio.c ****   ITStatus bitstatus = RESET;
 1089              		.loc 1 743 3 view .LVU259
 744:./Drivers/src/stm32f10x_sdio.c ****   
 745:./Drivers/src/stm32f10x_sdio.c ****   /* Check the parameters */
 746:./Drivers/src/stm32f10x_sdio.c ****   assert_param(IS_SDIO_GET_IT(SDIO_IT));
 1090              		.loc 1 746 3 view .LVU260
 747:./Drivers/src/stm32f10x_sdio.c ****   if ((SDIO->STA & SDIO_IT) != (uint32_t)RESET)  
 1091              		.loc 1 747 3 view .LVU261
 1092              		.loc 1 747 12 is_stmt 0 view .LVU262
 1093 0000 034B     		ldr	r3, .L90
 1094 0002 5B6B     		ldr	r3, [r3, #52]
 1095              		.loc 1 747 6 view .LVU263
 1096 0004 0342     		tst	r3, r0
 1097 0006 01D0     		beq	.L89
 748:./Drivers/src/stm32f10x_sdio.c ****   {
 749:./Drivers/src/stm32f10x_sdio.c ****     bitstatus = SET;
 1098              		.loc 1 749 15 view .LVU264
 1099 0008 0120     		movs	r0, #1
 1100              	.LVL45:
 1101              		.loc 1 749 15 view .LVU265
 1102 000a 7047     		bx	lr
 1103              	.LVL46:
 1104              	.L89:
 750:./Drivers/src/stm32f10x_sdio.c ****   }
 751:./Drivers/src/stm32f10x_sdio.c ****   else
 752:./Drivers/src/stm32f10x_sdio.c ****   {
 753:./Drivers/src/stm32f10x_sdio.c ****     bitstatus = RESET;
 1105              		.loc 1 753 15 view .LVU266
 1106 000c 0020     		movs	r0, #0
 1107              	.LVL47:
 754:./Drivers/src/stm32f10x_sdio.c ****   }
 755:./Drivers/src/stm32f10x_sdio.c ****   return bitstatus;
 1108              		.loc 1 755 3 is_stmt 1 view .LVU267
 756:./Drivers/src/stm32f10x_sdio.c **** }
 1109              		.loc 1 756 1 is_stmt 0 view .LVU268
 1110 000e 7047     		bx	lr
 1111              	.L91:
 1112              		.align	2
 1113              	.L90:
 1114 0010 00800140 		.word	1073840128
 1115              		.cfi_endproc
 1116              	.LFE57:
 1118              		.section	.text.SDIO_ClearITPendingBit,"ax",%progbits
 1119              		.align	1
 1120              		.global	SDIO_ClearITPendingBit
 1121              		.syntax unified
 1122              		.thumb
 1123              		.thumb_func
ARM GAS  /tmp/cc4BEF2L.s 			page 33


 1125              	SDIO_ClearITPendingBit:
 1126              	.LVL48:
 1127              	.LFB58:
 757:./Drivers/src/stm32f10x_sdio.c **** 
 758:./Drivers/src/stm32f10x_sdio.c **** /**
 759:./Drivers/src/stm32f10x_sdio.c ****   * @brief  Clears the SDIO's interrupt pending bits.
 760:./Drivers/src/stm32f10x_sdio.c ****   * @param  SDIO_IT: specifies the interrupt pending bit to clear. 
 761:./Drivers/src/stm32f10x_sdio.c ****   *   This parameter can be one or a combination of the following values:
 762:./Drivers/src/stm32f10x_sdio.c ****   *     @arg SDIO_IT_CCRCFAIL: Command response received (CRC check failed) interrupt
 763:./Drivers/src/stm32f10x_sdio.c ****   *     @arg SDIO_IT_DCRCFAIL: Data block sent/received (CRC check failed) interrupt
 764:./Drivers/src/stm32f10x_sdio.c ****   *     @arg SDIO_IT_CTIMEOUT: Command response timeout interrupt
 765:./Drivers/src/stm32f10x_sdio.c ****   *     @arg SDIO_IT_DTIMEOUT: Data timeout interrupt
 766:./Drivers/src/stm32f10x_sdio.c ****   *     @arg SDIO_IT_TXUNDERR: Transmit FIFO underrun error interrupt
 767:./Drivers/src/stm32f10x_sdio.c ****   *     @arg SDIO_IT_RXOVERR:  Received FIFO overrun error interrupt
 768:./Drivers/src/stm32f10x_sdio.c ****   *     @arg SDIO_IT_CMDREND:  Command response received (CRC check passed) interrupt
 769:./Drivers/src/stm32f10x_sdio.c ****   *     @arg SDIO_IT_CMDSENT:  Command sent (no response required) interrupt
 770:./Drivers/src/stm32f10x_sdio.c ****   *     @arg SDIO_IT_DATAEND:  Data end (data counter, SDIDCOUNT, is zero) interrupt
 771:./Drivers/src/stm32f10x_sdio.c ****   *     @arg SDIO_IT_STBITERR: Start bit not detected on all data signals in wide 
 772:./Drivers/src/stm32f10x_sdio.c ****   *                            bus mode interrupt
 773:./Drivers/src/stm32f10x_sdio.c ****   *     @arg SDIO_IT_SDIOIT:   SD I/O interrupt received interrupt
 774:./Drivers/src/stm32f10x_sdio.c ****   *     @arg SDIO_IT_CEATAEND: CE-ATA command completion signal received for CMD61
 775:./Drivers/src/stm32f10x_sdio.c ****   * @retval None
 776:./Drivers/src/stm32f10x_sdio.c ****   */
 777:./Drivers/src/stm32f10x_sdio.c **** void SDIO_ClearITPendingBit(uint32_t SDIO_IT)
 778:./Drivers/src/stm32f10x_sdio.c **** { 
 1128              		.loc 1 778 1 is_stmt 1 view -0
 1129              		.cfi_startproc
 1130              		@ args = 0, pretend = 0, frame = 0
 1131              		@ frame_needed = 0, uses_anonymous_args = 0
 1132              		@ link register save eliminated.
 779:./Drivers/src/stm32f10x_sdio.c ****   /* Check the parameters */
 780:./Drivers/src/stm32f10x_sdio.c ****   assert_param(IS_SDIO_CLEAR_IT(SDIO_IT));
 1133              		.loc 1 780 3 view .LVU270
 781:./Drivers/src/stm32f10x_sdio.c ****    
 782:./Drivers/src/stm32f10x_sdio.c ****   SDIO->ICR = SDIO_IT;
 1134              		.loc 1 782 3 view .LVU271
 1135              		.loc 1 782 13 is_stmt 0 view .LVU272
 1136 0000 014B     		ldr	r3, .L93
 1137 0002 9863     		str	r0, [r3, #56]
 783:./Drivers/src/stm32f10x_sdio.c **** }
 1138              		.loc 1 783 1 view .LVU273
 1139 0004 7047     		bx	lr
 1140              	.L94:
 1141 0006 00BF     		.align	2
 1142              	.L93:
 1143 0008 00800140 		.word	1073840128
 1144              		.cfi_endproc
 1145              	.LFE58:
 1147              		.text
 1148              	.Letext0:
 1149              		.file 2 "/usr/arm-none-eabi/include/machine/_default_types.h"
 1150              		.file 3 "/usr/arm-none-eabi/include/sys/_stdint.h"
 1151              		.file 4 "cmsis/stm32f10x.h"
 1152              		.file 5 "Drivers/inc/stm32f10x_sdio.h"
ARM GAS  /tmp/cc4BEF2L.s 			page 34

