ARM GAS  /tmp/ccBiSHgq.s 			page 1


   1              		.cpu cortex-m3
   2              		.arch armv7-m
   3              		.fpu softvfp
   4              		.eabi_attribute 20, 1
   5              		.eabi_attribute 21, 1
   6              		.eabi_attribute 23, 3
   7              		.eabi_attribute 24, 1
   8              		.eabi_attribute 25, 1
   9              		.eabi_attribute 26, 1
  10              		.eabi_attribute 30, 1
  11              		.eabi_attribute 34, 1
  12              		.eabi_attribute 18, 4
  13              		.file	"main.c"
  14              		.text
  15              	.Ltext0:
  16              		.cfi_sections	.debug_frame
  17              		.file 1 "./source/main.c"
  18              		.section	.text.main,"ax",%progbits
  19              		.align	1
  20              		.global	main
  21              		.syntax unified
  22              		.thumb
  23              		.thumb_func
  25              	main:
  26              	.LFB29:
   1:./source/main.c **** #include "serial.h"
   2:./source/main.c **** #include "stm32f10x.h"
   3:./source/main.c **** #include "stm32f10x_usart.h"
   4:./source/main.c **** #include <Delay.h>
   5:./source/main.c **** #include <Key.h>
   6:./source/main.c **** #include <stdint.h>
   7:./source/main.c **** 
   8:./source/main.c **** uint8_t RxData = 1;
   9:./source/main.c **** 
  10:./source/main.c **** int main(void) {
  27              		.loc 1 10 16 view -0
  28              		.cfi_startproc
  29              		@ Volatile: function does not return.
  30              		@ args = 0, pretend = 0, frame = 0
  31              		@ frame_needed = 0, uses_anonymous_args = 0
  32 0000 08B5     		push	{r3, lr}
  33              	.LCFI0:
  34              		.cfi_def_cfa_offset 8
  35              		.cfi_offset 3, -8
  36              		.cfi_offset 14, -4
  11:./source/main.c **** 
  12:./source/main.c ****   serial_init();
  37              		.loc 1 12 3 view .LVU1
  38 0002 FFF7FEFF 		bl	serial_init
  39              	.LVL0:
  40 0006 07E0     		b	.L3
  41              	.L2:
  13:./source/main.c **** 
  14:./source/main.c ****   // serial_sendbyte('G');
  15:./source/main.c ****   // uint8_t DFG[] = {0x42, 0x41, 0x45, 0x22};
  16:./source/main.c **** 
  17:./source/main.c ****   // serial_sendarray(DFG, 4);
ARM GAS  /tmp/ccBiSHgq.s 			page 2


  18:./source/main.c **** 
  19:./source/main.c ****   while (1) {
  20:./source/main.c ****     if (USART_GetFlagStatus(USART1, USART_FLAG_RXNE) == SET) {
  21:./source/main.c ****       RxData = USART_ReceiveData(USART1);
  22:./source/main.c ****     }
  23:./source/main.c ****     serial_sendbyte(RxData);
  42              		.loc 1 23 5 view .LVU2
  43 0008 094B     		ldr	r3, .L5
  44 000a 1878     		ldrb	r0, [r3]	@ zero_extendqisi2
  45 000c FFF7FEFF 		bl	serial_sendbyte
  46              	.LVL1:
  24:./source/main.c ****     Delay_ms(500);
  47              		.loc 1 24 5 view .LVU3
  48 0010 4FF4FA70 		mov	r0, #500
  49 0014 FFF7FEFF 		bl	Delay_ms
  50              	.LVL2:
  19:./source/main.c ****     if (USART_GetFlagStatus(USART1, USART_FLAG_RXNE) == SET) {
  51              		.loc 1 19 9 view .LVU4
  52              	.L3:
  19:./source/main.c ****     if (USART_GetFlagStatus(USART1, USART_FLAG_RXNE) == SET) {
  53              		.loc 1 19 3 view .LVU5
  20:./source/main.c ****       RxData = USART_ReceiveData(USART1);
  54              		.loc 1 20 5 view .LVU6
  20:./source/main.c ****       RxData = USART_ReceiveData(USART1);
  55              		.loc 1 20 9 is_stmt 0 view .LVU7
  56 0018 2021     		movs	r1, #32
  57 001a 0648     		ldr	r0, .L5+4
  58 001c FFF7FEFF 		bl	USART_GetFlagStatus
  59              	.LVL3:
  20:./source/main.c ****       RxData = USART_ReceiveData(USART1);
  60              		.loc 1 20 8 discriminator 1 view .LVU8
  61 0020 0128     		cmp	r0, #1
  62 0022 F1D1     		bne	.L2
  21:./source/main.c ****     }
  63              		.loc 1 21 7 is_stmt 1 view .LVU9
  21:./source/main.c ****     }
  64              		.loc 1 21 16 is_stmt 0 view .LVU10
  65 0024 0348     		ldr	r0, .L5+4
  66 0026 FFF7FEFF 		bl	USART_ReceiveData
  67              	.LVL4:
  21:./source/main.c ****     }
  68              		.loc 1 21 14 discriminator 1 view .LVU11
  69 002a 014B     		ldr	r3, .L5
  70 002c 1870     		strb	r0, [r3]
  71 002e EBE7     		b	.L2
  72              	.L6:
  73              		.align	2
  74              	.L5:
  75 0030 00000000 		.word	RxData
  76 0034 00380140 		.word	1073821696
  77              		.cfi_endproc
  78              	.LFE29:
  80              		.global	RxData
  81              		.section	.data.RxData,"aw"
  84              	RxData:
  85 0000 01       		.byte	1
  86              		.text
ARM GAS  /tmp/ccBiSHgq.s 			page 3


  87              	.Letext0:
  88              		.file 2 "/usr/arm-none-eabi/include/machine/_default_types.h"
  89              		.file 3 "/usr/arm-none-eabi/include/sys/_stdint.h"
  90              		.file 4 "cmsis/stm32f10x.h"
  91              		.file 5 "Libraries/inc/Delay.h"
  92              		.file 6 "Libraries/inc/serial.h"
  93              		.file 7 "Drivers/inc/stm32f10x_usart.h"
ARM GAS  /tmp/ccBiSHgq.s 			page 4


DEFINED SYMBOLS
                            *ABS*:00000000 main.c
     /tmp/ccBiSHgq.s:19     .text.main:00000000 $t
     /tmp/ccBiSHgq.s:25     .text.main:00000000 main
     /tmp/ccBiSHgq.s:75     .text.main:00000030 $d
     /tmp/ccBiSHgq.s:84     .data.RxData:00000000 RxData

UNDEFINED SYMBOLS
serial_init
serial_sendbyte
Delay_ms
USART_GetFlagStatus
USART_ReceiveData
