ARM GAS  /tmp/cckgOI0O.s 			page 1


   1              		.cpu cortex-m3
   2              		.arch armv7-m
   3              		.fpu softvfp
   4              		.eabi_attribute 20, 1
   5              		.eabi_attribute 21, 1
   6              		.eabi_attribute 23, 3
   7              		.eabi_attribute 24, 1
   8              		.eabi_attribute 25, 1
   9              		.eabi_attribute 26, 1
  10              		.eabi_attribute 30, 1
  11              		.eabi_attribute 34, 1
  12              		.eabi_attribute 18, 4
  13              		.file	"serial.c"
  14              		.text
  15              	.Ltext0:
  16              		.cfi_sections	.debug_frame
  17              		.file 1 "./Libraries/src/serial.c"
  18              		.section	.text.serial_init,"ax",%progbits
  19              		.align	1
  20              		.global	serial_init
  21              		.syntax unified
  22              		.thumb
  23              		.thumb_func
  25              	serial_init:
  26              	.LFB29:
   1:./Libraries/src/serial.c **** #include "stm32f10x.h"
   2:./Libraries/src/serial.c **** #include "stm32f10x_gpio.h"
   3:./Libraries/src/serial.c **** #include "stm32f10x_usart.h"
   4:./Libraries/src/serial.c **** #include <stdint.h>
   5:./Libraries/src/serial.c **** 
   6:./Libraries/src/serial.c **** void serial_init(void) {
  27              		.loc 1 6 24 view -0
  28              		.cfi_startproc
  29              		@ args = 0, pretend = 0, frame = 24
  30              		@ frame_needed = 0, uses_anonymous_args = 0
  31 0000 70B5     		push	{r4, r5, r6, lr}
  32              	.LCFI0:
  33              		.cfi_def_cfa_offset 16
  34              		.cfi_offset 4, -16
  35              		.cfi_offset 5, -12
  36              		.cfi_offset 6, -8
  37              		.cfi_offset 14, -4
  38 0002 86B0     		sub	sp, sp, #24
  39              	.LCFI1:
  40              		.cfi_def_cfa_offset 40
   7:./Libraries/src/serial.c ****   RCC_APB2PeriphClockCmd(RCC_APB2Periph_USART1, ENABLE);
  41              		.loc 1 7 3 view .LVU1
  42 0004 0121     		movs	r1, #1
  43 0006 4FF48040 		mov	r0, #16384
  44 000a FFF7FEFF 		bl	RCC_APB2PeriphClockCmd
  45              	.LVL0:
   8:./Libraries/src/serial.c ****   RCC_APB2PeriphClockCmd(RCC_APB2Periph_GPIOA, ENABLE);
  46              		.loc 1 8 3 view .LVU2
  47 000e 0121     		movs	r1, #1
  48 0010 0420     		movs	r0, #4
  49 0012 FFF7FEFF 		bl	RCC_APB2PeriphClockCmd
  50              	.LVL1:
ARM GAS  /tmp/cckgOI0O.s 			page 2


   9:./Libraries/src/serial.c **** 
  10:./Libraries/src/serial.c ****   GPIO_InitTypeDef GPIO_InitStructure;
  51              		.loc 1 10 3 view .LVU3
  11:./Libraries/src/serial.c ****   GPIO_InitStructure.GPIO_Mode = GPIO_Mode_AF_PP;
  52              		.loc 1 11 3 view .LVU4
  53              		.loc 1 11 32 is_stmt 0 view .LVU5
  54 0016 1823     		movs	r3, #24
  55 0018 8DF81730 		strb	r3, [sp, #23]
  12:./Libraries/src/serial.c ****   GPIO_InitStructure.GPIO_Pin = GPIO_Pin_9;
  56              		.loc 1 12 3 is_stmt 1 view .LVU6
  57              		.loc 1 12 31 is_stmt 0 view .LVU7
  58 001c 4FF40073 		mov	r3, #512
  59 0020 ADF81430 		strh	r3, [sp, #20]	@ movhi
  13:./Libraries/src/serial.c ****   GPIO_InitStructure.GPIO_Speed = GPIO_Speed_50MHz;
  60              		.loc 1 13 3 is_stmt 1 view .LVU8
  61              		.loc 1 13 33 is_stmt 0 view .LVU9
  62 0024 0326     		movs	r6, #3
  63 0026 8DF81660 		strb	r6, [sp, #22]
  14:./Libraries/src/serial.c ****   GPIO_Init(GPIOA, &GPIO_InitStructure);
  64              		.loc 1 14 3 is_stmt 1 view .LVU10
  65 002a 05AD     		add	r5, sp, #20
  66 002c 164C     		ldr	r4, .L3
  67 002e 2946     		mov	r1, r5
  68 0030 2046     		mov	r0, r4
  69 0032 FFF7FEFF 		bl	GPIO_Init
  70              	.LVL2:
  15:./Libraries/src/serial.c **** 
  16:./Libraries/src/serial.c ****   GPIO_InitStructure.GPIO_Mode = GPIO_Mode_IPU;
  71              		.loc 1 16 3 view .LVU11
  72              		.loc 1 16 32 is_stmt 0 view .LVU12
  73 0036 4823     		movs	r3, #72
  74 0038 8DF81730 		strb	r3, [sp, #23]
  17:./Libraries/src/serial.c ****   GPIO_InitStructure.GPIO_Pin = GPIO_Pin_10;
  75              		.loc 1 17 3 is_stmt 1 view .LVU13
  76              		.loc 1 17 31 is_stmt 0 view .LVU14
  77 003c 4FF48063 		mov	r3, #1024
  78 0040 ADF81430 		strh	r3, [sp, #20]	@ movhi
  18:./Libraries/src/serial.c ****   GPIO_InitStructure.GPIO_Speed = GPIO_Speed_50MHz;
  79              		.loc 1 18 3 is_stmt 1 view .LVU15
  80              		.loc 1 18 33 is_stmt 0 view .LVU16
  81 0044 8DF81660 		strb	r6, [sp, #22]
  19:./Libraries/src/serial.c ****   GPIO_Init(GPIOA, &GPIO_InitStructure);
  82              		.loc 1 19 3 is_stmt 1 view .LVU17
  83 0048 2946     		mov	r1, r5
  84 004a 2046     		mov	r0, r4
  85 004c FFF7FEFF 		bl	GPIO_Init
  86              	.LVL3:
  20:./Libraries/src/serial.c **** 
  21:./Libraries/src/serial.c ****   USART_InitTypeDef USART_InitStructure;
  87              		.loc 1 21 3 view .LVU18
  22:./Libraries/src/serial.c ****   USART_InitStructure.USART_BaudRate = 9600;
  88              		.loc 1 22 3 view .LVU19
  89              		.loc 1 22 38 is_stmt 0 view .LVU20
  90 0050 4FF41653 		mov	r3, #9600
  91 0054 0193     		str	r3, [sp, #4]
  23:./Libraries/src/serial.c ****   USART_InitStructure.USART_HardwareFlowControl =
  92              		.loc 1 23 3 is_stmt 1 view .LVU21
ARM GAS  /tmp/cckgOI0O.s 			page 3


  93              		.loc 1 23 49 is_stmt 0 view .LVU22
  94 0056 0023     		movs	r3, #0
  95 0058 ADF81030 		strh	r3, [sp, #16]	@ movhi
  24:./Libraries/src/serial.c ****       USART_HardwareFlowControl_None;
  25:./Libraries/src/serial.c ****   USART_InitStructure.USART_Mode = USART_Mode_Tx | USART_Mode_Rx;
  96              		.loc 1 25 3 is_stmt 1 view .LVU23
  97              		.loc 1 25 34 is_stmt 0 view .LVU24
  98 005c 0C22     		movs	r2, #12
  99 005e ADF80E20 		strh	r2, [sp, #14]	@ movhi
  26:./Libraries/src/serial.c ****   USART_InitStructure.USART_Parity = USART_Parity_No;
 100              		.loc 1 26 3 is_stmt 1 view .LVU25
 101              		.loc 1 26 36 is_stmt 0 view .LVU26
 102 0062 ADF80C30 		strh	r3, [sp, #12]	@ movhi
  27:./Libraries/src/serial.c ****   USART_InitStructure.USART_StopBits = USART_StopBits_1;
 103              		.loc 1 27 3 is_stmt 1 view .LVU27
 104              		.loc 1 27 38 is_stmt 0 view .LVU28
 105 0066 ADF80A30 		strh	r3, [sp, #10]	@ movhi
  28:./Libraries/src/serial.c ****   USART_InitStructure.USART_WordLength = USART_WordLength_8b;
 106              		.loc 1 28 3 is_stmt 1 view .LVU29
 107              		.loc 1 28 40 is_stmt 0 view .LVU30
 108 006a ADF80830 		strh	r3, [sp, #8]	@ movhi
  29:./Libraries/src/serial.c ****   USART_Init(USART1, &USART_InitStructure);
 109              		.loc 1 29 3 is_stmt 1 view .LVU31
 110 006e 04F54054 		add	r4, r4, #12288
 111 0072 01A9     		add	r1, sp, #4
 112 0074 2046     		mov	r0, r4
 113 0076 FFF7FEFF 		bl	USART_Init
 114              	.LVL4:
  30:./Libraries/src/serial.c **** 
  31:./Libraries/src/serial.c ****   USART_Cmd(USART1, ENABLE);
 115              		.loc 1 31 3 view .LVU32
 116 007a 0121     		movs	r1, #1
 117 007c 2046     		mov	r0, r4
 118 007e FFF7FEFF 		bl	USART_Cmd
 119              	.LVL5:
  32:./Libraries/src/serial.c **** }
 120              		.loc 1 32 1 is_stmt 0 view .LVU33
 121 0082 06B0     		add	sp, sp, #24
 122              	.LCFI2:
 123              		.cfi_def_cfa_offset 16
 124              		@ sp needed
 125 0084 70BD     		pop	{r4, r5, r6, pc}
 126              	.L4:
 127 0086 00BF     		.align	2
 128              	.L3:
 129 0088 00080140 		.word	1073809408
 130              		.cfi_endproc
 131              	.LFE29:
 133              		.section	.text.serial_sendbyte,"ax",%progbits
 134              		.align	1
 135              		.global	serial_sendbyte
 136              		.syntax unified
 137              		.thumb
 138              		.thumb_func
 140              	serial_sendbyte:
 141              	.LVL6:
 142              	.LFB30:
ARM GAS  /tmp/cckgOI0O.s 			page 4


  33:./Libraries/src/serial.c **** 
  34:./Libraries/src/serial.c **** void serial_sendbyte(uint8_t Byte) {
 143              		.loc 1 34 36 is_stmt 1 view -0
 144              		.cfi_startproc
 145              		@ args = 0, pretend = 0, frame = 0
 146              		@ frame_needed = 0, uses_anonymous_args = 0
 147              		.loc 1 34 36 is_stmt 0 view .LVU35
 148 0000 08B5     		push	{r3, lr}
 149              	.LCFI3:
 150              		.cfi_def_cfa_offset 8
 151              		.cfi_offset 3, -8
 152              		.cfi_offset 14, -4
 153 0002 0146     		mov	r1, r0
  35:./Libraries/src/serial.c ****   USART_SendData(USART1, Byte);
 154              		.loc 1 35 3 is_stmt 1 view .LVU36
 155 0004 0448     		ldr	r0, .L8
 156              	.LVL7:
 157              		.loc 1 35 3 is_stmt 0 view .LVU37
 158 0006 FFF7FEFF 		bl	USART_SendData
 159              	.LVL8:
  36:./Libraries/src/serial.c ****   while (USART_GetFlagStatus(USART1, USART_FLAG_TXE) == RESET)
 160              		.loc 1 36 3 is_stmt 1 view .LVU38
 161              	.L6:
 162              		.loc 1 36 54 discriminator 1 view .LVU39
 163              		.loc 1 36 10 is_stmt 0 discriminator 1 view .LVU40
 164 000a 8021     		movs	r1, #128
 165 000c 0248     		ldr	r0, .L8
 166 000e FFF7FEFF 		bl	USART_GetFlagStatus
 167              	.LVL9:
 168              		.loc 1 36 54 discriminator 1 view .LVU41
 169 0012 0028     		cmp	r0, #0
 170 0014 F9D0     		beq	.L6
  37:./Libraries/src/serial.c ****     ;
  38:./Libraries/src/serial.c **** }
 171              		.loc 1 38 1 view .LVU42
 172 0016 08BD     		pop	{r3, pc}
 173              	.L9:
 174              		.align	2
 175              	.L8:
 176 0018 00380140 		.word	1073821696
 177              		.cfi_endproc
 178              	.LFE30:
 180              		.section	.text.serial_sendarray,"ax",%progbits
 181              		.align	1
 182              		.global	serial_sendarray
 183              		.syntax unified
 184              		.thumb
 185              		.thumb_func
 187              	serial_sendarray:
 188              	.LVL10:
 189              	.LFB31:
  39:./Libraries/src/serial.c **** 
  40:./Libraries/src/serial.c **** void serial_sendarray(uint8_t *Array, uint16_t Length) {
 190              		.loc 1 40 56 is_stmt 1 view -0
 191              		.cfi_startproc
 192              		@ args = 0, pretend = 0, frame = 0
 193              		@ frame_needed = 0, uses_anonymous_args = 0
ARM GAS  /tmp/cckgOI0O.s 			page 5


 194              		.loc 1 40 56 is_stmt 0 view .LVU44
 195 0000 70B5     		push	{r4, r5, r6, lr}
 196              	.LCFI4:
 197              		.cfi_def_cfa_offset 16
 198              		.cfi_offset 4, -16
 199              		.cfi_offset 5, -12
 200              		.cfi_offset 6, -8
 201              		.cfi_offset 14, -4
 202 0002 0646     		mov	r6, r0
 203 0004 0D46     		mov	r5, r1
  41:./Libraries/src/serial.c ****   uint16_t i;
 204              		.loc 1 41 3 is_stmt 1 view .LVU45
  42:./Libraries/src/serial.c ****   for (i = 0; i < Length; i++) {
 205              		.loc 1 42 3 view .LVU46
 206              	.LVL11:
 207              		.loc 1 42 10 is_stmt 0 view .LVU47
 208 0006 0024     		movs	r4, #0
 209              		.loc 1 42 3 view .LVU48
 210 0008 04E0     		b	.L11
 211              	.LVL12:
 212              	.L12:
  43:./Libraries/src/serial.c ****     serial_sendbyte(Array[i]);
 213              		.loc 1 43 5 is_stmt 1 view .LVU49
 214 000a 305D     		ldrb	r0, [r6, r4]	@ zero_extendqisi2
 215 000c FFF7FEFF 		bl	serial_sendbyte
 216              	.LVL13:
  42:./Libraries/src/serial.c ****   for (i = 0; i < Length; i++) {
 217              		.loc 1 42 28 discriminator 3 view .LVU50
 218 0010 0134     		adds	r4, r4, #1
 219              	.LVL14:
  42:./Libraries/src/serial.c ****   for (i = 0; i < Length; i++) {
 220              		.loc 1 42 28 is_stmt 0 discriminator 3 view .LVU51
 221 0012 A4B2     		uxth	r4, r4
 222              	.LVL15:
 223              	.L11:
  42:./Libraries/src/serial.c ****   for (i = 0; i < Length; i++) {
 224              		.loc 1 42 17 is_stmt 1 discriminator 1 view .LVU52
 225 0014 AC42     		cmp	r4, r5
 226 0016 F8D3     		bcc	.L12
  44:./Libraries/src/serial.c ****   }
  45:./Libraries/src/serial.c **** }
 227              		.loc 1 45 1 is_stmt 0 view .LVU53
 228 0018 70BD     		pop	{r4, r5, r6, pc}
 229              		.loc 1 45 1 view .LVU54
 230              		.cfi_endproc
 231              	.LFE31:
 233              		.section	.text.serial_sendstring,"ax",%progbits
 234              		.align	1
 235              		.global	serial_sendstring
 236              		.syntax unified
 237              		.thumb
 238              		.thumb_func
 240              	serial_sendstring:
 241              	.LVL16:
 242              	.LFB32:
  46:./Libraries/src/serial.c **** 
  47:./Libraries/src/serial.c **** void serial_sendstring(char *string) {
ARM GAS  /tmp/cckgOI0O.s 			page 6


 243              		.loc 1 47 38 is_stmt 1 view -0
 244              		.cfi_startproc
 245              		@ args = 0, pretend = 0, frame = 0
 246              		@ frame_needed = 0, uses_anonymous_args = 0
 247              		.loc 1 47 38 is_stmt 0 view .LVU56
 248 0000 38B5     		push	{r3, r4, r5, lr}
 249              	.LCFI5:
 250              		.cfi_def_cfa_offset 16
 251              		.cfi_offset 3, -16
 252              		.cfi_offset 4, -12
 253              		.cfi_offset 5, -8
 254              		.cfi_offset 14, -4
 255 0002 0546     		mov	r5, r0
  48:./Libraries/src/serial.c ****   uint8_t i;
 256              		.loc 1 48 3 is_stmt 1 view .LVU57
  49:./Libraries/src/serial.c ****   for (i = 0; string[i] != '\0'; i++) {
 257              		.loc 1 49 3 view .LVU58
 258              	.LVL17:
 259              		.loc 1 49 10 is_stmt 0 view .LVU59
 260 0004 0024     		movs	r4, #0
 261              		.loc 1 49 3 view .LVU60
 262 0006 03E0     		b	.L15
 263              	.LVL18:
 264              	.L16:
  50:./Libraries/src/serial.c ****     serial_sendbyte(string[i]);
 265              		.loc 1 50 5 is_stmt 1 view .LVU61
 266 0008 FFF7FEFF 		bl	serial_sendbyte
 267              	.LVL19:
  49:./Libraries/src/serial.c ****   for (i = 0; string[i] != '\0'; i++) {
 268              		.loc 1 49 35 discriminator 3 view .LVU62
 269 000c 0134     		adds	r4, r4, #1
 270              	.LVL20:
  49:./Libraries/src/serial.c ****   for (i = 0; string[i] != '\0'; i++) {
 271              		.loc 1 49 35 is_stmt 0 discriminator 3 view .LVU63
 272 000e E4B2     		uxtb	r4, r4
 273              	.LVL21:
 274              	.L15:
  49:./Libraries/src/serial.c ****   for (i = 0; string[i] != '\0'; i++) {
 275              		.loc 1 49 25 is_stmt 1 discriminator 1 view .LVU64
  49:./Libraries/src/serial.c ****   for (i = 0; string[i] != '\0'; i++) {
 276              		.loc 1 49 21 is_stmt 0 discriminator 1 view .LVU65
 277 0010 285D     		ldrb	r0, [r5, r4]	@ zero_extendqisi2
  49:./Libraries/src/serial.c ****   for (i = 0; string[i] != '\0'; i++) {
 278              		.loc 1 49 25 discriminator 1 view .LVU66
 279 0012 0028     		cmp	r0, #0
 280 0014 F8D1     		bne	.L16
  51:./Libraries/src/serial.c ****   }
  52:./Libraries/src/serial.c **** }
 281              		.loc 1 52 1 view .LVU67
 282 0016 38BD     		pop	{r3, r4, r5, pc}
 283              		.loc 1 52 1 view .LVU68
 284              		.cfi_endproc
 285              	.LFE32:
 287              		.section	.text.serial_pow,"ax",%progbits
 288              		.align	1
 289              		.global	serial_pow
 290              		.syntax unified
ARM GAS  /tmp/cckgOI0O.s 			page 7


 291              		.thumb
 292              		.thumb_func
 294              	serial_pow:
 295              	.LVL22:
 296              	.LFB33:
  53:./Libraries/src/serial.c **** 
  54:./Libraries/src/serial.c **** uint32_t serial_pow(uint32_t X, uint32_t Y) {
 297              		.loc 1 54 45 is_stmt 1 view -0
 298              		.cfi_startproc
 299              		@ args = 0, pretend = 0, frame = 0
 300              		@ frame_needed = 0, uses_anonymous_args = 0
 301              		@ link register save eliminated.
 302              		.loc 1 54 45 is_stmt 0 view .LVU70
 303 0000 0246     		mov	r2, r0
  55:./Libraries/src/serial.c ****   uint32_t Result = 1;
 304              		.loc 1 55 3 is_stmt 1 view .LVU71
 305              	.LVL23:
  56:./Libraries/src/serial.c ****   while (Y--) {
 306              		.loc 1 56 3 view .LVU72
  55:./Libraries/src/serial.c ****   uint32_t Result = 1;
 307              		.loc 1 55 12 is_stmt 0 view .LVU73
 308 0002 0120     		movs	r0, #1
 309              	.LVL24:
 310              		.loc 1 56 9 view .LVU74
 311 0004 02E0     		b	.L19
 312              	.LVL25:
 313              	.L20:
  57:./Libraries/src/serial.c ****     Result *= X;
 314              		.loc 1 57 5 is_stmt 1 view .LVU75
 315              		.loc 1 57 12 is_stmt 0 view .LVU76
 316 0006 02FB00F0 		mul	r0, r2, r0
 317              	.LVL26:
  56:./Libraries/src/serial.c ****   while (Y--) {
 318              		.loc 1 56 11 view .LVU77
 319 000a 1946     		mov	r1, r3
 320              	.LVL27:
 321              	.L19:
  56:./Libraries/src/serial.c ****   while (Y--) {
 322              		.loc 1 56 10 is_stmt 1 view .LVU78
  56:./Libraries/src/serial.c ****   while (Y--) {
 323              		.loc 1 56 11 is_stmt 0 view .LVU79
 324 000c 4B1E     		subs	r3, r1, #1
 325              	.LVL28:
  56:./Libraries/src/serial.c ****   while (Y--) {
 326              		.loc 1 56 10 view .LVU80
 327 000e 0029     		cmp	r1, #0
 328 0010 F9D1     		bne	.L20
  58:./Libraries/src/serial.c ****   }
  59:./Libraries/src/serial.c ****   return Result;
 329              		.loc 1 59 3 is_stmt 1 view .LVU81
  60:./Libraries/src/serial.c **** }
 330              		.loc 1 60 1 is_stmt 0 view .LVU82
 331 0012 7047     		bx	lr
 332              		.cfi_endproc
 333              	.LFE33:
 335              		.section	.text.serial_sendnumber,"ax",%progbits
 336              		.align	1
ARM GAS  /tmp/cckgOI0O.s 			page 8


 337              		.global	serial_sendnumber
 338              		.syntax unified
 339              		.thumb
 340              		.thumb_func
 342              	serial_sendnumber:
 343              	.LVL29:
 344              	.LFB34:
  61:./Libraries/src/serial.c **** 
  62:./Libraries/src/serial.c **** void serial_sendnumber(uint32_t Number, uint8_t Length) {
 345              		.loc 1 62 57 is_stmt 1 view -0
 346              		.cfi_startproc
 347              		@ args = 0, pretend = 0, frame = 0
 348              		@ frame_needed = 0, uses_anonymous_args = 0
 349              		.loc 1 62 57 is_stmt 0 view .LVU84
 350 0000 70B5     		push	{r4, r5, r6, lr}
 351              	.LCFI6:
 352              		.cfi_def_cfa_offset 16
 353              		.cfi_offset 4, -16
 354              		.cfi_offset 5, -12
 355              		.cfi_offset 6, -8
 356              		.cfi_offset 14, -4
 357 0002 0646     		mov	r6, r0
 358 0004 0D46     		mov	r5, r1
  63:./Libraries/src/serial.c ****   uint8_t i;
 359              		.loc 1 63 3 is_stmt 1 view .LVU85
  64:./Libraries/src/serial.c ****   for (i = 0; i < Length; i++) {
 360              		.loc 1 64 3 view .LVU86
 361              	.LVL30:
 362              		.loc 1 64 10 is_stmt 0 view .LVU87
 363 0006 0024     		movs	r4, #0
 364              		.loc 1 64 3 view .LVU88
 365 0008 14E0     		b	.L22
 366              	.LVL31:
 367              	.L23:
  65:./Libraries/src/serial.c ****     serial_sendbyte(Number / serial_pow(10, Length - i - 1) % 10 + '0');
 368              		.loc 1 65 5 is_stmt 1 view .LVU89
 369              		.loc 1 65 52 is_stmt 0 view .LVU90
 370 000a 291B     		subs	r1, r5, r4
 371              		.loc 1 65 30 view .LVU91
 372 000c 0139     		subs	r1, r1, #1
 373 000e 0A20     		movs	r0, #10
 374 0010 FFF7FEFF 		bl	serial_pow
 375              	.LVL32:
 376              		.loc 1 65 28 discriminator 1 view .LVU92
 377 0014 B6FBF0F0 		udiv	r0, r6, r0
 378              		.loc 1 65 61 discriminator 1 view .LVU93
 379 0018 084B     		ldr	r3, .L25
 380 001a A3FB0023 		umull	r2, r3, r3, r0
 381 001e DB08     		lsrs	r3, r3, #3
 382 0020 03EB8303 		add	r3, r3, r3, lsl #2
 383 0024 A0EB4303 		sub	r3, r0, r3, lsl #1
 384              		.loc 1 65 5 discriminator 1 view .LVU94
 385 0028 3033     		adds	r3, r3, #48
 386 002a D8B2     		uxtb	r0, r3
 387 002c FFF7FEFF 		bl	serial_sendbyte
 388              	.LVL33:
  64:./Libraries/src/serial.c ****   for (i = 0; i < Length; i++) {
ARM GAS  /tmp/cckgOI0O.s 			page 9


 389              		.loc 1 64 28 is_stmt 1 discriminator 3 view .LVU95
 390 0030 0134     		adds	r4, r4, #1
 391              	.LVL34:
  64:./Libraries/src/serial.c ****   for (i = 0; i < Length; i++) {
 392              		.loc 1 64 28 is_stmt 0 discriminator 3 view .LVU96
 393 0032 E4B2     		uxtb	r4, r4
 394              	.LVL35:
 395              	.L22:
  64:./Libraries/src/serial.c ****   for (i = 0; i < Length; i++) {
 396              		.loc 1 64 17 is_stmt 1 discriminator 1 view .LVU97
 397 0034 AC42     		cmp	r4, r5
 398 0036 E8D3     		bcc	.L23
  66:./Libraries/src/serial.c ****   }
  67:./Libraries/src/serial.c **** }
 399              		.loc 1 67 1 is_stmt 0 view .LVU98
 400 0038 70BD     		pop	{r4, r5, r6, pc}
 401              	.LVL36:
 402              	.L26:
 403              		.loc 1 67 1 view .LVU99
 404 003a 00BF     		.align	2
 405              	.L25:
 406 003c CDCCCCCC 		.word	-858993459
 407              		.cfi_endproc
 408              	.LFE34:
 410              		.text
 411              	.Letext0:
 412              		.file 2 "/usr/arm-none-eabi/include/machine/_default_types.h"
 413              		.file 3 "/usr/arm-none-eabi/include/sys/_stdint.h"
 414              		.file 4 "cmsis/stm32f10x.h"
 415              		.file 5 "Drivers/inc/stm32f10x_gpio.h"
 416              		.file 6 "Drivers/inc/stm32f10x_usart.h"
 417              		.file 7 "Drivers/inc/stm32f10x_rcc.h"
ARM GAS  /tmp/cckgOI0O.s 			page 10

