ARM GAS  /tmp/ccQprh9o.s 			page 1


   1              		.cpu cortex-m3
   2              		.arch armv7-m
   3              		.fpu softvfp
   4              		.eabi_attribute 20, 1
   5              		.eabi_attribute 21, 1
   6              		.eabi_attribute 23, 3
   7              		.eabi_attribute 24, 1
   8              		.eabi_attribute 25, 1
   9              		.eabi_attribute 26, 1
  10              		.eabi_attribute 30, 1
  11              		.eabi_attribute 34, 1
  12              		.eabi_attribute 18, 4
  13              		.file	"stm32f10x_gpio.c"
  14              		.text
  15              	.Ltext0:
  16              		.cfi_sections	.debug_frame
  17              		.file 1 "./Drivers/src/stm32f10x_gpio.c"
  18              		.section	.text.GPIO_DeInit,"ax",%progbits
  19              		.align	1
  20              		.global	GPIO_DeInit
  21              		.syntax unified
  22              		.thumb
  23              		.thumb_func
  25              	GPIO_DeInit:
  26              	.LVL0:
  27              	.LFB29:
   1:./Drivers/src/stm32f10x_gpio.c **** /**
   2:./Drivers/src/stm32f10x_gpio.c ****   ******************************************************************************
   3:./Drivers/src/stm32f10x_gpio.c ****   * @file    stm32f10x_gpio.c
   4:./Drivers/src/stm32f10x_gpio.c ****   * @author  MCD Application Team
   5:./Drivers/src/stm32f10x_gpio.c ****   * @version V3.6.2
   6:./Drivers/src/stm32f10x_gpio.c ****   * @date    17-September-2021
   7:./Drivers/src/stm32f10x_gpio.c ****   * @brief   This file provides all the GPIO firmware functions.
   8:./Drivers/src/stm32f10x_gpio.c ****   ******************************************************************************
   9:./Drivers/src/stm32f10x_gpio.c ****   * @attention
  10:./Drivers/src/stm32f10x_gpio.c ****   *
  11:./Drivers/src/stm32f10x_gpio.c ****   * Copyright (c) 2012 STMicroelectronics.
  12:./Drivers/src/stm32f10x_gpio.c ****   * All rights reserved.
  13:./Drivers/src/stm32f10x_gpio.c ****   *
  14:./Drivers/src/stm32f10x_gpio.c ****   * This software is licensed under terms that can be found in the LICENSE file
  15:./Drivers/src/stm32f10x_gpio.c ****   * in the root directory of this software component.
  16:./Drivers/src/stm32f10x_gpio.c ****   * If no LICENSE file comes with this software, it is provided AS-IS.
  17:./Drivers/src/stm32f10x_gpio.c ****   *
  18:./Drivers/src/stm32f10x_gpio.c ****   ******************************************************************************
  19:./Drivers/src/stm32f10x_gpio.c ****   */
  20:./Drivers/src/stm32f10x_gpio.c **** 
  21:./Drivers/src/stm32f10x_gpio.c **** /* Includes ------------------------------------------------------------------*/
  22:./Drivers/src/stm32f10x_gpio.c **** #include "stm32f10x_gpio.h"
  23:./Drivers/src/stm32f10x_gpio.c **** #include "stm32f10x_rcc.h"
  24:./Drivers/src/stm32f10x_gpio.c **** 
  25:./Drivers/src/stm32f10x_gpio.c **** /** @addtogroup STM32F10x_StdPeriph_Driver
  26:./Drivers/src/stm32f10x_gpio.c ****   * @{
  27:./Drivers/src/stm32f10x_gpio.c ****   */
  28:./Drivers/src/stm32f10x_gpio.c **** 
  29:./Drivers/src/stm32f10x_gpio.c **** /** @defgroup GPIO 
  30:./Drivers/src/stm32f10x_gpio.c ****   * @brief GPIO driver modules
  31:./Drivers/src/stm32f10x_gpio.c ****   * @{
ARM GAS  /tmp/ccQprh9o.s 			page 2


  32:./Drivers/src/stm32f10x_gpio.c ****   */ 
  33:./Drivers/src/stm32f10x_gpio.c **** 
  34:./Drivers/src/stm32f10x_gpio.c **** /** @defgroup GPIO_Private_TypesDefinitions
  35:./Drivers/src/stm32f10x_gpio.c ****   * @{
  36:./Drivers/src/stm32f10x_gpio.c ****   */
  37:./Drivers/src/stm32f10x_gpio.c **** 
  38:./Drivers/src/stm32f10x_gpio.c **** /**
  39:./Drivers/src/stm32f10x_gpio.c ****   * @}
  40:./Drivers/src/stm32f10x_gpio.c ****   */
  41:./Drivers/src/stm32f10x_gpio.c **** 
  42:./Drivers/src/stm32f10x_gpio.c **** /** @defgroup GPIO_Private_Defines
  43:./Drivers/src/stm32f10x_gpio.c ****   * @{
  44:./Drivers/src/stm32f10x_gpio.c ****   */
  45:./Drivers/src/stm32f10x_gpio.c **** 
  46:./Drivers/src/stm32f10x_gpio.c **** /* ------------ RCC registers bit address in the alias region ----------------*/
  47:./Drivers/src/stm32f10x_gpio.c **** #define AFIO_OFFSET                 (AFIO_BASE - PERIPH_BASE)
  48:./Drivers/src/stm32f10x_gpio.c **** 
  49:./Drivers/src/stm32f10x_gpio.c **** /* --- EVENTCR Register -----*/
  50:./Drivers/src/stm32f10x_gpio.c **** 
  51:./Drivers/src/stm32f10x_gpio.c **** /* Alias word address of EVOE bit */
  52:./Drivers/src/stm32f10x_gpio.c **** #define EVCR_OFFSET                 (AFIO_OFFSET + 0x00)
  53:./Drivers/src/stm32f10x_gpio.c **** #define EVOE_BitNumber              ((uint8_t)0x07)
  54:./Drivers/src/stm32f10x_gpio.c **** #define EVCR_EVOE_BB                (PERIPH_BB_BASE + (EVCR_OFFSET * 32) + (EVOE_BitNumber * 4))
  55:./Drivers/src/stm32f10x_gpio.c **** 
  56:./Drivers/src/stm32f10x_gpio.c **** 
  57:./Drivers/src/stm32f10x_gpio.c **** /* ---  MAPR Register ---*/ 
  58:./Drivers/src/stm32f10x_gpio.c **** /* Alias word address of MII_RMII_SEL bit */ 
  59:./Drivers/src/stm32f10x_gpio.c **** #define MAPR_OFFSET                 (AFIO_OFFSET + 0x04) 
  60:./Drivers/src/stm32f10x_gpio.c **** #define MII_RMII_SEL_BitNumber      ((u8)0x17) 
  61:./Drivers/src/stm32f10x_gpio.c **** #define MAPR_MII_RMII_SEL_BB        (PERIPH_BB_BASE + (MAPR_OFFSET * 32) + (MII_RMII_SEL_BitNumber 
  62:./Drivers/src/stm32f10x_gpio.c **** 
  63:./Drivers/src/stm32f10x_gpio.c **** 
  64:./Drivers/src/stm32f10x_gpio.c **** #define EVCR_PORTPINCONFIG_MASK     ((uint16_t)0xFF80)
  65:./Drivers/src/stm32f10x_gpio.c **** #define LSB_MASK                    ((uint16_t)0xFFFF)
  66:./Drivers/src/stm32f10x_gpio.c **** #define DBGAFR_POSITION_MASK        ((uint32_t)0x000F0000)
  67:./Drivers/src/stm32f10x_gpio.c **** #define DBGAFR_SWJCFG_MASK          ((uint32_t)0xF0FFFFFF)
  68:./Drivers/src/stm32f10x_gpio.c **** #define DBGAFR_LOCATION_MASK        ((uint32_t)0x00200000)
  69:./Drivers/src/stm32f10x_gpio.c **** #define DBGAFR_NUMBITS_MASK         ((uint32_t)0x00100000)
  70:./Drivers/src/stm32f10x_gpio.c **** /**
  71:./Drivers/src/stm32f10x_gpio.c ****   * @}
  72:./Drivers/src/stm32f10x_gpio.c ****   */
  73:./Drivers/src/stm32f10x_gpio.c **** 
  74:./Drivers/src/stm32f10x_gpio.c **** /** @defgroup GPIO_Private_Macros
  75:./Drivers/src/stm32f10x_gpio.c ****   * @{
  76:./Drivers/src/stm32f10x_gpio.c ****   */
  77:./Drivers/src/stm32f10x_gpio.c **** 
  78:./Drivers/src/stm32f10x_gpio.c **** /**
  79:./Drivers/src/stm32f10x_gpio.c ****   * @}
  80:./Drivers/src/stm32f10x_gpio.c ****   */
  81:./Drivers/src/stm32f10x_gpio.c **** 
  82:./Drivers/src/stm32f10x_gpio.c **** /** @defgroup GPIO_Private_Variables
  83:./Drivers/src/stm32f10x_gpio.c ****   * @{
  84:./Drivers/src/stm32f10x_gpio.c ****   */
  85:./Drivers/src/stm32f10x_gpio.c **** 
  86:./Drivers/src/stm32f10x_gpio.c **** /**
  87:./Drivers/src/stm32f10x_gpio.c ****   * @}
  88:./Drivers/src/stm32f10x_gpio.c ****   */
ARM GAS  /tmp/ccQprh9o.s 			page 3


  89:./Drivers/src/stm32f10x_gpio.c **** 
  90:./Drivers/src/stm32f10x_gpio.c **** /** @defgroup GPIO_Private_FunctionPrototypes
  91:./Drivers/src/stm32f10x_gpio.c ****   * @{
  92:./Drivers/src/stm32f10x_gpio.c ****   */
  93:./Drivers/src/stm32f10x_gpio.c **** 
  94:./Drivers/src/stm32f10x_gpio.c **** /**
  95:./Drivers/src/stm32f10x_gpio.c ****   * @}
  96:./Drivers/src/stm32f10x_gpio.c ****   */
  97:./Drivers/src/stm32f10x_gpio.c **** 
  98:./Drivers/src/stm32f10x_gpio.c **** /** @defgroup GPIO_Private_Functions
  99:./Drivers/src/stm32f10x_gpio.c ****   * @{
 100:./Drivers/src/stm32f10x_gpio.c ****   */
 101:./Drivers/src/stm32f10x_gpio.c **** 
 102:./Drivers/src/stm32f10x_gpio.c **** /**
 103:./Drivers/src/stm32f10x_gpio.c ****   * @brief  Deinitializes the GPIOx peripheral registers to their default reset values.
 104:./Drivers/src/stm32f10x_gpio.c ****   * @param  GPIOx: where x can be (A..G) to select the GPIO peripheral.
 105:./Drivers/src/stm32f10x_gpio.c ****   * @retval None
 106:./Drivers/src/stm32f10x_gpio.c ****   */
 107:./Drivers/src/stm32f10x_gpio.c **** void GPIO_DeInit(GPIO_TypeDef* GPIOx)
 108:./Drivers/src/stm32f10x_gpio.c **** {
  28              		.loc 1 108 1 view -0
  29              		.cfi_startproc
  30              		@ args = 0, pretend = 0, frame = 0
  31              		@ frame_needed = 0, uses_anonymous_args = 0
  32              		.loc 1 108 1 is_stmt 0 view .LVU1
  33 0000 08B5     		push	{r3, lr}
  34              	.LCFI0:
  35              		.cfi_def_cfa_offset 8
  36              		.cfi_offset 3, -8
  37              		.cfi_offset 14, -4
 109:./Drivers/src/stm32f10x_gpio.c ****   /* Check the parameters */
 110:./Drivers/src/stm32f10x_gpio.c ****   assert_param(IS_GPIO_ALL_PERIPH(GPIOx));
  38              		.loc 1 110 3 is_stmt 1 view .LVU2
 111:./Drivers/src/stm32f10x_gpio.c ****   
 112:./Drivers/src/stm32f10x_gpio.c ****   if (GPIOx == GPIOA)
  39              		.loc 1 112 3 view .LVU3
  40              		.loc 1 112 6 is_stmt 0 view .LVU4
  41 0002 2B4B     		ldr	r3, .L17
  42 0004 9842     		cmp	r0, r3
  43 0006 12D0     		beq	.L10
 113:./Drivers/src/stm32f10x_gpio.c ****   {
 114:./Drivers/src/stm32f10x_gpio.c ****     RCC_APB2PeriphResetCmd(RCC_APB2Periph_GPIOA, ENABLE);
 115:./Drivers/src/stm32f10x_gpio.c ****     RCC_APB2PeriphResetCmd(RCC_APB2Periph_GPIOA, DISABLE);
 116:./Drivers/src/stm32f10x_gpio.c ****   }
 117:./Drivers/src/stm32f10x_gpio.c ****   else if (GPIOx == GPIOB)
  44              		.loc 1 117 8 is_stmt 1 view .LVU5
  45              		.loc 1 117 11 is_stmt 0 view .LVU6
  46 0008 2A4B     		ldr	r3, .L17+4
  47 000a 9842     		cmp	r0, r3
  48 000c 18D0     		beq	.L11
 118:./Drivers/src/stm32f10x_gpio.c ****   {
 119:./Drivers/src/stm32f10x_gpio.c ****     RCC_APB2PeriphResetCmd(RCC_APB2Periph_GPIOB, ENABLE);
 120:./Drivers/src/stm32f10x_gpio.c ****     RCC_APB2PeriphResetCmd(RCC_APB2Periph_GPIOB, DISABLE);
 121:./Drivers/src/stm32f10x_gpio.c ****   }
 122:./Drivers/src/stm32f10x_gpio.c ****   else if (GPIOx == GPIOC)
  49              		.loc 1 122 8 is_stmt 1 view .LVU7
  50              		.loc 1 122 11 is_stmt 0 view .LVU8
ARM GAS  /tmp/ccQprh9o.s 			page 4


  51 000e 2A4B     		ldr	r3, .L17+8
  52 0010 9842     		cmp	r0, r3
  53 0012 1ED0     		beq	.L12
 123:./Drivers/src/stm32f10x_gpio.c ****   {
 124:./Drivers/src/stm32f10x_gpio.c ****     RCC_APB2PeriphResetCmd(RCC_APB2Periph_GPIOC, ENABLE);
 125:./Drivers/src/stm32f10x_gpio.c ****     RCC_APB2PeriphResetCmd(RCC_APB2Periph_GPIOC, DISABLE);
 126:./Drivers/src/stm32f10x_gpio.c ****   }
 127:./Drivers/src/stm32f10x_gpio.c ****   else if (GPIOx == GPIOD)
  54              		.loc 1 127 8 is_stmt 1 view .LVU9
  55              		.loc 1 127 11 is_stmt 0 view .LVU10
  56 0014 294B     		ldr	r3, .L17+12
  57 0016 9842     		cmp	r0, r3
  58 0018 24D0     		beq	.L13
 128:./Drivers/src/stm32f10x_gpio.c ****   {
 129:./Drivers/src/stm32f10x_gpio.c ****     RCC_APB2PeriphResetCmd(RCC_APB2Periph_GPIOD, ENABLE);
 130:./Drivers/src/stm32f10x_gpio.c ****     RCC_APB2PeriphResetCmd(RCC_APB2Periph_GPIOD, DISABLE);
 131:./Drivers/src/stm32f10x_gpio.c ****   }    
 132:./Drivers/src/stm32f10x_gpio.c ****   else if (GPIOx == GPIOE)
  59              		.loc 1 132 8 is_stmt 1 view .LVU11
  60              		.loc 1 132 11 is_stmt 0 view .LVU12
  61 001a 294B     		ldr	r3, .L17+16
  62 001c 9842     		cmp	r0, r3
  63 001e 2AD0     		beq	.L14
 133:./Drivers/src/stm32f10x_gpio.c ****   {
 134:./Drivers/src/stm32f10x_gpio.c ****     RCC_APB2PeriphResetCmd(RCC_APB2Periph_GPIOE, ENABLE);
 135:./Drivers/src/stm32f10x_gpio.c ****     RCC_APB2PeriphResetCmd(RCC_APB2Periph_GPIOE, DISABLE);
 136:./Drivers/src/stm32f10x_gpio.c ****   } 
 137:./Drivers/src/stm32f10x_gpio.c ****   else if (GPIOx == GPIOF)
  64              		.loc 1 137 8 is_stmt 1 view .LVU13
  65              		.loc 1 137 11 is_stmt 0 view .LVU14
  66 0020 284B     		ldr	r3, .L17+20
  67 0022 9842     		cmp	r0, r3
  68 0024 30D0     		beq	.L15
 138:./Drivers/src/stm32f10x_gpio.c ****   {
 139:./Drivers/src/stm32f10x_gpio.c ****     RCC_APB2PeriphResetCmd(RCC_APB2Periph_GPIOF, ENABLE);
 140:./Drivers/src/stm32f10x_gpio.c ****     RCC_APB2PeriphResetCmd(RCC_APB2Periph_GPIOF, DISABLE);
 141:./Drivers/src/stm32f10x_gpio.c ****   }
 142:./Drivers/src/stm32f10x_gpio.c ****   else
 143:./Drivers/src/stm32f10x_gpio.c ****   {
 144:./Drivers/src/stm32f10x_gpio.c ****     if (GPIOx == GPIOG)
  69              		.loc 1 144 5 is_stmt 1 view .LVU15
  70              		.loc 1 144 8 is_stmt 0 view .LVU16
  71 0026 284B     		ldr	r3, .L17+24
  72 0028 9842     		cmp	r0, r3
  73 002a 36D0     		beq	.L16
  74              	.LVL1:
  75              	.L1:
 145:./Drivers/src/stm32f10x_gpio.c ****     {
 146:./Drivers/src/stm32f10x_gpio.c ****       RCC_APB2PeriphResetCmd(RCC_APB2Periph_GPIOG, ENABLE);
 147:./Drivers/src/stm32f10x_gpio.c ****       RCC_APB2PeriphResetCmd(RCC_APB2Periph_GPIOG, DISABLE);
 148:./Drivers/src/stm32f10x_gpio.c ****     }
 149:./Drivers/src/stm32f10x_gpio.c ****   }
 150:./Drivers/src/stm32f10x_gpio.c **** }
  76              		.loc 1 150 1 view .LVU17
  77 002c 08BD     		pop	{r3, pc}
  78              	.LVL2:
  79              	.L10:
ARM GAS  /tmp/ccQprh9o.s 			page 5


 114:./Drivers/src/stm32f10x_gpio.c ****     RCC_APB2PeriphResetCmd(RCC_APB2Periph_GPIOA, DISABLE);
  80              		.loc 1 114 5 is_stmt 1 view .LVU18
  81 002e 0121     		movs	r1, #1
  82 0030 0420     		movs	r0, #4
  83              	.LVL3:
 114:./Drivers/src/stm32f10x_gpio.c ****     RCC_APB2PeriphResetCmd(RCC_APB2Periph_GPIOA, DISABLE);
  84              		.loc 1 114 5 is_stmt 0 view .LVU19
  85 0032 FFF7FEFF 		bl	RCC_APB2PeriphResetCmd
  86              	.LVL4:
 115:./Drivers/src/stm32f10x_gpio.c ****   }
  87              		.loc 1 115 5 is_stmt 1 view .LVU20
  88 0036 0021     		movs	r1, #0
  89 0038 0420     		movs	r0, #4
  90 003a FFF7FEFF 		bl	RCC_APB2PeriphResetCmd
  91              	.LVL5:
  92 003e F5E7     		b	.L1
  93              	.LVL6:
  94              	.L11:
 119:./Drivers/src/stm32f10x_gpio.c ****     RCC_APB2PeriphResetCmd(RCC_APB2Periph_GPIOB, DISABLE);
  95              		.loc 1 119 5 view .LVU21
  96 0040 0121     		movs	r1, #1
  97 0042 0820     		movs	r0, #8
  98              	.LVL7:
 119:./Drivers/src/stm32f10x_gpio.c ****     RCC_APB2PeriphResetCmd(RCC_APB2Periph_GPIOB, DISABLE);
  99              		.loc 1 119 5 is_stmt 0 view .LVU22
 100 0044 FFF7FEFF 		bl	RCC_APB2PeriphResetCmd
 101              	.LVL8:
 120:./Drivers/src/stm32f10x_gpio.c ****   }
 102              		.loc 1 120 5 is_stmt 1 view .LVU23
 103 0048 0021     		movs	r1, #0
 104 004a 0820     		movs	r0, #8
 105 004c FFF7FEFF 		bl	RCC_APB2PeriphResetCmd
 106              	.LVL9:
 107 0050 ECE7     		b	.L1
 108              	.LVL10:
 109              	.L12:
 124:./Drivers/src/stm32f10x_gpio.c ****     RCC_APB2PeriphResetCmd(RCC_APB2Periph_GPIOC, DISABLE);
 110              		.loc 1 124 5 view .LVU24
 111 0052 0121     		movs	r1, #1
 112 0054 1020     		movs	r0, #16
 113              	.LVL11:
 124:./Drivers/src/stm32f10x_gpio.c ****     RCC_APB2PeriphResetCmd(RCC_APB2Periph_GPIOC, DISABLE);
 114              		.loc 1 124 5 is_stmt 0 view .LVU25
 115 0056 FFF7FEFF 		bl	RCC_APB2PeriphResetCmd
 116              	.LVL12:
 125:./Drivers/src/stm32f10x_gpio.c ****   }
 117              		.loc 1 125 5 is_stmt 1 view .LVU26
 118 005a 0021     		movs	r1, #0
 119 005c 1020     		movs	r0, #16
 120 005e FFF7FEFF 		bl	RCC_APB2PeriphResetCmd
 121              	.LVL13:
 122 0062 E3E7     		b	.L1
 123              	.LVL14:
 124              	.L13:
 129:./Drivers/src/stm32f10x_gpio.c ****     RCC_APB2PeriphResetCmd(RCC_APB2Periph_GPIOD, DISABLE);
 125              		.loc 1 129 5 view .LVU27
 126 0064 0121     		movs	r1, #1
ARM GAS  /tmp/ccQprh9o.s 			page 6


 127 0066 2020     		movs	r0, #32
 128              	.LVL15:
 129:./Drivers/src/stm32f10x_gpio.c ****     RCC_APB2PeriphResetCmd(RCC_APB2Periph_GPIOD, DISABLE);
 129              		.loc 1 129 5 is_stmt 0 view .LVU28
 130 0068 FFF7FEFF 		bl	RCC_APB2PeriphResetCmd
 131              	.LVL16:
 130:./Drivers/src/stm32f10x_gpio.c ****   }    
 132              		.loc 1 130 5 is_stmt 1 view .LVU29
 133 006c 0021     		movs	r1, #0
 134 006e 2020     		movs	r0, #32
 135 0070 FFF7FEFF 		bl	RCC_APB2PeriphResetCmd
 136              	.LVL17:
 137 0074 DAE7     		b	.L1
 138              	.LVL18:
 139              	.L14:
 134:./Drivers/src/stm32f10x_gpio.c ****     RCC_APB2PeriphResetCmd(RCC_APB2Periph_GPIOE, DISABLE);
 140              		.loc 1 134 5 view .LVU30
 141 0076 0121     		movs	r1, #1
 142 0078 4020     		movs	r0, #64
 143              	.LVL19:
 134:./Drivers/src/stm32f10x_gpio.c ****     RCC_APB2PeriphResetCmd(RCC_APB2Periph_GPIOE, DISABLE);
 144              		.loc 1 134 5 is_stmt 0 view .LVU31
 145 007a FFF7FEFF 		bl	RCC_APB2PeriphResetCmd
 146              	.LVL20:
 135:./Drivers/src/stm32f10x_gpio.c ****   } 
 147              		.loc 1 135 5 is_stmt 1 view .LVU32
 148 007e 0021     		movs	r1, #0
 149 0080 4020     		movs	r0, #64
 150 0082 FFF7FEFF 		bl	RCC_APB2PeriphResetCmd
 151              	.LVL21:
 152 0086 D1E7     		b	.L1
 153              	.LVL22:
 154              	.L15:
 139:./Drivers/src/stm32f10x_gpio.c ****     RCC_APB2PeriphResetCmd(RCC_APB2Periph_GPIOF, DISABLE);
 155              		.loc 1 139 5 view .LVU33
 156 0088 0121     		movs	r1, #1
 157 008a 8020     		movs	r0, #128
 158              	.LVL23:
 139:./Drivers/src/stm32f10x_gpio.c ****     RCC_APB2PeriphResetCmd(RCC_APB2Periph_GPIOF, DISABLE);
 159              		.loc 1 139 5 is_stmt 0 view .LVU34
 160 008c FFF7FEFF 		bl	RCC_APB2PeriphResetCmd
 161              	.LVL24:
 140:./Drivers/src/stm32f10x_gpio.c ****   }
 162              		.loc 1 140 5 is_stmt 1 view .LVU35
 163 0090 0021     		movs	r1, #0
 164 0092 8020     		movs	r0, #128
 165 0094 FFF7FEFF 		bl	RCC_APB2PeriphResetCmd
 166              	.LVL25:
 167 0098 C8E7     		b	.L1
 168              	.LVL26:
 169              	.L16:
 146:./Drivers/src/stm32f10x_gpio.c ****       RCC_APB2PeriphResetCmd(RCC_APB2Periph_GPIOG, DISABLE);
 170              		.loc 1 146 7 view .LVU36
 171 009a 0121     		movs	r1, #1
 172 009c 4FF48070 		mov	r0, #256
 173              	.LVL27:
 146:./Drivers/src/stm32f10x_gpio.c ****       RCC_APB2PeriphResetCmd(RCC_APB2Periph_GPIOG, DISABLE);
ARM GAS  /tmp/ccQprh9o.s 			page 7


 174              		.loc 1 146 7 is_stmt 0 view .LVU37
 175 00a0 FFF7FEFF 		bl	RCC_APB2PeriphResetCmd
 176              	.LVL28:
 147:./Drivers/src/stm32f10x_gpio.c ****     }
 177              		.loc 1 147 7 is_stmt 1 view .LVU38
 178 00a4 0021     		movs	r1, #0
 179 00a6 4FF48070 		mov	r0, #256
 180 00aa FFF7FEFF 		bl	RCC_APB2PeriphResetCmd
 181              	.LVL29:
 182              		.loc 1 150 1 is_stmt 0 view .LVU39
 183 00ae BDE7     		b	.L1
 184              	.L18:
 185              		.align	2
 186              	.L17:
 187 00b0 00080140 		.word	1073809408
 188 00b4 000C0140 		.word	1073810432
 189 00b8 00100140 		.word	1073811456
 190 00bc 00140140 		.word	1073812480
 191 00c0 00180140 		.word	1073813504
 192 00c4 001C0140 		.word	1073814528
 193 00c8 00200140 		.word	1073815552
 194              		.cfi_endproc
 195              	.LFE29:
 197              		.section	.text.GPIO_AFIODeInit,"ax",%progbits
 198              		.align	1
 199              		.global	GPIO_AFIODeInit
 200              		.syntax unified
 201              		.thumb
 202              		.thumb_func
 204              	GPIO_AFIODeInit:
 205              	.LFB30:
 151:./Drivers/src/stm32f10x_gpio.c **** 
 152:./Drivers/src/stm32f10x_gpio.c **** /**
 153:./Drivers/src/stm32f10x_gpio.c ****   * @brief  Deinitializes the Alternate Functions (remap, event control
 154:./Drivers/src/stm32f10x_gpio.c ****   *   and EXTI configuration) registers to their default reset values.
 155:./Drivers/src/stm32f10x_gpio.c ****   * @param  None
 156:./Drivers/src/stm32f10x_gpio.c ****   * @retval None
 157:./Drivers/src/stm32f10x_gpio.c ****   */
 158:./Drivers/src/stm32f10x_gpio.c **** void GPIO_AFIODeInit(void)
 159:./Drivers/src/stm32f10x_gpio.c **** {
 206              		.loc 1 159 1 is_stmt 1 view -0
 207              		.cfi_startproc
 208              		@ args = 0, pretend = 0, frame = 0
 209              		@ frame_needed = 0, uses_anonymous_args = 0
 210 0000 08B5     		push	{r3, lr}
 211              	.LCFI1:
 212              		.cfi_def_cfa_offset 8
 213              		.cfi_offset 3, -8
 214              		.cfi_offset 14, -4
 160:./Drivers/src/stm32f10x_gpio.c ****   RCC_APB2PeriphResetCmd(RCC_APB2Periph_AFIO, ENABLE);
 215              		.loc 1 160 3 view .LVU41
 216 0002 0121     		movs	r1, #1
 217 0004 0846     		mov	r0, r1
 218 0006 FFF7FEFF 		bl	RCC_APB2PeriphResetCmd
 219              	.LVL30:
 161:./Drivers/src/stm32f10x_gpio.c ****   RCC_APB2PeriphResetCmd(RCC_APB2Periph_AFIO, DISABLE);
 220              		.loc 1 161 3 view .LVU42
ARM GAS  /tmp/ccQprh9o.s 			page 8


 221 000a 0021     		movs	r1, #0
 222 000c 0120     		movs	r0, #1
 223 000e FFF7FEFF 		bl	RCC_APB2PeriphResetCmd
 224              	.LVL31:
 162:./Drivers/src/stm32f10x_gpio.c **** }
 225              		.loc 1 162 1 is_stmt 0 view .LVU43
 226 0012 08BD     		pop	{r3, pc}
 227              		.cfi_endproc
 228              	.LFE30:
 230              		.section	.text.GPIO_Init,"ax",%progbits
 231              		.align	1
 232              		.global	GPIO_Init
 233              		.syntax unified
 234              		.thumb
 235              		.thumb_func
 237              	GPIO_Init:
 238              	.LVL32:
 239              	.LFB31:
 163:./Drivers/src/stm32f10x_gpio.c **** 
 164:./Drivers/src/stm32f10x_gpio.c **** /**
 165:./Drivers/src/stm32f10x_gpio.c ****   * @brief  Initializes the GPIOx peripheral according to the specified
 166:./Drivers/src/stm32f10x_gpio.c ****   *         parameters in the GPIO_InitStruct.
 167:./Drivers/src/stm32f10x_gpio.c ****   * @param  GPIOx: where x can be (A..G) to select the GPIO peripheral.
 168:./Drivers/src/stm32f10x_gpio.c ****   * @param  GPIO_InitStruct: pointer to a GPIO_InitTypeDef structure that
 169:./Drivers/src/stm32f10x_gpio.c ****   *         contains the configuration information for the specified GPIO peripheral.
 170:./Drivers/src/stm32f10x_gpio.c ****   * @retval None
 171:./Drivers/src/stm32f10x_gpio.c ****   */
 172:./Drivers/src/stm32f10x_gpio.c **** void GPIO_Init(GPIO_TypeDef* GPIOx, GPIO_InitTypeDef* GPIO_InitStruct)
 173:./Drivers/src/stm32f10x_gpio.c **** {
 240              		.loc 1 173 1 is_stmt 1 view -0
 241              		.cfi_startproc
 242              		@ args = 0, pretend = 0, frame = 0
 243              		@ frame_needed = 0, uses_anonymous_args = 0
 244              		.loc 1 173 1 is_stmt 0 view .LVU45
 245 0000 30B5     		push	{r4, r5, lr}
 246              	.LCFI2:
 247              		.cfi_def_cfa_offset 12
 248              		.cfi_offset 4, -12
 249              		.cfi_offset 5, -8
 250              		.cfi_offset 14, -4
 174:./Drivers/src/stm32f10x_gpio.c ****   uint32_t currentmode = 0x00, currentpin = 0x00, pinpos = 0x00, pos = 0x00;
 251              		.loc 1 174 3 is_stmt 1 view .LVU46
 252              	.LVL33:
 175:./Drivers/src/stm32f10x_gpio.c ****   uint32_t tmpreg = 0x00, pinmask = 0x00;
 253              		.loc 1 175 3 view .LVU47
 176:./Drivers/src/stm32f10x_gpio.c ****   /* Check the parameters */
 177:./Drivers/src/stm32f10x_gpio.c ****   assert_param(IS_GPIO_ALL_PERIPH(GPIOx));
 254              		.loc 1 177 3 view .LVU48
 178:./Drivers/src/stm32f10x_gpio.c ****   assert_param(IS_GPIO_MODE(GPIO_InitStruct->GPIO_Mode));
 255              		.loc 1 178 3 view .LVU49
 179:./Drivers/src/stm32f10x_gpio.c ****   assert_param(IS_GPIO_PIN(GPIO_InitStruct->GPIO_Pin));  
 256              		.loc 1 179 3 view .LVU50
 180:./Drivers/src/stm32f10x_gpio.c ****   
 181:./Drivers/src/stm32f10x_gpio.c **** /*---------------------------- GPIO Mode Configuration -----------------------*/
 182:./Drivers/src/stm32f10x_gpio.c ****   currentmode = ((uint32_t)GPIO_InitStruct->GPIO_Mode) & ((uint32_t)0x0F);
 257              		.loc 1 182 3 view .LVU51
 258              		.loc 1 182 43 is_stmt 0 view .LVU52
ARM GAS  /tmp/ccQprh9o.s 			page 9


 259 0002 CB78     		ldrb	r3, [r1, #3]	@ zero_extendqisi2
 260 0004 03F00F02 		and	r2, r3, #15
 261              		.loc 1 182 15 view .LVU53
 262 0008 9646     		mov	lr, r2
 263              	.LVL34:
 183:./Drivers/src/stm32f10x_gpio.c ****   if ((((uint32_t)GPIO_InitStruct->GPIO_Mode) & ((uint32_t)0x10)) != 0x00)
 264              		.loc 1 183 3 is_stmt 1 view .LVU54
 265              		.loc 1 183 6 is_stmt 0 view .LVU55
 266 000a 13F0100F 		tst	r3, #16
 267 000e 03D0     		beq	.L22
 184:./Drivers/src/stm32f10x_gpio.c ****   { 
 185:./Drivers/src/stm32f10x_gpio.c ****     /* Check the parameters */
 186:./Drivers/src/stm32f10x_gpio.c ****     assert_param(IS_GPIO_SPEED(GPIO_InitStruct->GPIO_Speed));
 268              		.loc 1 186 5 is_stmt 1 view .LVU56
 187:./Drivers/src/stm32f10x_gpio.c ****     /* Output mode */
 188:./Drivers/src/stm32f10x_gpio.c ****     currentmode |= (uint32_t)GPIO_InitStruct->GPIO_Speed;
 269              		.loc 1 188 5 view .LVU57
 270              		.loc 1 188 45 is_stmt 0 view .LVU58
 271 0010 91F802E0 		ldrb	lr, [r1, #2]	@ zero_extendqisi2
 272              		.loc 1 188 17 view .LVU59
 273 0014 4EEA020E 		orr	lr, lr, r2
 274              	.L22:
 275              	.LVL35:
 189:./Drivers/src/stm32f10x_gpio.c ****   }
 190:./Drivers/src/stm32f10x_gpio.c **** /*---------------------------- GPIO CRL Configuration ------------------------*/
 191:./Drivers/src/stm32f10x_gpio.c ****   /* Configure the eight low port pins */
 192:./Drivers/src/stm32f10x_gpio.c ****   if (((uint32_t)GPIO_InitStruct->GPIO_Pin & ((uint32_t)0x00FF)) != 0x00)
 276              		.loc 1 192 3 is_stmt 1 view .LVU60
 277              		.loc 1 192 6 is_stmt 0 view .LVU61
 278 0018 0B78     		ldrb	r3, [r1]	@ zero_extendqisi2
 279 001a FBB1     		cbz	r3, .L23
 193:./Drivers/src/stm32f10x_gpio.c ****   {
 194:./Drivers/src/stm32f10x_gpio.c ****     tmpreg = GPIOx->CRL;
 280              		.loc 1 194 5 is_stmt 1 view .LVU62
 281              		.loc 1 194 12 is_stmt 0 view .LVU63
 282 001c 0568     		ldr	r5, [r0]
 283              	.LVL36:
 195:./Drivers/src/stm32f10x_gpio.c ****     for (pinpos = 0x00; pinpos < 0x08; pinpos++)
 284              		.loc 1 195 5 is_stmt 1 view .LVU64
 285              		.loc 1 195 17 is_stmt 0 view .LVU65
 286 001e 0023     		movs	r3, #0
 287              		.loc 1 195 5 view .LVU66
 288 0020 01E0     		b	.L24
 289              	.LVL37:
 290              	.L35:
 196:./Drivers/src/stm32f10x_gpio.c ****     {
 197:./Drivers/src/stm32f10x_gpio.c ****       pos = ((uint32_t)0x01) << pinpos;
 198:./Drivers/src/stm32f10x_gpio.c ****       /* Get the port pins position */
 199:./Drivers/src/stm32f10x_gpio.c ****       currentpin = (GPIO_InitStruct->GPIO_Pin) & pos;
 200:./Drivers/src/stm32f10x_gpio.c ****       if (currentpin == pos)
 201:./Drivers/src/stm32f10x_gpio.c ****       {
 202:./Drivers/src/stm32f10x_gpio.c ****         pos = pinpos << 2;
 203:./Drivers/src/stm32f10x_gpio.c ****         /* Clear the corresponding low control register bits */
 204:./Drivers/src/stm32f10x_gpio.c ****         pinmask = ((uint32_t)0x0F) << pos;
 205:./Drivers/src/stm32f10x_gpio.c ****         tmpreg &= ~pinmask;
 206:./Drivers/src/stm32f10x_gpio.c ****         /* Write the mode configuration in the corresponding bits */
 207:./Drivers/src/stm32f10x_gpio.c ****         tmpreg |= (currentmode << pos);
ARM GAS  /tmp/ccQprh9o.s 			page 10


 208:./Drivers/src/stm32f10x_gpio.c ****         /* Reset the corresponding ODR bit */
 209:./Drivers/src/stm32f10x_gpio.c ****         if (GPIO_InitStruct->GPIO_Mode == GPIO_Mode_IPD)
 210:./Drivers/src/stm32f10x_gpio.c ****         {
 211:./Drivers/src/stm32f10x_gpio.c ****           GPIOx->BRR = (((uint32_t)0x01) << pinpos);
 291              		.loc 1 211 11 is_stmt 1 view .LVU67
 292              		.loc 1 211 22 is_stmt 0 view .LVU68
 293 0022 4261     		str	r2, [r0, #20]
 294              	.LVL38:
 295              	.L25:
 195:./Drivers/src/stm32f10x_gpio.c ****     for (pinpos = 0x00; pinpos < 0x08; pinpos++)
 296              		.loc 1 195 46 is_stmt 1 discriminator 2 view .LVU69
 297 0024 0133     		adds	r3, r3, #1
 298              	.LVL39:
 299              	.L24:
 195:./Drivers/src/stm32f10x_gpio.c ****     for (pinpos = 0x00; pinpos < 0x08; pinpos++)
 300              		.loc 1 195 32 discriminator 1 view .LVU70
 301 0026 072B     		cmp	r3, #7
 302 0028 17D8     		bhi	.L34
 197:./Drivers/src/stm32f10x_gpio.c ****       /* Get the port pins position */
 303              		.loc 1 197 7 view .LVU71
 197:./Drivers/src/stm32f10x_gpio.c ****       /* Get the port pins position */
 304              		.loc 1 197 11 is_stmt 0 view .LVU72
 305 002a 0122     		movs	r2, #1
 306 002c 9A40     		lsls	r2, r2, r3
 307              	.LVL40:
 199:./Drivers/src/stm32f10x_gpio.c ****       if (currentpin == pos)
 308              		.loc 1 199 7 is_stmt 1 view .LVU73
 199:./Drivers/src/stm32f10x_gpio.c ****       if (currentpin == pos)
 309              		.loc 1 199 36 is_stmt 0 view .LVU74
 310 002e B1F800C0 		ldrh	ip, [r1]
 311              	.LVL41:
 200:./Drivers/src/stm32f10x_gpio.c ****       {
 312              		.loc 1 200 7 is_stmt 1 view .LVU75
 200:./Drivers/src/stm32f10x_gpio.c ****       {
 313              		.loc 1 200 10 is_stmt 0 view .LVU76
 314 0032 32EA0C0C 		bics	ip, r2, ip
 315              	.LVL42:
 200:./Drivers/src/stm32f10x_gpio.c ****       {
 316              		.loc 1 200 10 view .LVU77
 317 0036 F5D1     		bne	.L25
 202:./Drivers/src/stm32f10x_gpio.c ****         /* Clear the corresponding low control register bits */
 318              		.loc 1 202 9 is_stmt 1 view .LVU78
 202:./Drivers/src/stm32f10x_gpio.c ****         /* Clear the corresponding low control register bits */
 319              		.loc 1 202 13 is_stmt 0 view .LVU79
 320 0038 9C00     		lsls	r4, r3, #2
 321              	.LVL43:
 204:./Drivers/src/stm32f10x_gpio.c ****         tmpreg &= ~pinmask;
 322              		.loc 1 204 9 is_stmt 1 view .LVU80
 204:./Drivers/src/stm32f10x_gpio.c ****         tmpreg &= ~pinmask;
 323              		.loc 1 204 17 is_stmt 0 view .LVU81
 324 003a 4FF00F0C 		mov	ip, #15
 325 003e 0CFA04FC 		lsl	ip, ip, r4
 326              	.LVL44:
 205:./Drivers/src/stm32f10x_gpio.c ****         /* Write the mode configuration in the corresponding bits */
 327              		.loc 1 205 9 is_stmt 1 view .LVU82
 205:./Drivers/src/stm32f10x_gpio.c ****         /* Write the mode configuration in the corresponding bits */
 328              		.loc 1 205 16 is_stmt 0 view .LVU83
ARM GAS  /tmp/ccQprh9o.s 			page 11


 329 0042 25EA0C05 		bic	r5, r5, ip
 330              	.LVL45:
 207:./Drivers/src/stm32f10x_gpio.c ****         /* Reset the corresponding ODR bit */
 331              		.loc 1 207 9 is_stmt 1 view .LVU84
 207:./Drivers/src/stm32f10x_gpio.c ****         /* Reset the corresponding ODR bit */
 332              		.loc 1 207 32 is_stmt 0 view .LVU85
 333 0046 0EFA04F4 		lsl	r4, lr, r4
 334              	.LVL46:
 207:./Drivers/src/stm32f10x_gpio.c ****         /* Reset the corresponding ODR bit */
 335              		.loc 1 207 16 view .LVU86
 336 004a 2543     		orrs	r5, r5, r4
 337              	.LVL47:
 209:./Drivers/src/stm32f10x_gpio.c ****         {
 338              		.loc 1 209 9 is_stmt 1 view .LVU87
 209:./Drivers/src/stm32f10x_gpio.c ****         {
 339              		.loc 1 209 28 is_stmt 0 view .LVU88
 340 004c CC78     		ldrb	r4, [r1, #3]	@ zero_extendqisi2
 209:./Drivers/src/stm32f10x_gpio.c ****         {
 341              		.loc 1 209 12 view .LVU89
 342 004e 282C     		cmp	r4, #40
 343 0050 E7D0     		beq	.L35
 212:./Drivers/src/stm32f10x_gpio.c ****         }
 213:./Drivers/src/stm32f10x_gpio.c ****         else
 214:./Drivers/src/stm32f10x_gpio.c ****         {
 215:./Drivers/src/stm32f10x_gpio.c ****           /* Set the corresponding ODR bit */
 216:./Drivers/src/stm32f10x_gpio.c ****           if (GPIO_InitStruct->GPIO_Mode == GPIO_Mode_IPU)
 344              		.loc 1 216 11 is_stmt 1 view .LVU90
 345              		.loc 1 216 14 is_stmt 0 view .LVU91
 346 0052 482C     		cmp	r4, #72
 347 0054 E6D1     		bne	.L25
 217:./Drivers/src/stm32f10x_gpio.c ****           {
 218:./Drivers/src/stm32f10x_gpio.c ****             GPIOx->BSRR = (((uint32_t)0x01) << pinpos);
 348              		.loc 1 218 13 is_stmt 1 view .LVU92
 349              		.loc 1 218 25 is_stmt 0 view .LVU93
 350 0056 0261     		str	r2, [r0, #16]
 351              	.LVL48:
 352              		.loc 1 218 25 view .LVU94
 353 0058 E4E7     		b	.L25
 354              	.LVL49:
 355              	.L34:
 219:./Drivers/src/stm32f10x_gpio.c ****           }
 220:./Drivers/src/stm32f10x_gpio.c ****         }
 221:./Drivers/src/stm32f10x_gpio.c ****       }
 222:./Drivers/src/stm32f10x_gpio.c ****     }
 223:./Drivers/src/stm32f10x_gpio.c ****     GPIOx->CRL = tmpreg;
 356              		.loc 1 223 5 is_stmt 1 view .LVU95
 357              		.loc 1 223 16 is_stmt 0 view .LVU96
 358 005a 0560     		str	r5, [r0]
 359              	.LVL50:
 360              	.L23:
 224:./Drivers/src/stm32f10x_gpio.c ****   }
 225:./Drivers/src/stm32f10x_gpio.c **** /*---------------------------- GPIO CRH Configuration ------------------------*/
 226:./Drivers/src/stm32f10x_gpio.c ****   /* Configure the eight high port pins */
 227:./Drivers/src/stm32f10x_gpio.c ****   if (GPIO_InitStruct->GPIO_Pin > 0x00FF)
 361              		.loc 1 227 3 is_stmt 1 view .LVU97
 362              		.loc 1 227 22 is_stmt 0 view .LVU98
 363 005c 0B88     		ldrh	r3, [r1]
ARM GAS  /tmp/ccQprh9o.s 			page 12


 364              		.loc 1 227 6 view .LVU99
 365 005e FF2B     		cmp	r3, #255
 366 0060 25D9     		bls	.L21
 228:./Drivers/src/stm32f10x_gpio.c ****   {
 229:./Drivers/src/stm32f10x_gpio.c ****     tmpreg = GPIOx->CRH;
 367              		.loc 1 229 5 is_stmt 1 view .LVU100
 368              		.loc 1 229 12 is_stmt 0 view .LVU101
 369 0062 4568     		ldr	r5, [r0, #4]
 370              	.LVL51:
 230:./Drivers/src/stm32f10x_gpio.c ****     for (pinpos = 0x00; pinpos < 0x08; pinpos++)
 371              		.loc 1 230 5 is_stmt 1 view .LVU102
 372              		.loc 1 230 17 is_stmt 0 view .LVU103
 373 0064 0023     		movs	r3, #0
 374              		.loc 1 230 5 view .LVU104
 375 0066 03E0     		b	.L29
 376              	.LVL52:
 377              	.L31:
 231:./Drivers/src/stm32f10x_gpio.c ****     {
 232:./Drivers/src/stm32f10x_gpio.c ****       pos = (((uint32_t)0x01) << (pinpos + 0x08));
 233:./Drivers/src/stm32f10x_gpio.c ****       /* Get the port pins position */
 234:./Drivers/src/stm32f10x_gpio.c ****       currentpin = ((GPIO_InitStruct->GPIO_Pin) & pos);
 235:./Drivers/src/stm32f10x_gpio.c ****       if (currentpin == pos)
 236:./Drivers/src/stm32f10x_gpio.c ****       {
 237:./Drivers/src/stm32f10x_gpio.c ****         pos = pinpos << 2;
 238:./Drivers/src/stm32f10x_gpio.c ****         /* Clear the corresponding high control register bits */
 239:./Drivers/src/stm32f10x_gpio.c ****         pinmask = ((uint32_t)0x0F) << pos;
 240:./Drivers/src/stm32f10x_gpio.c ****         tmpreg &= ~pinmask;
 241:./Drivers/src/stm32f10x_gpio.c ****         /* Write the mode configuration in the corresponding bits */
 242:./Drivers/src/stm32f10x_gpio.c ****         tmpreg |= (currentmode << pos);
 243:./Drivers/src/stm32f10x_gpio.c ****         /* Reset the corresponding ODR bit */
 244:./Drivers/src/stm32f10x_gpio.c ****         if (GPIO_InitStruct->GPIO_Mode == GPIO_Mode_IPD)
 245:./Drivers/src/stm32f10x_gpio.c ****         {
 246:./Drivers/src/stm32f10x_gpio.c ****           GPIOx->BRR = (((uint32_t)0x01) << (pinpos + 0x08));
 247:./Drivers/src/stm32f10x_gpio.c ****         }
 248:./Drivers/src/stm32f10x_gpio.c ****         /* Set the corresponding ODR bit */
 249:./Drivers/src/stm32f10x_gpio.c ****         if (GPIO_InitStruct->GPIO_Mode == GPIO_Mode_IPU)
 378              		.loc 1 249 9 is_stmt 1 view .LVU105
 379              		.loc 1 249 28 is_stmt 0 view .LVU106
 380 0068 CC78     		ldrb	r4, [r1, #3]	@ zero_extendqisi2
 381              		.loc 1 249 12 view .LVU107
 382 006a 482C     		cmp	r4, #72
 383 006c 1CD0     		beq	.L36
 384              	.LVL53:
 385              	.L30:
 230:./Drivers/src/stm32f10x_gpio.c ****     for (pinpos = 0x00; pinpos < 0x08; pinpos++)
 386              		.loc 1 230 46 is_stmt 1 discriminator 2 view .LVU108
 387 006e 0133     		adds	r3, r3, #1
 388              	.LVL54:
 389              	.L29:
 230:./Drivers/src/stm32f10x_gpio.c ****     for (pinpos = 0x00; pinpos < 0x08; pinpos++)
 390              		.loc 1 230 32 discriminator 1 view .LVU109
 391 0070 072B     		cmp	r3, #7
 392 0072 1BD8     		bhi	.L37
 232:./Drivers/src/stm32f10x_gpio.c ****       /* Get the port pins position */
 393              		.loc 1 232 7 view .LVU110
 232:./Drivers/src/stm32f10x_gpio.c ****       /* Get the port pins position */
 394              		.loc 1 232 42 is_stmt 0 view .LVU111
ARM GAS  /tmp/ccQprh9o.s 			page 13


 395 0074 03F1080C 		add	ip, r3, #8
 232:./Drivers/src/stm32f10x_gpio.c ****       /* Get the port pins position */
 396              		.loc 1 232 11 view .LVU112
 397 0078 0122     		movs	r2, #1
 398 007a 02FA0CF2 		lsl	r2, r2, ip
 399              	.LVL55:
 234:./Drivers/src/stm32f10x_gpio.c ****       if (currentpin == pos)
 400              		.loc 1 234 7 is_stmt 1 view .LVU113
 234:./Drivers/src/stm32f10x_gpio.c ****       if (currentpin == pos)
 401              		.loc 1 234 37 is_stmt 0 view .LVU114
 402 007e B1F800C0 		ldrh	ip, [r1]
 403              	.LVL56:
 235:./Drivers/src/stm32f10x_gpio.c ****       {
 404              		.loc 1 235 7 is_stmt 1 view .LVU115
 235:./Drivers/src/stm32f10x_gpio.c ****       {
 405              		.loc 1 235 10 is_stmt 0 view .LVU116
 406 0082 32EA0C0C 		bics	ip, r2, ip
 407              	.LVL57:
 235:./Drivers/src/stm32f10x_gpio.c ****       {
 408              		.loc 1 235 10 view .LVU117
 409 0086 F2D1     		bne	.L30
 237:./Drivers/src/stm32f10x_gpio.c ****         /* Clear the corresponding high control register bits */
 410              		.loc 1 237 9 is_stmt 1 view .LVU118
 237:./Drivers/src/stm32f10x_gpio.c ****         /* Clear the corresponding high control register bits */
 411              		.loc 1 237 13 is_stmt 0 view .LVU119
 412 0088 9C00     		lsls	r4, r3, #2
 413              	.LVL58:
 239:./Drivers/src/stm32f10x_gpio.c ****         tmpreg &= ~pinmask;
 414              		.loc 1 239 9 is_stmt 1 view .LVU120
 239:./Drivers/src/stm32f10x_gpio.c ****         tmpreg &= ~pinmask;
 415              		.loc 1 239 17 is_stmt 0 view .LVU121
 416 008a 4FF00F0C 		mov	ip, #15
 417 008e 0CFA04FC 		lsl	ip, ip, r4
 418              	.LVL59:
 240:./Drivers/src/stm32f10x_gpio.c ****         /* Write the mode configuration in the corresponding bits */
 419              		.loc 1 240 9 is_stmt 1 view .LVU122
 240:./Drivers/src/stm32f10x_gpio.c ****         /* Write the mode configuration in the corresponding bits */
 420              		.loc 1 240 16 is_stmt 0 view .LVU123
 421 0092 25EA0C0C 		bic	ip, r5, ip
 422              	.LVL60:
 242:./Drivers/src/stm32f10x_gpio.c ****         /* Reset the corresponding ODR bit */
 423              		.loc 1 242 9 is_stmt 1 view .LVU124
 242:./Drivers/src/stm32f10x_gpio.c ****         /* Reset the corresponding ODR bit */
 424              		.loc 1 242 32 is_stmt 0 view .LVU125
 425 0096 0EFA04F4 		lsl	r4, lr, r4
 426              	.LVL61:
 242:./Drivers/src/stm32f10x_gpio.c ****         /* Reset the corresponding ODR bit */
 427              		.loc 1 242 16 view .LVU126
 428 009a 44EA0C05 		orr	r5, r4, ip
 429              	.LVL62:
 244:./Drivers/src/stm32f10x_gpio.c ****         {
 430              		.loc 1 244 9 is_stmt 1 view .LVU127
 244:./Drivers/src/stm32f10x_gpio.c ****         {
 431              		.loc 1 244 28 is_stmt 0 view .LVU128
 432 009e CC78     		ldrb	r4, [r1, #3]	@ zero_extendqisi2
 244:./Drivers/src/stm32f10x_gpio.c ****         {
 433              		.loc 1 244 12 view .LVU129
ARM GAS  /tmp/ccQprh9o.s 			page 14


 434 00a0 282C     		cmp	r4, #40
 435 00a2 E1D1     		bne	.L31
 246:./Drivers/src/stm32f10x_gpio.c ****         }
 436              		.loc 1 246 11 is_stmt 1 view .LVU130
 246:./Drivers/src/stm32f10x_gpio.c ****         }
 437              		.loc 1 246 22 is_stmt 0 view .LVU131
 438 00a4 4261     		str	r2, [r0, #20]
 439              	.LVL63:
 246:./Drivers/src/stm32f10x_gpio.c ****         }
 440              		.loc 1 246 22 view .LVU132
 441 00a6 DFE7     		b	.L31
 442              	.L36:
 250:./Drivers/src/stm32f10x_gpio.c ****         {
 251:./Drivers/src/stm32f10x_gpio.c ****           GPIOx->BSRR = (((uint32_t)0x01) << (pinpos + 0x08));
 443              		.loc 1 251 11 is_stmt 1 view .LVU133
 444              		.loc 1 251 23 is_stmt 0 view .LVU134
 445 00a8 0261     		str	r2, [r0, #16]
 446 00aa E0E7     		b	.L30
 447              	.LVL64:
 448              	.L37:
 252:./Drivers/src/stm32f10x_gpio.c ****         }
 253:./Drivers/src/stm32f10x_gpio.c ****       }
 254:./Drivers/src/stm32f10x_gpio.c ****     }
 255:./Drivers/src/stm32f10x_gpio.c ****     GPIOx->CRH = tmpreg;
 449              		.loc 1 255 5 is_stmt 1 view .LVU135
 450              		.loc 1 255 16 is_stmt 0 view .LVU136
 451 00ac 4560     		str	r5, [r0, #4]
 452              	.LVL65:
 453              	.L21:
 256:./Drivers/src/stm32f10x_gpio.c ****   }
 257:./Drivers/src/stm32f10x_gpio.c **** }
 454              		.loc 1 257 1 view .LVU137
 455 00ae 30BD     		pop	{r4, r5, pc}
 456              		.cfi_endproc
 457              	.LFE31:
 459              		.section	.text.GPIO_StructInit,"ax",%progbits
 460              		.align	1
 461              		.global	GPIO_StructInit
 462              		.syntax unified
 463              		.thumb
 464              		.thumb_func
 466              	GPIO_StructInit:
 467              	.LVL66:
 468              	.LFB32:
 258:./Drivers/src/stm32f10x_gpio.c **** 
 259:./Drivers/src/stm32f10x_gpio.c **** /**
 260:./Drivers/src/stm32f10x_gpio.c ****   * @brief  Fills each GPIO_InitStruct member with its default value.
 261:./Drivers/src/stm32f10x_gpio.c ****   * @param  GPIO_InitStruct : pointer to a GPIO_InitTypeDef structure which will
 262:./Drivers/src/stm32f10x_gpio.c ****   *         be initialized.
 263:./Drivers/src/stm32f10x_gpio.c ****   * @retval None
 264:./Drivers/src/stm32f10x_gpio.c ****   */
 265:./Drivers/src/stm32f10x_gpio.c **** void GPIO_StructInit(GPIO_InitTypeDef* GPIO_InitStruct)
 266:./Drivers/src/stm32f10x_gpio.c **** {
 469              		.loc 1 266 1 is_stmt 1 view -0
 470              		.cfi_startproc
 471              		@ args = 0, pretend = 0, frame = 0
 472              		@ frame_needed = 0, uses_anonymous_args = 0
ARM GAS  /tmp/ccQprh9o.s 			page 15


 473              		@ link register save eliminated.
 267:./Drivers/src/stm32f10x_gpio.c ****   /* Reset GPIO init structure parameters values */
 268:./Drivers/src/stm32f10x_gpio.c ****   GPIO_InitStruct->GPIO_Pin  = GPIO_Pin_All;
 474              		.loc 1 268 3 view .LVU139
 475              		.loc 1 268 30 is_stmt 0 view .LVU140
 476 0000 4FF6FF73 		movw	r3, #65535
 477 0004 0380     		strh	r3, [r0]	@ movhi
 269:./Drivers/src/stm32f10x_gpio.c ****   GPIO_InitStruct->GPIO_Speed = GPIO_Speed_2MHz;
 478              		.loc 1 269 3 is_stmt 1 view .LVU141
 479              		.loc 1 269 31 is_stmt 0 view .LVU142
 480 0006 0223     		movs	r3, #2
 481 0008 8370     		strb	r3, [r0, #2]
 270:./Drivers/src/stm32f10x_gpio.c ****   GPIO_InitStruct->GPIO_Mode = GPIO_Mode_IN_FLOATING;
 482              		.loc 1 270 3 is_stmt 1 view .LVU143
 483              		.loc 1 270 30 is_stmt 0 view .LVU144
 484 000a 0423     		movs	r3, #4
 485 000c C370     		strb	r3, [r0, #3]
 271:./Drivers/src/stm32f10x_gpio.c **** }
 486              		.loc 1 271 1 view .LVU145
 487 000e 7047     		bx	lr
 488              		.cfi_endproc
 489              	.LFE32:
 491              		.section	.text.GPIO_ReadInputDataBit,"ax",%progbits
 492              		.align	1
 493              		.global	GPIO_ReadInputDataBit
 494              		.syntax unified
 495              		.thumb
 496              		.thumb_func
 498              	GPIO_ReadInputDataBit:
 499              	.LVL67:
 500              	.LFB33:
 272:./Drivers/src/stm32f10x_gpio.c **** 
 273:./Drivers/src/stm32f10x_gpio.c **** /**
 274:./Drivers/src/stm32f10x_gpio.c ****   * @brief  Reads the specified input port pin.
 275:./Drivers/src/stm32f10x_gpio.c ****   * @param  GPIOx: where x can be (A..G) to select the GPIO peripheral.
 276:./Drivers/src/stm32f10x_gpio.c ****   * @param  GPIO_Pin:  specifies the port bit to read.
 277:./Drivers/src/stm32f10x_gpio.c ****   *   This parameter can be GPIO_Pin_x where x can be (0..15).
 278:./Drivers/src/stm32f10x_gpio.c ****   * @retval The input port pin value.
 279:./Drivers/src/stm32f10x_gpio.c ****   */
 280:./Drivers/src/stm32f10x_gpio.c **** uint8_t GPIO_ReadInputDataBit(GPIO_TypeDef* GPIOx, uint16_t GPIO_Pin)
 281:./Drivers/src/stm32f10x_gpio.c **** {
 501              		.loc 1 281 1 is_stmt 1 view -0
 502              		.cfi_startproc
 503              		@ args = 0, pretend = 0, frame = 0
 504              		@ frame_needed = 0, uses_anonymous_args = 0
 505              		@ link register save eliminated.
 282:./Drivers/src/stm32f10x_gpio.c ****   uint8_t bitstatus = 0x00;
 506              		.loc 1 282 3 view .LVU147
 283:./Drivers/src/stm32f10x_gpio.c ****   
 284:./Drivers/src/stm32f10x_gpio.c ****   /* Check the parameters */
 285:./Drivers/src/stm32f10x_gpio.c ****   assert_param(IS_GPIO_ALL_PERIPH(GPIOx));
 507              		.loc 1 285 3 view .LVU148
 286:./Drivers/src/stm32f10x_gpio.c ****   assert_param(IS_GET_GPIO_PIN(GPIO_Pin)); 
 508              		.loc 1 286 3 view .LVU149
 287:./Drivers/src/stm32f10x_gpio.c ****   
 288:./Drivers/src/stm32f10x_gpio.c ****   if ((GPIOx->IDR & GPIO_Pin) != (uint32_t)Bit_RESET)
 509              		.loc 1 288 3 view .LVU150
ARM GAS  /tmp/ccQprh9o.s 			page 16


 510              		.loc 1 288 13 is_stmt 0 view .LVU151
 511 0000 8368     		ldr	r3, [r0, #8]
 512              		.loc 1 288 6 view .LVU152
 513 0002 1942     		tst	r1, r3
 514 0004 01D0     		beq	.L41
 289:./Drivers/src/stm32f10x_gpio.c ****   {
 290:./Drivers/src/stm32f10x_gpio.c ****     bitstatus = (uint8_t)Bit_SET;
 515              		.loc 1 290 15 view .LVU153
 516 0006 0120     		movs	r0, #1
 517              	.LVL68:
 518              		.loc 1 290 15 view .LVU154
 519 0008 7047     		bx	lr
 520              	.LVL69:
 521              	.L41:
 291:./Drivers/src/stm32f10x_gpio.c ****   }
 292:./Drivers/src/stm32f10x_gpio.c ****   else
 293:./Drivers/src/stm32f10x_gpio.c ****   {
 294:./Drivers/src/stm32f10x_gpio.c ****     bitstatus = (uint8_t)Bit_RESET;
 522              		.loc 1 294 15 view .LVU155
 523 000a 0020     		movs	r0, #0
 524              	.LVL70:
 295:./Drivers/src/stm32f10x_gpio.c ****   }
 296:./Drivers/src/stm32f10x_gpio.c ****   return bitstatus;
 525              		.loc 1 296 3 is_stmt 1 view .LVU156
 297:./Drivers/src/stm32f10x_gpio.c **** }
 526              		.loc 1 297 1 is_stmt 0 view .LVU157
 527 000c 7047     		bx	lr
 528              		.cfi_endproc
 529              	.LFE33:
 531              		.section	.text.GPIO_ReadInputData,"ax",%progbits
 532              		.align	1
 533              		.global	GPIO_ReadInputData
 534              		.syntax unified
 535              		.thumb
 536              		.thumb_func
 538              	GPIO_ReadInputData:
 539              	.LVL71:
 540              	.LFB34:
 298:./Drivers/src/stm32f10x_gpio.c **** 
 299:./Drivers/src/stm32f10x_gpio.c **** /**
 300:./Drivers/src/stm32f10x_gpio.c ****   * @brief  Reads the specified GPIO input data port.
 301:./Drivers/src/stm32f10x_gpio.c ****   * @param  GPIOx: where x can be (A..G) to select the GPIO peripheral.
 302:./Drivers/src/stm32f10x_gpio.c ****   * @retval GPIO input data port value.
 303:./Drivers/src/stm32f10x_gpio.c ****   */
 304:./Drivers/src/stm32f10x_gpio.c **** uint16_t GPIO_ReadInputData(GPIO_TypeDef* GPIOx)
 305:./Drivers/src/stm32f10x_gpio.c **** {
 541              		.loc 1 305 1 is_stmt 1 view -0
 542              		.cfi_startproc
 543              		@ args = 0, pretend = 0, frame = 0
 544              		@ frame_needed = 0, uses_anonymous_args = 0
 545              		@ link register save eliminated.
 306:./Drivers/src/stm32f10x_gpio.c ****   /* Check the parameters */
 307:./Drivers/src/stm32f10x_gpio.c ****   assert_param(IS_GPIO_ALL_PERIPH(GPIOx));
 546              		.loc 1 307 3 view .LVU159
 308:./Drivers/src/stm32f10x_gpio.c ****   
 309:./Drivers/src/stm32f10x_gpio.c ****   return ((uint16_t)GPIOx->IDR);
 547              		.loc 1 309 3 view .LVU160
ARM GAS  /tmp/ccQprh9o.s 			page 17


 548              		.loc 1 309 26 is_stmt 0 view .LVU161
 549 0000 8068     		ldr	r0, [r0, #8]
 550              	.LVL72:
 310:./Drivers/src/stm32f10x_gpio.c **** }
 551              		.loc 1 310 1 view .LVU162
 552 0002 80B2     		uxth	r0, r0
 553 0004 7047     		bx	lr
 554              		.cfi_endproc
 555              	.LFE34:
 557              		.section	.text.GPIO_ReadOutputDataBit,"ax",%progbits
 558              		.align	1
 559              		.global	GPIO_ReadOutputDataBit
 560              		.syntax unified
 561              		.thumb
 562              		.thumb_func
 564              	GPIO_ReadOutputDataBit:
 565              	.LVL73:
 566              	.LFB35:
 311:./Drivers/src/stm32f10x_gpio.c **** 
 312:./Drivers/src/stm32f10x_gpio.c **** /**
 313:./Drivers/src/stm32f10x_gpio.c ****   * @brief  Reads the specified output data port bit.
 314:./Drivers/src/stm32f10x_gpio.c ****   * @param  GPIOx: where x can be (A..G) to select the GPIO peripheral.
 315:./Drivers/src/stm32f10x_gpio.c ****   * @param  GPIO_Pin:  specifies the port bit to read.
 316:./Drivers/src/stm32f10x_gpio.c ****   *   This parameter can be GPIO_Pin_x where x can be (0..15).
 317:./Drivers/src/stm32f10x_gpio.c ****   * @retval The output port pin value.
 318:./Drivers/src/stm32f10x_gpio.c ****   */
 319:./Drivers/src/stm32f10x_gpio.c **** uint8_t GPIO_ReadOutputDataBit(GPIO_TypeDef* GPIOx, uint16_t GPIO_Pin)
 320:./Drivers/src/stm32f10x_gpio.c **** {
 567              		.loc 1 320 1 is_stmt 1 view -0
 568              		.cfi_startproc
 569              		@ args = 0, pretend = 0, frame = 0
 570              		@ frame_needed = 0, uses_anonymous_args = 0
 571              		@ link register save eliminated.
 321:./Drivers/src/stm32f10x_gpio.c ****   uint8_t bitstatus = 0x00;
 572              		.loc 1 321 3 view .LVU164
 322:./Drivers/src/stm32f10x_gpio.c ****   /* Check the parameters */
 323:./Drivers/src/stm32f10x_gpio.c ****   assert_param(IS_GPIO_ALL_PERIPH(GPIOx));
 573              		.loc 1 323 3 view .LVU165
 324:./Drivers/src/stm32f10x_gpio.c ****   assert_param(IS_GET_GPIO_PIN(GPIO_Pin)); 
 574              		.loc 1 324 3 view .LVU166
 325:./Drivers/src/stm32f10x_gpio.c ****   
 326:./Drivers/src/stm32f10x_gpio.c ****   if ((GPIOx->ODR & GPIO_Pin) != (uint32_t)Bit_RESET)
 575              		.loc 1 326 3 view .LVU167
 576              		.loc 1 326 13 is_stmt 0 view .LVU168
 577 0000 C368     		ldr	r3, [r0, #12]
 578              		.loc 1 326 6 view .LVU169
 579 0002 1942     		tst	r1, r3
 580 0004 01D0     		beq	.L45
 327:./Drivers/src/stm32f10x_gpio.c ****   {
 328:./Drivers/src/stm32f10x_gpio.c ****     bitstatus = (uint8_t)Bit_SET;
 581              		.loc 1 328 15 view .LVU170
 582 0006 0120     		movs	r0, #1
 583              	.LVL74:
 584              		.loc 1 328 15 view .LVU171
 585 0008 7047     		bx	lr
 586              	.LVL75:
 587              	.L45:
ARM GAS  /tmp/ccQprh9o.s 			page 18


 329:./Drivers/src/stm32f10x_gpio.c ****   }
 330:./Drivers/src/stm32f10x_gpio.c ****   else
 331:./Drivers/src/stm32f10x_gpio.c ****   {
 332:./Drivers/src/stm32f10x_gpio.c ****     bitstatus = (uint8_t)Bit_RESET;
 588              		.loc 1 332 15 view .LVU172
 589 000a 0020     		movs	r0, #0
 590              	.LVL76:
 333:./Drivers/src/stm32f10x_gpio.c ****   }
 334:./Drivers/src/stm32f10x_gpio.c ****   return bitstatus;
 591              		.loc 1 334 3 is_stmt 1 view .LVU173
 335:./Drivers/src/stm32f10x_gpio.c **** }
 592              		.loc 1 335 1 is_stmt 0 view .LVU174
 593 000c 7047     		bx	lr
 594              		.cfi_endproc
 595              	.LFE35:
 597              		.section	.text.GPIO_ReadOutputData,"ax",%progbits
 598              		.align	1
 599              		.global	GPIO_ReadOutputData
 600              		.syntax unified
 601              		.thumb
 602              		.thumb_func
 604              	GPIO_ReadOutputData:
 605              	.LVL77:
 606              	.LFB36:
 336:./Drivers/src/stm32f10x_gpio.c **** 
 337:./Drivers/src/stm32f10x_gpio.c **** /**
 338:./Drivers/src/stm32f10x_gpio.c ****   * @brief  Reads the specified GPIO output data port.
 339:./Drivers/src/stm32f10x_gpio.c ****   * @param  GPIOx: where x can be (A..G) to select the GPIO peripheral.
 340:./Drivers/src/stm32f10x_gpio.c ****   * @retval GPIO output data port value.
 341:./Drivers/src/stm32f10x_gpio.c ****   */
 342:./Drivers/src/stm32f10x_gpio.c **** uint16_t GPIO_ReadOutputData(GPIO_TypeDef* GPIOx)
 343:./Drivers/src/stm32f10x_gpio.c **** {
 607              		.loc 1 343 1 is_stmt 1 view -0
 608              		.cfi_startproc
 609              		@ args = 0, pretend = 0, frame = 0
 610              		@ frame_needed = 0, uses_anonymous_args = 0
 611              		@ link register save eliminated.
 344:./Drivers/src/stm32f10x_gpio.c ****   /* Check the parameters */
 345:./Drivers/src/stm32f10x_gpio.c ****   assert_param(IS_GPIO_ALL_PERIPH(GPIOx));
 612              		.loc 1 345 3 view .LVU176
 346:./Drivers/src/stm32f10x_gpio.c ****     
 347:./Drivers/src/stm32f10x_gpio.c ****   return ((uint16_t)GPIOx->ODR);
 613              		.loc 1 347 3 view .LVU177
 614              		.loc 1 347 26 is_stmt 0 view .LVU178
 615 0000 C068     		ldr	r0, [r0, #12]
 616              	.LVL78:
 348:./Drivers/src/stm32f10x_gpio.c **** }
 617              		.loc 1 348 1 view .LVU179
 618 0002 80B2     		uxth	r0, r0
 619 0004 7047     		bx	lr
 620              		.cfi_endproc
 621              	.LFE36:
 623              		.section	.text.GPIO_SetBits,"ax",%progbits
 624              		.align	1
 625              		.global	GPIO_SetBits
 626              		.syntax unified
 627              		.thumb
ARM GAS  /tmp/ccQprh9o.s 			page 19


 628              		.thumb_func
 630              	GPIO_SetBits:
 631              	.LVL79:
 632              	.LFB37:
 349:./Drivers/src/stm32f10x_gpio.c **** 
 350:./Drivers/src/stm32f10x_gpio.c **** /**
 351:./Drivers/src/stm32f10x_gpio.c ****   * @brief  Sets the selected data port bits.
 352:./Drivers/src/stm32f10x_gpio.c ****   * @param  GPIOx: where x can be (A..G) to select the GPIO peripheral.
 353:./Drivers/src/stm32f10x_gpio.c ****   * @param  GPIO_Pin: specifies the port bits to be written.
 354:./Drivers/src/stm32f10x_gpio.c ****   *   This parameter can be any combination of GPIO_Pin_x where x can be (0..15).
 355:./Drivers/src/stm32f10x_gpio.c ****   * @retval None
 356:./Drivers/src/stm32f10x_gpio.c ****   */
 357:./Drivers/src/stm32f10x_gpio.c **** void GPIO_SetBits(GPIO_TypeDef* GPIOx, uint16_t GPIO_Pin)
 358:./Drivers/src/stm32f10x_gpio.c **** {
 633              		.loc 1 358 1 is_stmt 1 view -0
 634              		.cfi_startproc
 635              		@ args = 0, pretend = 0, frame = 0
 636              		@ frame_needed = 0, uses_anonymous_args = 0
 637              		@ link register save eliminated.
 359:./Drivers/src/stm32f10x_gpio.c ****   /* Check the parameters */
 360:./Drivers/src/stm32f10x_gpio.c ****   assert_param(IS_GPIO_ALL_PERIPH(GPIOx));
 638              		.loc 1 360 3 view .LVU181
 361:./Drivers/src/stm32f10x_gpio.c ****   assert_param(IS_GPIO_PIN(GPIO_Pin));
 639              		.loc 1 361 3 view .LVU182
 362:./Drivers/src/stm32f10x_gpio.c ****   
 363:./Drivers/src/stm32f10x_gpio.c ****   GPIOx->BSRR = GPIO_Pin;
 640              		.loc 1 363 3 view .LVU183
 641              		.loc 1 363 15 is_stmt 0 view .LVU184
 642 0000 0161     		str	r1, [r0, #16]
 364:./Drivers/src/stm32f10x_gpio.c **** }
 643              		.loc 1 364 1 view .LVU185
 644 0002 7047     		bx	lr
 645              		.cfi_endproc
 646              	.LFE37:
 648              		.section	.text.GPIO_ResetBits,"ax",%progbits
 649              		.align	1
 650              		.global	GPIO_ResetBits
 651              		.syntax unified
 652              		.thumb
 653              		.thumb_func
 655              	GPIO_ResetBits:
 656              	.LVL80:
 657              	.LFB38:
 365:./Drivers/src/stm32f10x_gpio.c **** 
 366:./Drivers/src/stm32f10x_gpio.c **** /**
 367:./Drivers/src/stm32f10x_gpio.c ****   * @brief  Clears the selected data port bits.
 368:./Drivers/src/stm32f10x_gpio.c ****   * @param  GPIOx: where x can be (A..G) to select the GPIO peripheral.
 369:./Drivers/src/stm32f10x_gpio.c ****   * @param  GPIO_Pin: specifies the port bits to be written.
 370:./Drivers/src/stm32f10x_gpio.c ****   *   This parameter can be any combination of GPIO_Pin_x where x can be (0..15).
 371:./Drivers/src/stm32f10x_gpio.c ****   * @retval None
 372:./Drivers/src/stm32f10x_gpio.c ****   */
 373:./Drivers/src/stm32f10x_gpio.c **** void GPIO_ResetBits(GPIO_TypeDef* GPIOx, uint16_t GPIO_Pin)
 374:./Drivers/src/stm32f10x_gpio.c **** {
 658              		.loc 1 374 1 is_stmt 1 view -0
 659              		.cfi_startproc
 660              		@ args = 0, pretend = 0, frame = 0
 661              		@ frame_needed = 0, uses_anonymous_args = 0
ARM GAS  /tmp/ccQprh9o.s 			page 20


 662              		@ link register save eliminated.
 375:./Drivers/src/stm32f10x_gpio.c ****   /* Check the parameters */
 376:./Drivers/src/stm32f10x_gpio.c ****   assert_param(IS_GPIO_ALL_PERIPH(GPIOx));
 663              		.loc 1 376 3 view .LVU187
 377:./Drivers/src/stm32f10x_gpio.c ****   assert_param(IS_GPIO_PIN(GPIO_Pin));
 664              		.loc 1 377 3 view .LVU188
 378:./Drivers/src/stm32f10x_gpio.c ****   
 379:./Drivers/src/stm32f10x_gpio.c ****   GPIOx->BRR = GPIO_Pin;
 665              		.loc 1 379 3 view .LVU189
 666              		.loc 1 379 14 is_stmt 0 view .LVU190
 667 0000 4161     		str	r1, [r0, #20]
 380:./Drivers/src/stm32f10x_gpio.c **** }
 668              		.loc 1 380 1 view .LVU191
 669 0002 7047     		bx	lr
 670              		.cfi_endproc
 671              	.LFE38:
 673              		.section	.text.GPIO_WriteBit,"ax",%progbits
 674              		.align	1
 675              		.global	GPIO_WriteBit
 676              		.syntax unified
 677              		.thumb
 678              		.thumb_func
 680              	GPIO_WriteBit:
 681              	.LVL81:
 682              	.LFB39:
 381:./Drivers/src/stm32f10x_gpio.c **** 
 382:./Drivers/src/stm32f10x_gpio.c **** /**
 383:./Drivers/src/stm32f10x_gpio.c ****   * @brief  Sets or clears the selected data port bit.
 384:./Drivers/src/stm32f10x_gpio.c ****   * @param  GPIOx: where x can be (A..G) to select the GPIO peripheral.
 385:./Drivers/src/stm32f10x_gpio.c ****   * @param  GPIO_Pin: specifies the port bit to be written.
 386:./Drivers/src/stm32f10x_gpio.c ****   *   This parameter can be one of GPIO_Pin_x where x can be (0..15).
 387:./Drivers/src/stm32f10x_gpio.c ****   * @param  BitVal: specifies the value to be written to the selected bit.
 388:./Drivers/src/stm32f10x_gpio.c ****   *   This parameter can be one of the BitAction enum values:
 389:./Drivers/src/stm32f10x_gpio.c ****   *     @arg Bit_RESET: to clear the port pin
 390:./Drivers/src/stm32f10x_gpio.c ****   *     @arg Bit_SET: to set the port pin
 391:./Drivers/src/stm32f10x_gpio.c ****   * @retval None
 392:./Drivers/src/stm32f10x_gpio.c ****   */
 393:./Drivers/src/stm32f10x_gpio.c **** void GPIO_WriteBit(GPIO_TypeDef* GPIOx, uint16_t GPIO_Pin, BitAction BitVal)
 394:./Drivers/src/stm32f10x_gpio.c **** {
 683              		.loc 1 394 1 is_stmt 1 view -0
 684              		.cfi_startproc
 685              		@ args = 0, pretend = 0, frame = 0
 686              		@ frame_needed = 0, uses_anonymous_args = 0
 687              		@ link register save eliminated.
 395:./Drivers/src/stm32f10x_gpio.c ****   /* Check the parameters */
 396:./Drivers/src/stm32f10x_gpio.c ****   assert_param(IS_GPIO_ALL_PERIPH(GPIOx));
 688              		.loc 1 396 3 view .LVU193
 397:./Drivers/src/stm32f10x_gpio.c ****   assert_param(IS_GET_GPIO_PIN(GPIO_Pin));
 689              		.loc 1 397 3 view .LVU194
 398:./Drivers/src/stm32f10x_gpio.c ****   assert_param(IS_GPIO_BIT_ACTION(BitVal)); 
 690              		.loc 1 398 3 view .LVU195
 399:./Drivers/src/stm32f10x_gpio.c ****   
 400:./Drivers/src/stm32f10x_gpio.c ****   if (BitVal != Bit_RESET)
 691              		.loc 1 400 3 view .LVU196
 692              		.loc 1 400 6 is_stmt 0 view .LVU197
 693 0000 0AB1     		cbz	r2, .L50
 401:./Drivers/src/stm32f10x_gpio.c ****   {
ARM GAS  /tmp/ccQprh9o.s 			page 21


 402:./Drivers/src/stm32f10x_gpio.c ****     GPIOx->BSRR = GPIO_Pin;
 694              		.loc 1 402 5 is_stmt 1 view .LVU198
 695              		.loc 1 402 17 is_stmt 0 view .LVU199
 696 0002 0161     		str	r1, [r0, #16]
 697 0004 7047     		bx	lr
 698              	.L50:
 403:./Drivers/src/stm32f10x_gpio.c ****   }
 404:./Drivers/src/stm32f10x_gpio.c ****   else
 405:./Drivers/src/stm32f10x_gpio.c ****   {
 406:./Drivers/src/stm32f10x_gpio.c ****     GPIOx->BRR = GPIO_Pin;
 699              		.loc 1 406 5 is_stmt 1 view .LVU200
 700              		.loc 1 406 16 is_stmt 0 view .LVU201
 701 0006 4161     		str	r1, [r0, #20]
 407:./Drivers/src/stm32f10x_gpio.c ****   }
 408:./Drivers/src/stm32f10x_gpio.c **** }
 702              		.loc 1 408 1 view .LVU202
 703 0008 7047     		bx	lr
 704              		.cfi_endproc
 705              	.LFE39:
 707              		.section	.text.GPIO_Write,"ax",%progbits
 708              		.align	1
 709              		.global	GPIO_Write
 710              		.syntax unified
 711              		.thumb
 712              		.thumb_func
 714              	GPIO_Write:
 715              	.LVL82:
 716              	.LFB40:
 409:./Drivers/src/stm32f10x_gpio.c **** 
 410:./Drivers/src/stm32f10x_gpio.c **** /**
 411:./Drivers/src/stm32f10x_gpio.c ****   * @brief  Writes data to the specified GPIO data port.
 412:./Drivers/src/stm32f10x_gpio.c ****   * @param  GPIOx: where x can be (A..G) to select the GPIO peripheral.
 413:./Drivers/src/stm32f10x_gpio.c ****   * @param  PortVal: specifies the value to be written to the port output data register.
 414:./Drivers/src/stm32f10x_gpio.c ****   * @retval None
 415:./Drivers/src/stm32f10x_gpio.c ****   */
 416:./Drivers/src/stm32f10x_gpio.c **** void GPIO_Write(GPIO_TypeDef* GPIOx, uint16_t PortVal)
 417:./Drivers/src/stm32f10x_gpio.c **** {
 717              		.loc 1 417 1 is_stmt 1 view -0
 718              		.cfi_startproc
 719              		@ args = 0, pretend = 0, frame = 0
 720              		@ frame_needed = 0, uses_anonymous_args = 0
 721              		@ link register save eliminated.
 418:./Drivers/src/stm32f10x_gpio.c ****   /* Check the parameters */
 419:./Drivers/src/stm32f10x_gpio.c ****   assert_param(IS_GPIO_ALL_PERIPH(GPIOx));
 722              		.loc 1 419 3 view .LVU204
 420:./Drivers/src/stm32f10x_gpio.c ****   
 421:./Drivers/src/stm32f10x_gpio.c ****   GPIOx->ODR = PortVal;
 723              		.loc 1 421 3 view .LVU205
 724              		.loc 1 421 14 is_stmt 0 view .LVU206
 725 0000 C160     		str	r1, [r0, #12]
 422:./Drivers/src/stm32f10x_gpio.c **** }
 726              		.loc 1 422 1 view .LVU207
 727 0002 7047     		bx	lr
 728              		.cfi_endproc
 729              	.LFE40:
 731              		.section	.text.GPIO_PinLockConfig,"ax",%progbits
 732              		.align	1
ARM GAS  /tmp/ccQprh9o.s 			page 22


 733              		.global	GPIO_PinLockConfig
 734              		.syntax unified
 735              		.thumb
 736              		.thumb_func
 738              	GPIO_PinLockConfig:
 739              	.LVL83:
 740              	.LFB41:
 423:./Drivers/src/stm32f10x_gpio.c **** 
 424:./Drivers/src/stm32f10x_gpio.c **** /**
 425:./Drivers/src/stm32f10x_gpio.c ****   * @brief  Locks GPIO Pins configuration registers.
 426:./Drivers/src/stm32f10x_gpio.c ****   * @param  GPIOx: where x can be (A..G) to select the GPIO peripheral.
 427:./Drivers/src/stm32f10x_gpio.c ****   * @param  GPIO_Pin: specifies the port bit to be written.
 428:./Drivers/src/stm32f10x_gpio.c ****   *   This parameter can be any combination of GPIO_Pin_x where x can be (0..15).
 429:./Drivers/src/stm32f10x_gpio.c ****   * @retval None
 430:./Drivers/src/stm32f10x_gpio.c ****   */
 431:./Drivers/src/stm32f10x_gpio.c **** void GPIO_PinLockConfig(GPIO_TypeDef* GPIOx, uint16_t GPIO_Pin)
 432:./Drivers/src/stm32f10x_gpio.c **** {
 741              		.loc 1 432 1 is_stmt 1 view -0
 742              		.cfi_startproc
 743              		@ args = 0, pretend = 0, frame = 0
 744              		@ frame_needed = 0, uses_anonymous_args = 0
 745              		@ link register save eliminated.
 433:./Drivers/src/stm32f10x_gpio.c ****   uint32_t tmp = 0x00010000;
 746              		.loc 1 433 3 view .LVU209
 434:./Drivers/src/stm32f10x_gpio.c ****   
 435:./Drivers/src/stm32f10x_gpio.c ****   /* Check the parameters */
 436:./Drivers/src/stm32f10x_gpio.c ****   assert_param(IS_GPIO_ALL_PERIPH(GPIOx));
 747              		.loc 1 436 3 view .LVU210
 437:./Drivers/src/stm32f10x_gpio.c ****   assert_param(IS_GPIO_PIN(GPIO_Pin));
 748              		.loc 1 437 3 view .LVU211
 438:./Drivers/src/stm32f10x_gpio.c ****   
 439:./Drivers/src/stm32f10x_gpio.c ****   tmp |= GPIO_Pin;
 749              		.loc 1 439 3 view .LVU212
 750              		.loc 1 439 7 is_stmt 0 view .LVU213
 751 0000 41F48033 		orr	r3, r1, #65536
 752              	.LVL84:
 440:./Drivers/src/stm32f10x_gpio.c ****   /* Set LCKK bit */
 441:./Drivers/src/stm32f10x_gpio.c ****   GPIOx->LCKR = tmp;
 753              		.loc 1 441 3 is_stmt 1 view .LVU214
 754              		.loc 1 441 15 is_stmt 0 view .LVU215
 755 0004 8361     		str	r3, [r0, #24]
 442:./Drivers/src/stm32f10x_gpio.c ****   /* Reset LCKK bit */
 443:./Drivers/src/stm32f10x_gpio.c ****   GPIOx->LCKR =  GPIO_Pin;
 756              		.loc 1 443 3 is_stmt 1 view .LVU216
 757              		.loc 1 443 15 is_stmt 0 view .LVU217
 758 0006 8161     		str	r1, [r0, #24]
 444:./Drivers/src/stm32f10x_gpio.c ****   /* Set LCKK bit */
 445:./Drivers/src/stm32f10x_gpio.c ****   GPIOx->LCKR = tmp;
 759              		.loc 1 445 3 is_stmt 1 view .LVU218
 760              		.loc 1 445 15 is_stmt 0 view .LVU219
 761 0008 8361     		str	r3, [r0, #24]
 446:./Drivers/src/stm32f10x_gpio.c ****   /* Read LCKK bit*/
 447:./Drivers/src/stm32f10x_gpio.c ****   tmp = GPIOx->LCKR;
 762              		.loc 1 447 3 is_stmt 1 view .LVU220
 763              		.loc 1 447 7 is_stmt 0 view .LVU221
 764 000a 8369     		ldr	r3, [r0, #24]
 765              	.LVL85:
ARM GAS  /tmp/ccQprh9o.s 			page 23


 448:./Drivers/src/stm32f10x_gpio.c ****   /* Read LCKK bit*/
 449:./Drivers/src/stm32f10x_gpio.c ****   tmp = GPIOx->LCKR;
 766              		.loc 1 449 3 is_stmt 1 view .LVU222
 767              		.loc 1 449 7 is_stmt 0 view .LVU223
 768 000c 8369     		ldr	r3, [r0, #24]
 450:./Drivers/src/stm32f10x_gpio.c **** }
 769              		.loc 1 450 1 view .LVU224
 770 000e 7047     		bx	lr
 771              		.cfi_endproc
 772              	.LFE41:
 774              		.section	.text.GPIO_EventOutputConfig,"ax",%progbits
 775              		.align	1
 776              		.global	GPIO_EventOutputConfig
 777              		.syntax unified
 778              		.thumb
 779              		.thumb_func
 781              	GPIO_EventOutputConfig:
 782              	.LVL86:
 783              	.LFB42:
 451:./Drivers/src/stm32f10x_gpio.c **** 
 452:./Drivers/src/stm32f10x_gpio.c **** /**
 453:./Drivers/src/stm32f10x_gpio.c ****   * @brief  Selects the GPIO pin used as Event output.
 454:./Drivers/src/stm32f10x_gpio.c ****   * @param  GPIO_PortSource: selects the GPIO port to be used as source
 455:./Drivers/src/stm32f10x_gpio.c ****   *   for Event output.
 456:./Drivers/src/stm32f10x_gpio.c ****   *   This parameter can be GPIO_PortSourceGPIOx where x can be (A..E).
 457:./Drivers/src/stm32f10x_gpio.c ****   * @param  GPIO_PinSource: specifies the pin for the Event output.
 458:./Drivers/src/stm32f10x_gpio.c ****   *   This parameter can be GPIO_PinSourcex where x can be (0..15).
 459:./Drivers/src/stm32f10x_gpio.c ****   * @retval None
 460:./Drivers/src/stm32f10x_gpio.c ****   */
 461:./Drivers/src/stm32f10x_gpio.c **** void GPIO_EventOutputConfig(uint8_t GPIO_PortSource, uint8_t GPIO_PinSource)
 462:./Drivers/src/stm32f10x_gpio.c **** {
 784              		.loc 1 462 1 is_stmt 1 view -0
 785              		.cfi_startproc
 786              		@ args = 0, pretend = 0, frame = 0
 787              		@ frame_needed = 0, uses_anonymous_args = 0
 788              		@ link register save eliminated.
 463:./Drivers/src/stm32f10x_gpio.c ****   uint32_t tmpreg = 0x00;
 789              		.loc 1 463 3 view .LVU226
 464:./Drivers/src/stm32f10x_gpio.c ****   /* Check the parameters */
 465:./Drivers/src/stm32f10x_gpio.c ****   assert_param(IS_GPIO_EVENTOUT_PORT_SOURCE(GPIO_PortSource));
 790              		.loc 1 465 3 view .LVU227
 466:./Drivers/src/stm32f10x_gpio.c ****   assert_param(IS_GPIO_PIN_SOURCE(GPIO_PinSource));
 791              		.loc 1 466 3 view .LVU228
 467:./Drivers/src/stm32f10x_gpio.c ****     
 468:./Drivers/src/stm32f10x_gpio.c ****   tmpreg = AFIO->EVCR;
 792              		.loc 1 468 3 view .LVU229
 793              		.loc 1 468 10 is_stmt 0 view .LVU230
 794 0000 054A     		ldr	r2, .L55
 795 0002 1368     		ldr	r3, [r2]
 796              	.LVL87:
 469:./Drivers/src/stm32f10x_gpio.c ****   /* Clear the PORT[6:4] and PIN[3:0] bits */
 470:./Drivers/src/stm32f10x_gpio.c ****   tmpreg &= EVCR_PORTPINCONFIG_MASK;
 797              		.loc 1 470 3 is_stmt 1 view .LVU231
 798              		.loc 1 470 10 is_stmt 0 view .LVU232
 799 0004 23F07F03 		bic	r3, r3, #127
 800              	.LVL88:
 801              		.loc 1 470 10 view .LVU233
ARM GAS  /tmp/ccQprh9o.s 			page 24


 802 0008 1B04     		lsls	r3, r3, #16
 803 000a 1B0C     		lsrs	r3, r3, #16
 804              	.LVL89:
 471:./Drivers/src/stm32f10x_gpio.c ****   tmpreg |= (uint32_t)GPIO_PortSource << 0x04;
 805              		.loc 1 471 3 is_stmt 1 view .LVU234
 806              		.loc 1 471 10 is_stmt 0 view .LVU235
 807 000c 43EA0013 		orr	r3, r3, r0, lsl #4
 808              	.LVL90:
 472:./Drivers/src/stm32f10x_gpio.c ****   tmpreg |= GPIO_PinSource;
 809              		.loc 1 472 3 is_stmt 1 view .LVU236
 810              		.loc 1 472 10 is_stmt 0 view .LVU237
 811 0010 1943     		orrs	r1, r1, r3
 812              	.LVL91:
 473:./Drivers/src/stm32f10x_gpio.c ****   AFIO->EVCR = tmpreg;
 813              		.loc 1 473 3 is_stmt 1 view .LVU238
 814              		.loc 1 473 14 is_stmt 0 view .LVU239
 815 0012 1160     		str	r1, [r2]
 474:./Drivers/src/stm32f10x_gpio.c **** }
 816              		.loc 1 474 1 view .LVU240
 817 0014 7047     		bx	lr
 818              	.L56:
 819 0016 00BF     		.align	2
 820              	.L55:
 821 0018 00000140 		.word	1073807360
 822              		.cfi_endproc
 823              	.LFE42:
 825              		.section	.text.GPIO_EventOutputCmd,"ax",%progbits
 826              		.align	1
 827              		.global	GPIO_EventOutputCmd
 828              		.syntax unified
 829              		.thumb
 830              		.thumb_func
 832              	GPIO_EventOutputCmd:
 833              	.LVL92:
 834              	.LFB43:
 475:./Drivers/src/stm32f10x_gpio.c **** 
 476:./Drivers/src/stm32f10x_gpio.c **** /**
 477:./Drivers/src/stm32f10x_gpio.c ****   * @brief  Enables or disables the Event Output.
 478:./Drivers/src/stm32f10x_gpio.c ****   * @param  NewState: new state of the Event output.
 479:./Drivers/src/stm32f10x_gpio.c ****   *   This parameter can be: ENABLE or DISABLE.
 480:./Drivers/src/stm32f10x_gpio.c ****   * @retval None
 481:./Drivers/src/stm32f10x_gpio.c ****   */
 482:./Drivers/src/stm32f10x_gpio.c **** void GPIO_EventOutputCmd(FunctionalState NewState)
 483:./Drivers/src/stm32f10x_gpio.c **** {
 835              		.loc 1 483 1 is_stmt 1 view -0
 836              		.cfi_startproc
 837              		@ args = 0, pretend = 0, frame = 0
 838              		@ frame_needed = 0, uses_anonymous_args = 0
 839              		@ link register save eliminated.
 484:./Drivers/src/stm32f10x_gpio.c ****   /* Check the parameters */
 485:./Drivers/src/stm32f10x_gpio.c ****   assert_param(IS_FUNCTIONAL_STATE(NewState));
 840              		.loc 1 485 3 view .LVU242
 486:./Drivers/src/stm32f10x_gpio.c ****   
 487:./Drivers/src/stm32f10x_gpio.c ****   *(__IO uint32_t *) EVCR_EVOE_BB = (uint32_t)NewState;
 841              		.loc 1 487 3 view .LVU243
 842              		.loc 1 487 35 is_stmt 0 view .LVU244
 843 0000 014B     		ldr	r3, .L58
ARM GAS  /tmp/ccQprh9o.s 			page 25


 844 0002 D861     		str	r0, [r3, #28]
 488:./Drivers/src/stm32f10x_gpio.c **** }
 845              		.loc 1 488 1 view .LVU245
 846 0004 7047     		bx	lr
 847              	.L59:
 848 0006 00BF     		.align	2
 849              	.L58:
 850 0008 00002042 		.word	1109393408
 851              		.cfi_endproc
 852              	.LFE43:
 854              		.section	.text.GPIO_PinRemapConfig,"ax",%progbits
 855              		.align	1
 856              		.global	GPIO_PinRemapConfig
 857              		.syntax unified
 858              		.thumb
 859              		.thumb_func
 861              	GPIO_PinRemapConfig:
 862              	.LVL93:
 863              	.LFB44:
 489:./Drivers/src/stm32f10x_gpio.c **** 
 490:./Drivers/src/stm32f10x_gpio.c **** /**
 491:./Drivers/src/stm32f10x_gpio.c ****   * @brief  Changes the mapping of the specified pin.
 492:./Drivers/src/stm32f10x_gpio.c ****   * @param  GPIO_Remap: selects the pin to remap.
 493:./Drivers/src/stm32f10x_gpio.c ****   *   This parameter can be one of the following values:
 494:./Drivers/src/stm32f10x_gpio.c ****   *     @arg GPIO_Remap_SPI1             : SPI1 Alternate Function mapping
 495:./Drivers/src/stm32f10x_gpio.c ****   *     @arg GPIO_Remap_I2C1             : I2C1 Alternate Function mapping
 496:./Drivers/src/stm32f10x_gpio.c ****   *     @arg GPIO_Remap_USART1           : USART1 Alternate Function mapping
 497:./Drivers/src/stm32f10x_gpio.c ****   *     @arg GPIO_Remap_USART2           : USART2 Alternate Function mapping
 498:./Drivers/src/stm32f10x_gpio.c ****   *     @arg GPIO_PartialRemap_USART3    : USART3 Partial Alternate Function mapping
 499:./Drivers/src/stm32f10x_gpio.c ****   *     @arg GPIO_FullRemap_USART3       : USART3 Full Alternate Function mapping
 500:./Drivers/src/stm32f10x_gpio.c ****   *     @arg GPIO_PartialRemap_TIM1      : TIM1 Partial Alternate Function mapping
 501:./Drivers/src/stm32f10x_gpio.c ****   *     @arg GPIO_FullRemap_TIM1         : TIM1 Full Alternate Function mapping
 502:./Drivers/src/stm32f10x_gpio.c ****   *     @arg GPIO_PartialRemap1_TIM2     : TIM2 Partial1 Alternate Function mapping
 503:./Drivers/src/stm32f10x_gpio.c ****   *     @arg GPIO_PartialRemap2_TIM2     : TIM2 Partial2 Alternate Function mapping
 504:./Drivers/src/stm32f10x_gpio.c ****   *     @arg GPIO_FullRemap_TIM2         : TIM2 Full Alternate Function mapping
 505:./Drivers/src/stm32f10x_gpio.c ****   *     @arg GPIO_PartialRemap_TIM3      : TIM3 Partial Alternate Function mapping
 506:./Drivers/src/stm32f10x_gpio.c ****   *     @arg GPIO_FullRemap_TIM3         : TIM3 Full Alternate Function mapping
 507:./Drivers/src/stm32f10x_gpio.c ****   *     @arg GPIO_Remap_TIM4             : TIM4 Alternate Function mapping
 508:./Drivers/src/stm32f10x_gpio.c ****   *     @arg GPIO_Remap1_CAN1            : CAN1 Alternate Function mapping
 509:./Drivers/src/stm32f10x_gpio.c ****   *     @arg GPIO_Remap2_CAN1            : CAN1 Alternate Function mapping
 510:./Drivers/src/stm32f10x_gpio.c ****   *     @arg GPIO_Remap_PD01             : PD01 Alternate Function mapping
 511:./Drivers/src/stm32f10x_gpio.c ****   *     @arg GPIO_Remap_TIM5CH4_LSI      : LSI connected to TIM5 Channel4 input capture for calibra
 512:./Drivers/src/stm32f10x_gpio.c ****   *     @arg GPIO_Remap_ADC1_ETRGINJ     : ADC1 External Trigger Injected Conversion remapping
 513:./Drivers/src/stm32f10x_gpio.c ****   *     @arg GPIO_Remap_ADC1_ETRGREG     : ADC1 External Trigger Regular Conversion remapping
 514:./Drivers/src/stm32f10x_gpio.c ****   *     @arg GPIO_Remap_ADC2_ETRGINJ     : ADC2 External Trigger Injected Conversion remapping
 515:./Drivers/src/stm32f10x_gpio.c ****   *     @arg GPIO_Remap_ADC2_ETRGREG     : ADC2 External Trigger Regular Conversion remapping
 516:./Drivers/src/stm32f10x_gpio.c ****   *     @arg GPIO_Remap_ETH              : Ethernet remapping (only for Connectivity line devices)
 517:./Drivers/src/stm32f10x_gpio.c ****   *     @arg GPIO_Remap_CAN2             : CAN2 remapping (only for Connectivity line devices)
 518:./Drivers/src/stm32f10x_gpio.c ****   *     @arg GPIO_Remap_SWJ_NoJTRST      : Full SWJ Enabled (JTAG-DP + SW-DP) but without JTRST
 519:./Drivers/src/stm32f10x_gpio.c ****   *     @arg GPIO_Remap_SWJ_JTAGDisable  : JTAG-DP Disabled and SW-DP Enabled
 520:./Drivers/src/stm32f10x_gpio.c ****   *     @arg GPIO_Remap_SWJ_Disable      : Full SWJ Disabled (JTAG-DP + SW-DP)
 521:./Drivers/src/stm32f10x_gpio.c ****   *     @arg GPIO_Remap_SPI3             : SPI3/I2S3 Alternate Function mapping (only for Connectiv
 522:./Drivers/src/stm32f10x_gpio.c ****   *                                        When the SPI3/I2S3 is remapped using this function, the 
 523:./Drivers/src/stm32f10x_gpio.c ****   *                                        to Full SWJ Enabled (JTAG-DP + SW-DP) but without JTRST.
 524:./Drivers/src/stm32f10x_gpio.c ****   *     @arg GPIO_Remap_TIM2ITR1_PTP_SOF : Ethernet PTP output or USB OTG SOF (Start of Frame) conn
 525:./Drivers/src/stm32f10x_gpio.c ****   *                                        to TIM2 Internal Trigger 1 for calibration (only for Con
 526:./Drivers/src/stm32f10x_gpio.c ****   *                                        If the GPIO_Remap_TIM2ITR1_PTP_SOF is enabled the TIM2 I
ARM GAS  /tmp/ccQprh9o.s 			page 26


 527:./Drivers/src/stm32f10x_gpio.c ****   *                                        Ethernet PTP output. When Reset TIM2 ITR1 is connected t
 528:./Drivers/src/stm32f10x_gpio.c ****   *     @arg GPIO_Remap_PTP_PPS          : Ethernet MAC PPS_PTS output on PB05 (only for Connectivi
 529:./Drivers/src/stm32f10x_gpio.c ****   *     @arg GPIO_Remap_TIM15            : TIM15 Alternate Function mapping (only for Value line de
 530:./Drivers/src/stm32f10x_gpio.c ****   *     @arg GPIO_Remap_TIM16            : TIM16 Alternate Function mapping (only for Value line de
 531:./Drivers/src/stm32f10x_gpio.c ****   *     @arg GPIO_Remap_TIM17            : TIM17 Alternate Function mapping (only for Value line de
 532:./Drivers/src/stm32f10x_gpio.c ****   *     @arg GPIO_Remap_CEC              : CEC Alternate Function mapping (only for Value line devi
 533:./Drivers/src/stm32f10x_gpio.c ****   *     @arg GPIO_Remap_TIM1_DMA         : TIM1 DMA requests mapping (only for Value line devices)
 534:./Drivers/src/stm32f10x_gpio.c ****   *     @arg GPIO_Remap_TIM9             : TIM9 Alternate Function mapping (only for XL-density dev
 535:./Drivers/src/stm32f10x_gpio.c ****   *     @arg GPIO_Remap_TIM10            : TIM10 Alternate Function mapping (only for XL-density de
 536:./Drivers/src/stm32f10x_gpio.c ****   *     @arg GPIO_Remap_TIM11            : TIM11 Alternate Function mapping (only for XL-density de
 537:./Drivers/src/stm32f10x_gpio.c ****   *     @arg GPIO_Remap_TIM13            : TIM13 Alternate Function mapping (only for High density 
 538:./Drivers/src/stm32f10x_gpio.c ****   *     @arg GPIO_Remap_TIM14            : TIM14 Alternate Function mapping (only for High density 
 539:./Drivers/src/stm32f10x_gpio.c ****   *     @arg GPIO_Remap_FSMC_NADV        : FSMC_NADV Alternate Function mapping (only for High dens
 540:./Drivers/src/stm32f10x_gpio.c ****   *     @arg GPIO_Remap_TIM67_DAC_DMA    : TIM6/TIM7 and DAC DMA requests remapping (only for High 
 541:./Drivers/src/stm32f10x_gpio.c ****   *     @arg GPIO_Remap_TIM12            : TIM12 Alternate Function mapping (only for High density 
 542:./Drivers/src/stm32f10x_gpio.c ****   *     @arg GPIO_Remap_MISC             : Miscellaneous Remap (DMA2 Channel5 Position and DAC Trig
 543:./Drivers/src/stm32f10x_gpio.c ****   *                                        only for High density Value line devices)     
 544:./Drivers/src/stm32f10x_gpio.c ****   * @param  NewState: new state of the port pin remapping.
 545:./Drivers/src/stm32f10x_gpio.c ****   *   This parameter can be: ENABLE or DISABLE.
 546:./Drivers/src/stm32f10x_gpio.c ****   * @retval None
 547:./Drivers/src/stm32f10x_gpio.c ****   */
 548:./Drivers/src/stm32f10x_gpio.c **** void GPIO_PinRemapConfig(uint32_t GPIO_Remap, FunctionalState NewState)
 549:./Drivers/src/stm32f10x_gpio.c **** {
 864              		.loc 1 549 1 is_stmt 1 view -0
 865              		.cfi_startproc
 866              		@ args = 0, pretend = 0, frame = 0
 867              		@ frame_needed = 0, uses_anonymous_args = 0
 868              		@ link register save eliminated.
 869              		.loc 1 549 1 is_stmt 0 view .LVU247
 870 0000 30B4     		push	{r4, r5}
 871              	.LCFI3:
 872              		.cfi_def_cfa_offset 8
 873              		.cfi_offset 4, -8
 874              		.cfi_offset 5, -4
 550:./Drivers/src/stm32f10x_gpio.c ****   uint32_t tmp = 0x00, tmp1 = 0x00, tmpreg = 0x00, tmpmask = 0x00;
 875              		.loc 1 550 3 is_stmt 1 view .LVU248
 876              	.LVL94:
 551:./Drivers/src/stm32f10x_gpio.c **** 
 552:./Drivers/src/stm32f10x_gpio.c ****   /* Check the parameters */
 553:./Drivers/src/stm32f10x_gpio.c ****   assert_param(IS_GPIO_REMAP(GPIO_Remap));
 877              		.loc 1 553 3 view .LVU249
 554:./Drivers/src/stm32f10x_gpio.c ****   assert_param(IS_FUNCTIONAL_STATE(NewState));  
 878              		.loc 1 554 3 view .LVU250
 555:./Drivers/src/stm32f10x_gpio.c ****   
 556:./Drivers/src/stm32f10x_gpio.c ****   if((GPIO_Remap & 0x80000000) == 0x80000000)
 879              		.loc 1 556 3 view .LVU251
 880              		.loc 1 556 5 is_stmt 0 view .LVU252
 881 0002 0028     		cmp	r0, #0
 882              		.loc 1 556 5 view .LVU253
 883 0004 15DB     		blt	.L70
 557:./Drivers/src/stm32f10x_gpio.c ****   {
 558:./Drivers/src/stm32f10x_gpio.c ****     tmpreg = AFIO->MAPR2;
 559:./Drivers/src/stm32f10x_gpio.c ****   }
 560:./Drivers/src/stm32f10x_gpio.c ****   else
 561:./Drivers/src/stm32f10x_gpio.c ****   {
 562:./Drivers/src/stm32f10x_gpio.c ****     tmpreg = AFIO->MAPR;
 884              		.loc 1 562 5 is_stmt 1 view .LVU254
ARM GAS  /tmp/ccQprh9o.s 			page 27


 885              		.loc 1 562 12 is_stmt 0 view .LVU255
 886 0006 1C4B     		ldr	r3, .L73
 887 0008 5B68     		ldr	r3, [r3, #4]
 888              	.LVL95:
 889              	.L62:
 563:./Drivers/src/stm32f10x_gpio.c ****   }
 564:./Drivers/src/stm32f10x_gpio.c **** 
 565:./Drivers/src/stm32f10x_gpio.c ****   tmpmask = (GPIO_Remap & DBGAFR_POSITION_MASK) >> 0x10;
 890              		.loc 1 565 3 is_stmt 1 view .LVU256
 891              		.loc 1 565 11 is_stmt 0 view .LVU257
 892 000a C0F30344 		ubfx	r4, r0, #16, #4
 893              	.LVL96:
 566:./Drivers/src/stm32f10x_gpio.c ****   tmp = GPIO_Remap & LSB_MASK;
 894              		.loc 1 566 3 is_stmt 1 view .LVU258
 895              		.loc 1 566 7 is_stmt 0 view .LVU259
 896 000e 82B2     		uxth	r2, r0
 897              	.LVL97:
 567:./Drivers/src/stm32f10x_gpio.c **** 
 568:./Drivers/src/stm32f10x_gpio.c ****   if ((GPIO_Remap & (DBGAFR_LOCATION_MASK | DBGAFR_NUMBITS_MASK)) == (DBGAFR_LOCATION_MASK | DBGAFR
 898              		.loc 1 568 3 is_stmt 1 view .LVU260
 899              		.loc 1 568 19 is_stmt 0 view .LVU261
 900 0010 00F4401C 		and	ip, r0, #3145728
 901              		.loc 1 568 6 view .LVU262
 902 0014 BCF5401F 		cmp	ip, #3145728
 903 0018 0ED0     		beq	.L71
 569:./Drivers/src/stm32f10x_gpio.c ****   {
 570:./Drivers/src/stm32f10x_gpio.c ****     tmpreg &= DBGAFR_SWJCFG_MASK;
 571:./Drivers/src/stm32f10x_gpio.c ****     AFIO->MAPR &= DBGAFR_SWJCFG_MASK;
 572:./Drivers/src/stm32f10x_gpio.c ****   }
 573:./Drivers/src/stm32f10x_gpio.c ****   else if ((GPIO_Remap & DBGAFR_NUMBITS_MASK) == DBGAFR_NUMBITS_MASK)
 904              		.loc 1 573 8 is_stmt 1 view .LVU263
 905              		.loc 1 573 11 is_stmt 0 view .LVU264
 906 001a 10F4801F 		tst	r0, #1048576
 907 001e 1DD0     		beq	.L65
 574:./Drivers/src/stm32f10x_gpio.c ****   {
 575:./Drivers/src/stm32f10x_gpio.c ****     tmp1 = ((uint32_t)0x03) << tmpmask;
 908              		.loc 1 575 5 is_stmt 1 view .LVU265
 909              		.loc 1 575 10 is_stmt 0 view .LVU266
 910 0020 4FF0030C 		mov	ip, #3
 911 0024 0CFA04F4 		lsl	r4, ip, r4
 912              	.LVL98:
 576:./Drivers/src/stm32f10x_gpio.c ****     tmpreg &= ~tmp1;
 913              		.loc 1 576 5 is_stmt 1 view .LVU267
 914              		.loc 1 576 12 is_stmt 0 view .LVU268
 915 0028 23EA0403 		bic	r3, r3, r4
 916              	.LVL99:
 577:./Drivers/src/stm32f10x_gpio.c ****     tmpreg |= ~DBGAFR_SWJCFG_MASK;
 917              		.loc 1 577 5 is_stmt 1 view .LVU269
 918              		.loc 1 577 12 is_stmt 0 view .LVU270
 919 002c 43F07063 		orr	r3, r3, #251658240
 920              	.LVL100:
 921              		.loc 1 577 12 view .LVU271
 922 0030 09E0     		b	.L64
 923              	.LVL101:
 924              	.L70:
 558:./Drivers/src/stm32f10x_gpio.c ****   }
 925              		.loc 1 558 5 is_stmt 1 view .LVU272
ARM GAS  /tmp/ccQprh9o.s 			page 28


 558:./Drivers/src/stm32f10x_gpio.c ****   }
 926              		.loc 1 558 12 is_stmt 0 view .LVU273
 927 0032 114B     		ldr	r3, .L73
 928 0034 DB69     		ldr	r3, [r3, #28]
 929              	.LVL102:
 558:./Drivers/src/stm32f10x_gpio.c ****   }
 930              		.loc 1 558 12 view .LVU274
 931 0036 E8E7     		b	.L62
 932              	.LVL103:
 933              	.L71:
 570:./Drivers/src/stm32f10x_gpio.c ****     AFIO->MAPR &= DBGAFR_SWJCFG_MASK;
 934              		.loc 1 570 5 is_stmt 1 view .LVU275
 570:./Drivers/src/stm32f10x_gpio.c ****     AFIO->MAPR &= DBGAFR_SWJCFG_MASK;
 935              		.loc 1 570 12 is_stmt 0 view .LVU276
 936 0038 23F07063 		bic	r3, r3, #251658240
 937              	.LVL104:
 571:./Drivers/src/stm32f10x_gpio.c ****   }
 938              		.loc 1 571 5 is_stmt 1 view .LVU277
 571:./Drivers/src/stm32f10x_gpio.c ****   }
 939              		.loc 1 571 9 is_stmt 0 view .LVU278
 940 003c 0E4D     		ldr	r5, .L73
 941 003e 6C68     		ldr	r4, [r5, #4]
 942              	.LVL105:
 571:./Drivers/src/stm32f10x_gpio.c ****   }
 943              		.loc 1 571 16 view .LVU279
 944 0040 24F07064 		bic	r4, r4, #251658240
 945 0044 6C60     		str	r4, [r5, #4]
 946              	.LVL106:
 947              	.L64:
 578:./Drivers/src/stm32f10x_gpio.c ****   }
 579:./Drivers/src/stm32f10x_gpio.c ****   else
 580:./Drivers/src/stm32f10x_gpio.c ****   {
 581:./Drivers/src/stm32f10x_gpio.c ****     tmpreg &= ~(tmp << ((GPIO_Remap >> 0x15)*0x10));
 582:./Drivers/src/stm32f10x_gpio.c ****     tmpreg |= ~DBGAFR_SWJCFG_MASK;
 583:./Drivers/src/stm32f10x_gpio.c ****   }
 584:./Drivers/src/stm32f10x_gpio.c **** 
 585:./Drivers/src/stm32f10x_gpio.c ****   if (NewState != DISABLE)
 948              		.loc 1 585 3 is_stmt 1 view .LVU280
 949              		.loc 1 585 6 is_stmt 0 view .LVU281
 950 0046 19B1     		cbz	r1, .L66
 586:./Drivers/src/stm32f10x_gpio.c ****   {
 587:./Drivers/src/stm32f10x_gpio.c ****     tmpreg |= (tmp << ((GPIO_Remap >> 0x15)*0x10));
 951              		.loc 1 587 5 is_stmt 1 view .LVU282
 952              		.loc 1 587 36 is_stmt 0 view .LVU283
 953 0048 410D     		lsrs	r1, r0, #21
 954              	.LVL107:
 955              		.loc 1 587 44 view .LVU284
 956 004a 0901     		lsls	r1, r1, #4
 957              		.loc 1 587 20 view .LVU285
 958 004c 8A40     		lsls	r2, r2, r1
 959              	.LVL108:
 960              		.loc 1 587 12 view .LVU286
 961 004e 1343     		orrs	r3, r3, r2
 962              	.LVL109:
 963              	.L66:
 588:./Drivers/src/stm32f10x_gpio.c ****   }
 589:./Drivers/src/stm32f10x_gpio.c **** 
ARM GAS  /tmp/ccQprh9o.s 			page 29


 590:./Drivers/src/stm32f10x_gpio.c ****   if((GPIO_Remap & 0x80000000) == 0x80000000)
 964              		.loc 1 590 3 is_stmt 1 view .LVU287
 965              		.loc 1 590 5 is_stmt 0 view .LVU288
 966 0050 0028     		cmp	r0, #0
 967 0052 0EDB     		blt	.L72
 591:./Drivers/src/stm32f10x_gpio.c ****   {
 592:./Drivers/src/stm32f10x_gpio.c ****     AFIO->MAPR2 = tmpreg;
 593:./Drivers/src/stm32f10x_gpio.c ****   }
 594:./Drivers/src/stm32f10x_gpio.c ****   else
 595:./Drivers/src/stm32f10x_gpio.c ****   {
 596:./Drivers/src/stm32f10x_gpio.c ****     AFIO->MAPR = tmpreg;
 968              		.loc 1 596 5 is_stmt 1 view .LVU289
 969              		.loc 1 596 16 is_stmt 0 view .LVU290
 970 0054 084A     		ldr	r2, .L73
 971 0056 5360     		str	r3, [r2, #4]
 972              	.L60:
 597:./Drivers/src/stm32f10x_gpio.c ****   }  
 598:./Drivers/src/stm32f10x_gpio.c **** }
 973              		.loc 1 598 1 view .LVU291
 974 0058 30BC     		pop	{r4, r5}
 975              	.LCFI4:
 976              		.cfi_remember_state
 977              		.cfi_restore 5
 978              		.cfi_restore 4
 979              		.cfi_def_cfa_offset 0
 980 005a 7047     		bx	lr
 981              	.LVL110:
 982              	.L65:
 983              	.LCFI5:
 984              		.cfi_restore_state
 581:./Drivers/src/stm32f10x_gpio.c ****     tmpreg |= ~DBGAFR_SWJCFG_MASK;
 985              		.loc 1 581 5 is_stmt 1 view .LVU292
 581:./Drivers/src/stm32f10x_gpio.c ****     tmpreg |= ~DBGAFR_SWJCFG_MASK;
 986              		.loc 1 581 37 is_stmt 0 view .LVU293
 987 005c 4FEA505C 		lsr	ip, r0, #21
 581:./Drivers/src/stm32f10x_gpio.c ****     tmpreg |= ~DBGAFR_SWJCFG_MASK;
 988              		.loc 1 581 45 view .LVU294
 989 0060 4FEA0C1C 		lsl	ip, ip, #4
 581:./Drivers/src/stm32f10x_gpio.c ****     tmpreg |= ~DBGAFR_SWJCFG_MASK;
 990              		.loc 1 581 21 view .LVU295
 991 0064 02FA0CFC 		lsl	ip, r2, ip
 581:./Drivers/src/stm32f10x_gpio.c ****     tmpreg |= ~DBGAFR_SWJCFG_MASK;
 992              		.loc 1 581 12 view .LVU296
 993 0068 23EA0C03 		bic	r3, r3, ip
 994              	.LVL111:
 582:./Drivers/src/stm32f10x_gpio.c ****   }
 995              		.loc 1 582 5 is_stmt 1 view .LVU297
 582:./Drivers/src/stm32f10x_gpio.c ****   }
 996              		.loc 1 582 12 is_stmt 0 view .LVU298
 997 006c 43F07063 		orr	r3, r3, #251658240
 998              	.LVL112:
 582:./Drivers/src/stm32f10x_gpio.c ****   }
 999              		.loc 1 582 12 view .LVU299
 1000 0070 E9E7     		b	.L64
 1001              	.LVL113:
 1002              	.L72:
 592:./Drivers/src/stm32f10x_gpio.c ****   }
ARM GAS  /tmp/ccQprh9o.s 			page 30


 1003              		.loc 1 592 5 is_stmt 1 view .LVU300
 592:./Drivers/src/stm32f10x_gpio.c ****   }
 1004              		.loc 1 592 17 is_stmt 0 view .LVU301
 1005 0072 014A     		ldr	r2, .L73
 1006 0074 D361     		str	r3, [r2, #28]
 1007 0076 EFE7     		b	.L60
 1008              	.L74:
 1009              		.align	2
 1010              	.L73:
 1011 0078 00000140 		.word	1073807360
 1012              		.cfi_endproc
 1013              	.LFE44:
 1015              		.section	.text.GPIO_EXTILineConfig,"ax",%progbits
 1016              		.align	1
 1017              		.global	GPIO_EXTILineConfig
 1018              		.syntax unified
 1019              		.thumb
 1020              		.thumb_func
 1022              	GPIO_EXTILineConfig:
 1023              	.LVL114:
 1024              	.LFB45:
 599:./Drivers/src/stm32f10x_gpio.c **** 
 600:./Drivers/src/stm32f10x_gpio.c **** /**
 601:./Drivers/src/stm32f10x_gpio.c ****   * @brief  Selects the GPIO pin used as EXTI Line.
 602:./Drivers/src/stm32f10x_gpio.c ****   * @param  GPIO_PortSource: selects the GPIO port to be used as source for EXTI lines.
 603:./Drivers/src/stm32f10x_gpio.c ****   *   This parameter can be GPIO_PortSourceGPIOx where x can be (A..G).
 604:./Drivers/src/stm32f10x_gpio.c ****   * @param  GPIO_PinSource: specifies the EXTI line to be configured.
 605:./Drivers/src/stm32f10x_gpio.c ****   *   This parameter can be GPIO_PinSourcex where x can be (0..15).
 606:./Drivers/src/stm32f10x_gpio.c ****   * @retval None
 607:./Drivers/src/stm32f10x_gpio.c ****   */
 608:./Drivers/src/stm32f10x_gpio.c **** void GPIO_EXTILineConfig(uint8_t GPIO_PortSource, uint8_t GPIO_PinSource)
 609:./Drivers/src/stm32f10x_gpio.c **** {
 1025              		.loc 1 609 1 is_stmt 1 view -0
 1026              		.cfi_startproc
 1027              		@ args = 0, pretend = 0, frame = 0
 1028              		@ frame_needed = 0, uses_anonymous_args = 0
 1029              		@ link register save eliminated.
 1030              		.loc 1 609 1 is_stmt 0 view .LVU303
 1031 0000 10B4     		push	{r4}
 1032              	.LCFI6:
 1033              		.cfi_def_cfa_offset 4
 1034              		.cfi_offset 4, -4
 610:./Drivers/src/stm32f10x_gpio.c ****   uint32_t tmp = 0x00;
 1035              		.loc 1 610 3 is_stmt 1 view .LVU304
 1036              	.LVL115:
 611:./Drivers/src/stm32f10x_gpio.c ****   /* Check the parameters */
 612:./Drivers/src/stm32f10x_gpio.c ****   assert_param(IS_GPIO_EXTI_PORT_SOURCE(GPIO_PortSource));
 1037              		.loc 1 612 3 view .LVU305
 613:./Drivers/src/stm32f10x_gpio.c ****   assert_param(IS_GPIO_PIN_SOURCE(GPIO_PinSource));
 1038              		.loc 1 613 3 view .LVU306
 614:./Drivers/src/stm32f10x_gpio.c ****   
 615:./Drivers/src/stm32f10x_gpio.c ****   tmp = ((uint32_t)0x0F) << (0x04 * (GPIO_PinSource & (uint8_t)0x03));
 1039              		.loc 1 615 3 view .LVU307
 1040              		.loc 1 615 53 is_stmt 0 view .LVU308
 1041 0002 01F00302 		and	r2, r1, #3
 1042              		.loc 1 615 35 view .LVU309
 1043 0006 9200     		lsls	r2, r2, #2
ARM GAS  /tmp/ccQprh9o.s 			page 31


 1044              		.loc 1 615 7 view .LVU310
 1045 0008 4FF00F0C 		mov	ip, #15
 1046 000c 0CFA02FC 		lsl	ip, ip, r2
 1047              	.LVL116:
 616:./Drivers/src/stm32f10x_gpio.c ****   AFIO->EXTICR[GPIO_PinSource >> 0x02] &= ~tmp;
 1048              		.loc 1 616 3 is_stmt 1 view .LVU311
 1049              		.loc 1 616 15 is_stmt 0 view .LVU312
 1050 0010 8908     		lsrs	r1, r1, #2
 1051              	.LVL117:
 1052              		.loc 1 616 15 view .LVU313
 1053 0012 084B     		ldr	r3, .L77
 1054 0014 0231     		adds	r1, r1, #2
 1055 0016 53F82140 		ldr	r4, [r3, r1, lsl #2]
 1056              		.loc 1 616 40 view .LVU314
 1057 001a 24EA0C04 		bic	r4, r4, ip
 1058 001e 43F82140 		str	r4, [r3, r1, lsl #2]
 617:./Drivers/src/stm32f10x_gpio.c ****   AFIO->EXTICR[GPIO_PinSource >> 0x02] |= (((uint32_t)GPIO_PortSource) << (0x04 * (GPIO_PinSource &
 1059              		.loc 1 617 3 is_stmt 1 view .LVU315
 1060              		.loc 1 617 15 is_stmt 0 view .LVU316
 1061 0022 53F82140 		ldr	r4, [r3, r1, lsl #2]
 1062              		.loc 1 617 72 view .LVU317
 1063 0026 9040     		lsls	r0, r0, r2
 1064              	.LVL118:
 1065              		.loc 1 617 40 view .LVU318
 1066 0028 0443     		orrs	r4, r4, r0
 1067 002a 43F82140 		str	r4, [r3, r1, lsl #2]
 618:./Drivers/src/stm32f10x_gpio.c **** }
 1068              		.loc 1 618 1 view .LVU319
 1069 002e 10BC     		pop	{r4}
 1070              	.LCFI7:
 1071              		.cfi_restore 4
 1072              		.cfi_def_cfa_offset 0
 1073 0030 7047     		bx	lr
 1074              	.L78:
 1075 0032 00BF     		.align	2
 1076              	.L77:
 1077 0034 00000140 		.word	1073807360
 1078              		.cfi_endproc
 1079              	.LFE45:
 1081              		.section	.text.GPIO_ETH_MediaInterfaceConfig,"ax",%progbits
 1082              		.align	1
 1083              		.global	GPIO_ETH_MediaInterfaceConfig
 1084              		.syntax unified
 1085              		.thumb
 1086              		.thumb_func
 1088              	GPIO_ETH_MediaInterfaceConfig:
 1089              	.LVL119:
 1090              	.LFB46:
 619:./Drivers/src/stm32f10x_gpio.c **** 
 620:./Drivers/src/stm32f10x_gpio.c **** /**
 621:./Drivers/src/stm32f10x_gpio.c ****   * @brief  Selects the Ethernet media interface.
 622:./Drivers/src/stm32f10x_gpio.c ****   * @note   This function applies only to STM32 Connectivity line devices.  
 623:./Drivers/src/stm32f10x_gpio.c ****   * @param  GPIO_ETH_MediaInterface: specifies the Media Interface mode.
 624:./Drivers/src/stm32f10x_gpio.c ****   *   This parameter can be one of the following values:
 625:./Drivers/src/stm32f10x_gpio.c ****   *     @arg GPIO_ETH_MediaInterface_MII: MII mode
 626:./Drivers/src/stm32f10x_gpio.c ****   *     @arg GPIO_ETH_MediaInterface_RMII: RMII mode    
 627:./Drivers/src/stm32f10x_gpio.c ****   * @retval None
ARM GAS  /tmp/ccQprh9o.s 			page 32


 628:./Drivers/src/stm32f10x_gpio.c ****   */
 629:./Drivers/src/stm32f10x_gpio.c **** void GPIO_ETH_MediaInterfaceConfig(uint32_t GPIO_ETH_MediaInterface) 
 630:./Drivers/src/stm32f10x_gpio.c **** { 
 1091              		.loc 1 630 1 is_stmt 1 view -0
 1092              		.cfi_startproc
 1093              		@ args = 0, pretend = 0, frame = 0
 1094              		@ frame_needed = 0, uses_anonymous_args = 0
 1095              		@ link register save eliminated.
 631:./Drivers/src/stm32f10x_gpio.c ****   assert_param(IS_GPIO_ETH_MEDIA_INTERFACE(GPIO_ETH_MediaInterface)); 
 1096              		.loc 1 631 3 view .LVU321
 632:./Drivers/src/stm32f10x_gpio.c **** 
 633:./Drivers/src/stm32f10x_gpio.c ****   /* Configure MII_RMII selection bit */ 
 634:./Drivers/src/stm32f10x_gpio.c ****   *(__IO uint32_t *) MAPR_MII_RMII_SEL_BB = GPIO_ETH_MediaInterface; 
 1097              		.loc 1 634 3 view .LVU322
 1098              		.loc 1 634 43 is_stmt 0 view .LVU323
 1099 0000 014B     		ldr	r3, .L80
 1100 0002 C3F8DC00 		str	r0, [r3, #220]
 635:./Drivers/src/stm32f10x_gpio.c **** }
 1101              		.loc 1 635 1 view .LVU324
 1102 0006 7047     		bx	lr
 1103              	.L81:
 1104              		.align	2
 1105              	.L80:
 1106 0008 00002042 		.word	1109393408
 1107              		.cfi_endproc
 1108              	.LFE46:
 1110              		.text
 1111              	.Letext0:
 1112              		.file 2 "/usr/arm-none-eabi/include/machine/_default_types.h"
 1113              		.file 3 "/usr/arm-none-eabi/include/sys/_stdint.h"
 1114              		.file 4 "cmsis/stm32f10x.h"
 1115              		.file 5 "Drivers/inc/stm32f10x_gpio.h"
 1116              		.file 6 "Drivers/inc/stm32f10x_rcc.h"
ARM GAS  /tmp/ccQprh9o.s 			page 33

