ARM GAS  /tmp/cc9TAPLA.s 			page 1


   1              		.cpu cortex-m3
   2              		.arch armv7-m
   3              		.fpu softvfp
   4              		.eabi_attribute 20, 1
   5              		.eabi_attribute 21, 1
   6              		.eabi_attribute 23, 3
   7              		.eabi_attribute 24, 1
   8              		.eabi_attribute 25, 1
   9              		.eabi_attribute 26, 1
  10              		.eabi_attribute 30, 1
  11              		.eabi_attribute 34, 1
  12              		.eabi_attribute 18, 4
  13              		.file	"stm32f10x_exti.c"
  14              		.text
  15              	.Ltext0:
  16              		.cfi_sections	.debug_frame
  17              		.file 1 "./Drivers/src/stm32f10x_exti.c"
  18              		.section	.text.EXTI_DeInit,"ax",%progbits
  19              		.align	1
  20              		.global	EXTI_DeInit
  21              		.syntax unified
  22              		.thumb
  23              		.thumb_func
  25              	EXTI_DeInit:
  26              	.LFB29:
   1:./Drivers/src/stm32f10x_exti.c **** /**
   2:./Drivers/src/stm32f10x_exti.c ****   ******************************************************************************
   3:./Drivers/src/stm32f10x_exti.c ****   * @file    stm32f10x_exti.c
   4:./Drivers/src/stm32f10x_exti.c ****   * @author  MCD Application Team
   5:./Drivers/src/stm32f10x_exti.c ****   * @version V3.6.2
   6:./Drivers/src/stm32f10x_exti.c ****   * @date    17-September-2021
   7:./Drivers/src/stm32f10x_exti.c ****   * @brief   This file provides all the EXTI firmware functions.
   8:./Drivers/src/stm32f10x_exti.c ****   ******************************************************************************
   9:./Drivers/src/stm32f10x_exti.c ****   * @attention
  10:./Drivers/src/stm32f10x_exti.c ****   *
  11:./Drivers/src/stm32f10x_exti.c ****   * Copyright (c) 2012 STMicroelectronics.
  12:./Drivers/src/stm32f10x_exti.c ****   * All rights reserved.
  13:./Drivers/src/stm32f10x_exti.c ****   *
  14:./Drivers/src/stm32f10x_exti.c ****   * This software is licensed under terms that can be found in the LICENSE file
  15:./Drivers/src/stm32f10x_exti.c ****   * in the root directory of this software component.
  16:./Drivers/src/stm32f10x_exti.c ****   * If no LICENSE file comes with this software, it is provided AS-IS.
  17:./Drivers/src/stm32f10x_exti.c ****   *
  18:./Drivers/src/stm32f10x_exti.c ****   ******************************************************************************
  19:./Drivers/src/stm32f10x_exti.c ****   */
  20:./Drivers/src/stm32f10x_exti.c **** 
  21:./Drivers/src/stm32f10x_exti.c **** /* Includes ------------------------------------------------------------------*/
  22:./Drivers/src/stm32f10x_exti.c **** #include "stm32f10x_exti.h"
  23:./Drivers/src/stm32f10x_exti.c **** 
  24:./Drivers/src/stm32f10x_exti.c **** /** @addtogroup STM32F10x_StdPeriph_Driver
  25:./Drivers/src/stm32f10x_exti.c ****   * @{
  26:./Drivers/src/stm32f10x_exti.c ****   */
  27:./Drivers/src/stm32f10x_exti.c **** 
  28:./Drivers/src/stm32f10x_exti.c **** /** @defgroup EXTI 
  29:./Drivers/src/stm32f10x_exti.c ****   * @brief EXTI driver modules
  30:./Drivers/src/stm32f10x_exti.c ****   * @{
  31:./Drivers/src/stm32f10x_exti.c ****   */
  32:./Drivers/src/stm32f10x_exti.c **** 
ARM GAS  /tmp/cc9TAPLA.s 			page 2


  33:./Drivers/src/stm32f10x_exti.c **** /** @defgroup EXTI_Private_TypesDefinitions
  34:./Drivers/src/stm32f10x_exti.c ****   * @{
  35:./Drivers/src/stm32f10x_exti.c ****   */
  36:./Drivers/src/stm32f10x_exti.c **** 
  37:./Drivers/src/stm32f10x_exti.c **** /**
  38:./Drivers/src/stm32f10x_exti.c ****   * @}
  39:./Drivers/src/stm32f10x_exti.c ****   */
  40:./Drivers/src/stm32f10x_exti.c **** 
  41:./Drivers/src/stm32f10x_exti.c **** /** @defgroup EXTI_Private_Defines
  42:./Drivers/src/stm32f10x_exti.c ****   * @{
  43:./Drivers/src/stm32f10x_exti.c ****   */
  44:./Drivers/src/stm32f10x_exti.c **** 
  45:./Drivers/src/stm32f10x_exti.c **** #define EXTI_LINENONE    ((uint32_t)0x00000)  /* No interrupt selected */
  46:./Drivers/src/stm32f10x_exti.c **** 
  47:./Drivers/src/stm32f10x_exti.c **** /**
  48:./Drivers/src/stm32f10x_exti.c ****   * @}
  49:./Drivers/src/stm32f10x_exti.c ****   */
  50:./Drivers/src/stm32f10x_exti.c **** 
  51:./Drivers/src/stm32f10x_exti.c **** /** @defgroup EXTI_Private_Macros
  52:./Drivers/src/stm32f10x_exti.c ****   * @{
  53:./Drivers/src/stm32f10x_exti.c ****   */
  54:./Drivers/src/stm32f10x_exti.c **** 
  55:./Drivers/src/stm32f10x_exti.c **** /**
  56:./Drivers/src/stm32f10x_exti.c ****   * @}
  57:./Drivers/src/stm32f10x_exti.c ****   */
  58:./Drivers/src/stm32f10x_exti.c **** 
  59:./Drivers/src/stm32f10x_exti.c **** /** @defgroup EXTI_Private_Variables
  60:./Drivers/src/stm32f10x_exti.c ****   * @{
  61:./Drivers/src/stm32f10x_exti.c ****   */
  62:./Drivers/src/stm32f10x_exti.c **** 
  63:./Drivers/src/stm32f10x_exti.c **** /**
  64:./Drivers/src/stm32f10x_exti.c ****   * @}
  65:./Drivers/src/stm32f10x_exti.c ****   */
  66:./Drivers/src/stm32f10x_exti.c **** 
  67:./Drivers/src/stm32f10x_exti.c **** /** @defgroup EXTI_Private_FunctionPrototypes
  68:./Drivers/src/stm32f10x_exti.c ****   * @{
  69:./Drivers/src/stm32f10x_exti.c ****   */
  70:./Drivers/src/stm32f10x_exti.c **** 
  71:./Drivers/src/stm32f10x_exti.c **** /**
  72:./Drivers/src/stm32f10x_exti.c ****   * @}
  73:./Drivers/src/stm32f10x_exti.c ****   */
  74:./Drivers/src/stm32f10x_exti.c **** 
  75:./Drivers/src/stm32f10x_exti.c **** /** @defgroup EXTI_Private_Functions
  76:./Drivers/src/stm32f10x_exti.c ****   * @{
  77:./Drivers/src/stm32f10x_exti.c ****   */
  78:./Drivers/src/stm32f10x_exti.c **** 
  79:./Drivers/src/stm32f10x_exti.c **** /**
  80:./Drivers/src/stm32f10x_exti.c ****   * @brief  Deinitializes the EXTI peripheral registers to their default reset values.
  81:./Drivers/src/stm32f10x_exti.c ****   * @param  None
  82:./Drivers/src/stm32f10x_exti.c ****   * @retval None
  83:./Drivers/src/stm32f10x_exti.c ****   */
  84:./Drivers/src/stm32f10x_exti.c **** void EXTI_DeInit(void)
  85:./Drivers/src/stm32f10x_exti.c **** {
  27              		.loc 1 85 1 view -0
  28              		.cfi_startproc
  29              		@ args = 0, pretend = 0, frame = 0
  30              		@ frame_needed = 0, uses_anonymous_args = 0
ARM GAS  /tmp/cc9TAPLA.s 			page 3


  31              		@ link register save eliminated.
  86:./Drivers/src/stm32f10x_exti.c ****   EXTI->IMR = 0x00000000;
  32              		.loc 1 86 3 view .LVU1
  33              		.loc 1 86 13 is_stmt 0 view .LVU2
  34 0000 044B     		ldr	r3, .L2
  35 0002 0022     		movs	r2, #0
  36 0004 1A60     		str	r2, [r3]
  87:./Drivers/src/stm32f10x_exti.c ****   EXTI->EMR = 0x00000000;
  37              		.loc 1 87 3 is_stmt 1 view .LVU3
  38              		.loc 1 87 13 is_stmt 0 view .LVU4
  39 0006 5A60     		str	r2, [r3, #4]
  88:./Drivers/src/stm32f10x_exti.c ****   EXTI->RTSR = 0x00000000; 
  40              		.loc 1 88 3 is_stmt 1 view .LVU5
  41              		.loc 1 88 14 is_stmt 0 view .LVU6
  42 0008 9A60     		str	r2, [r3, #8]
  89:./Drivers/src/stm32f10x_exti.c ****   EXTI->FTSR = 0x00000000; 
  43              		.loc 1 89 3 is_stmt 1 view .LVU7
  44              		.loc 1 89 14 is_stmt 0 view .LVU8
  45 000a DA60     		str	r2, [r3, #12]
  90:./Drivers/src/stm32f10x_exti.c ****   EXTI->PR = 0x000FFFFF;
  46              		.loc 1 90 3 is_stmt 1 view .LVU9
  47              		.loc 1 90 12 is_stmt 0 view .LVU10
  48 000c 024A     		ldr	r2, .L2+4
  49 000e 5A61     		str	r2, [r3, #20]
  91:./Drivers/src/stm32f10x_exti.c **** }
  50              		.loc 1 91 1 view .LVU11
  51 0010 7047     		bx	lr
  52              	.L3:
  53 0012 00BF     		.align	2
  54              	.L2:
  55 0014 00040140 		.word	1073808384
  56 0018 FFFF0F00 		.word	1048575
  57              		.cfi_endproc
  58              	.LFE29:
  60              		.section	.text.EXTI_Init,"ax",%progbits
  61              		.align	1
  62              		.global	EXTI_Init
  63              		.syntax unified
  64              		.thumb
  65              		.thumb_func
  67              	EXTI_Init:
  68              	.LVL0:
  69              	.LFB30:
  92:./Drivers/src/stm32f10x_exti.c **** 
  93:./Drivers/src/stm32f10x_exti.c **** /**
  94:./Drivers/src/stm32f10x_exti.c ****   * @brief  Initializes the EXTI peripheral according to the specified
  95:./Drivers/src/stm32f10x_exti.c ****   *         parameters in the EXTI_InitStruct.
  96:./Drivers/src/stm32f10x_exti.c ****   * @param  EXTI_InitStruct: pointer to a EXTI_InitTypeDef structure
  97:./Drivers/src/stm32f10x_exti.c ****   *         that contains the configuration information for the EXTI peripheral.
  98:./Drivers/src/stm32f10x_exti.c ****   * @retval None
  99:./Drivers/src/stm32f10x_exti.c ****   */
 100:./Drivers/src/stm32f10x_exti.c **** void EXTI_Init(EXTI_InitTypeDef* EXTI_InitStruct)
 101:./Drivers/src/stm32f10x_exti.c **** {
  70              		.loc 1 101 1 is_stmt 1 view -0
  71              		.cfi_startproc
  72              		@ args = 0, pretend = 0, frame = 0
  73              		@ frame_needed = 0, uses_anonymous_args = 0
ARM GAS  /tmp/cc9TAPLA.s 			page 4


  74              		@ link register save eliminated.
 102:./Drivers/src/stm32f10x_exti.c ****   uint32_t tmp = 0;
  75              		.loc 1 102 3 view .LVU13
 103:./Drivers/src/stm32f10x_exti.c **** 
 104:./Drivers/src/stm32f10x_exti.c ****   /* Check the parameters */
 105:./Drivers/src/stm32f10x_exti.c ****   assert_param(IS_EXTI_MODE(EXTI_InitStruct->EXTI_Mode));
  76              		.loc 1 105 3 view .LVU14
 106:./Drivers/src/stm32f10x_exti.c ****   assert_param(IS_EXTI_TRIGGER(EXTI_InitStruct->EXTI_Trigger));
  77              		.loc 1 106 3 view .LVU15
 107:./Drivers/src/stm32f10x_exti.c ****   assert_param(IS_EXTI_LINE(EXTI_InitStruct->EXTI_Line));  
  78              		.loc 1 107 3 view .LVU16
 108:./Drivers/src/stm32f10x_exti.c ****   assert_param(IS_FUNCTIONAL_STATE(EXTI_InitStruct->EXTI_LineCmd));
  79              		.loc 1 108 3 view .LVU17
 109:./Drivers/src/stm32f10x_exti.c **** 
 110:./Drivers/src/stm32f10x_exti.c ****   tmp = (uint32_t)EXTI_BASE;
  80              		.loc 1 110 3 view .LVU18
 111:./Drivers/src/stm32f10x_exti.c ****      
 112:./Drivers/src/stm32f10x_exti.c ****   if (EXTI_InitStruct->EXTI_LineCmd != DISABLE)
  81              		.loc 1 112 3 view .LVU19
  82              		.loc 1 112 22 is_stmt 0 view .LVU20
  83 0000 8379     		ldrb	r3, [r0, #6]	@ zero_extendqisi2
  84              		.loc 1 112 6 view .LVU21
  85 0002 002B     		cmp	r3, #0
  86 0004 35D0     		beq	.L5
 101:./Drivers/src/stm32f10x_exti.c ****   uint32_t tmp = 0;
  87              		.loc 1 101 1 view .LVU22
  88 0006 10B4     		push	{r4}
  89              	.LCFI0:
  90              		.cfi_def_cfa_offset 4
  91              		.cfi_offset 4, -4
 113:./Drivers/src/stm32f10x_exti.c ****   {
 114:./Drivers/src/stm32f10x_exti.c ****     /* Clear EXTI line configuration */
 115:./Drivers/src/stm32f10x_exti.c ****     EXTI->IMR &= ~EXTI_InitStruct->EXTI_Line;
  92              		.loc 1 115 5 is_stmt 1 view .LVU23
  93              		.loc 1 115 9 is_stmt 0 view .LVU24
  94 0008 1F4B     		ldr	r3, .L13
  95 000a 1A68     		ldr	r2, [r3]
  96              		.loc 1 115 34 view .LVU25
  97 000c 0168     		ldr	r1, [r0]
  98              		.loc 1 115 15 view .LVU26
  99 000e 22EA0102 		bic	r2, r2, r1
 100 0012 1A60     		str	r2, [r3]
 116:./Drivers/src/stm32f10x_exti.c ****     EXTI->EMR &= ~EXTI_InitStruct->EXTI_Line;
 101              		.loc 1 116 5 is_stmt 1 view .LVU27
 102              		.loc 1 116 9 is_stmt 0 view .LVU28
 103 0014 5A68     		ldr	r2, [r3, #4]
 104              		.loc 1 116 34 view .LVU29
 105 0016 0168     		ldr	r1, [r0]
 106              		.loc 1 116 15 view .LVU30
 107 0018 22EA0102 		bic	r2, r2, r1
 108 001c 5A60     		str	r2, [r3, #4]
 117:./Drivers/src/stm32f10x_exti.c ****     
 118:./Drivers/src/stm32f10x_exti.c ****     tmp += EXTI_InitStruct->EXTI_Mode;
 109              		.loc 1 118 5 is_stmt 1 view .LVU31
 110              		.loc 1 118 27 is_stmt 0 view .LVU32
 111 001e 0279     		ldrb	r2, [r0, #4]	@ zero_extendqisi2
 112              		.loc 1 118 9 view .LVU33
ARM GAS  /tmp/cc9TAPLA.s 			page 5


 113 0020 02F18042 		add	r2, r2, #1073741824
 114 0024 02F58232 		add	r2, r2, #66560
 115              	.LVL1:
 119:./Drivers/src/stm32f10x_exti.c **** 
 120:./Drivers/src/stm32f10x_exti.c ****     *(__IO uint32_t *) tmp |= EXTI_InitStruct->EXTI_Line;
 116              		.loc 1 120 5 is_stmt 1 view .LVU34
 117 0028 1168     		ldr	r1, [r2]
 118              		.loc 1 120 28 is_stmt 0 view .LVU35
 119 002a 0468     		ldr	r4, [r0]
 120 002c 2143     		orrs	r1, r1, r4
 121 002e 1160     		str	r1, [r2]
 121:./Drivers/src/stm32f10x_exti.c **** 
 122:./Drivers/src/stm32f10x_exti.c ****     /* Clear Rising Falling edge configuration */
 123:./Drivers/src/stm32f10x_exti.c ****     EXTI->RTSR &= ~EXTI_InitStruct->EXTI_Line;
 122              		.loc 1 123 5 is_stmt 1 view .LVU36
 123              		.loc 1 123 9 is_stmt 0 view .LVU37
 124 0030 9A68     		ldr	r2, [r3, #8]
 125              	.LVL2:
 126              		.loc 1 123 35 view .LVU38
 127 0032 0168     		ldr	r1, [r0]
 128              		.loc 1 123 16 view .LVU39
 129 0034 22EA0102 		bic	r2, r2, r1
 130 0038 9A60     		str	r2, [r3, #8]
 124:./Drivers/src/stm32f10x_exti.c ****     EXTI->FTSR &= ~EXTI_InitStruct->EXTI_Line;
 131              		.loc 1 124 5 is_stmt 1 view .LVU40
 132              		.loc 1 124 9 is_stmt 0 view .LVU41
 133 003a DA68     		ldr	r2, [r3, #12]
 134              		.loc 1 124 35 view .LVU42
 135 003c 0168     		ldr	r1, [r0]
 136              		.loc 1 124 16 view .LVU43
 137 003e 22EA0102 		bic	r2, r2, r1
 138 0042 DA60     		str	r2, [r3, #12]
 125:./Drivers/src/stm32f10x_exti.c ****     
 126:./Drivers/src/stm32f10x_exti.c ****     /* Select the trigger for the selected external interrupts */
 127:./Drivers/src/stm32f10x_exti.c ****     if (EXTI_InitStruct->EXTI_Trigger == EXTI_Trigger_Rising_Falling)
 139              		.loc 1 127 5 is_stmt 1 view .LVU44
 140              		.loc 1 127 24 is_stmt 0 view .LVU45
 141 0044 4379     		ldrb	r3, [r0, #5]	@ zero_extendqisi2
 142              		.loc 1 127 8 view .LVU46
 143 0046 102B     		cmp	r3, #16
 144 0048 09D0     		beq	.L12
 128:./Drivers/src/stm32f10x_exti.c ****     {
 129:./Drivers/src/stm32f10x_exti.c ****       /* Rising Falling edge */
 130:./Drivers/src/stm32f10x_exti.c ****       EXTI->RTSR |= EXTI_InitStruct->EXTI_Line;
 131:./Drivers/src/stm32f10x_exti.c ****       EXTI->FTSR |= EXTI_InitStruct->EXTI_Line;
 132:./Drivers/src/stm32f10x_exti.c ****     }
 133:./Drivers/src/stm32f10x_exti.c ****     else
 134:./Drivers/src/stm32f10x_exti.c ****     {
 135:./Drivers/src/stm32f10x_exti.c ****       tmp = (uint32_t)EXTI_BASE;
 145              		.loc 1 135 7 is_stmt 1 view .LVU47
 146              	.LVL3:
 136:./Drivers/src/stm32f10x_exti.c ****       tmp += EXTI_InitStruct->EXTI_Trigger;
 147              		.loc 1 136 7 view .LVU48
 148              		.loc 1 136 11 is_stmt 0 view .LVU49
 149 004a 03F18043 		add	r3, r3, #1073741824
 150 004e 03F58233 		add	r3, r3, #66560
 151              	.LVL4:
ARM GAS  /tmp/cc9TAPLA.s 			page 6


 137:./Drivers/src/stm32f10x_exti.c **** 
 138:./Drivers/src/stm32f10x_exti.c ****       *(__IO uint32_t *) tmp |= EXTI_InitStruct->EXTI_Line;
 152              		.loc 1 138 7 is_stmt 1 view .LVU50
 153 0052 1A68     		ldr	r2, [r3]
 154              		.loc 1 138 48 is_stmt 0 view .LVU51
 155 0054 0168     		ldr	r1, [r0]
 156              		.loc 1 138 30 view .LVU52
 157 0056 0A43     		orrs	r2, r2, r1
 158 0058 1A60     		str	r2, [r3]
 159              	.LVL5:
 160              	.L4:
 139:./Drivers/src/stm32f10x_exti.c ****     }
 140:./Drivers/src/stm32f10x_exti.c ****   }
 141:./Drivers/src/stm32f10x_exti.c ****   else
 142:./Drivers/src/stm32f10x_exti.c ****   {
 143:./Drivers/src/stm32f10x_exti.c ****     tmp += EXTI_InitStruct->EXTI_Mode;
 144:./Drivers/src/stm32f10x_exti.c **** 
 145:./Drivers/src/stm32f10x_exti.c ****     /* Disable the selected external lines */
 146:./Drivers/src/stm32f10x_exti.c ****     *(__IO uint32_t *) tmp &= ~EXTI_InitStruct->EXTI_Line;
 147:./Drivers/src/stm32f10x_exti.c ****   }
 148:./Drivers/src/stm32f10x_exti.c **** }
 161              		.loc 1 148 1 view .LVU53
 162 005a 10BC     		pop	{r4}
 163              	.LCFI1:
 164              		.cfi_remember_state
 165              		.cfi_restore 4
 166              		.cfi_def_cfa_offset 0
 167 005c 7047     		bx	lr
 168              	.LVL6:
 169              	.L12:
 170              	.LCFI2:
 171              		.cfi_restore_state
 130:./Drivers/src/stm32f10x_exti.c ****       EXTI->FTSR |= EXTI_InitStruct->EXTI_Line;
 172              		.loc 1 130 7 is_stmt 1 view .LVU54
 130:./Drivers/src/stm32f10x_exti.c ****       EXTI->FTSR |= EXTI_InitStruct->EXTI_Line;
 173              		.loc 1 130 11 is_stmt 0 view .LVU55
 174 005e 0A4B     		ldr	r3, .L13
 175 0060 9A68     		ldr	r2, [r3, #8]
 130:./Drivers/src/stm32f10x_exti.c ****       EXTI->FTSR |= EXTI_InitStruct->EXTI_Line;
 176              		.loc 1 130 36 view .LVU56
 177 0062 0168     		ldr	r1, [r0]
 130:./Drivers/src/stm32f10x_exti.c ****       EXTI->FTSR |= EXTI_InitStruct->EXTI_Line;
 178              		.loc 1 130 18 view .LVU57
 179 0064 0A43     		orrs	r2, r2, r1
 180 0066 9A60     		str	r2, [r3, #8]
 131:./Drivers/src/stm32f10x_exti.c ****     }
 181              		.loc 1 131 7 is_stmt 1 view .LVU58
 131:./Drivers/src/stm32f10x_exti.c ****     }
 182              		.loc 1 131 11 is_stmt 0 view .LVU59
 183 0068 DA68     		ldr	r2, [r3, #12]
 131:./Drivers/src/stm32f10x_exti.c ****     }
 184              		.loc 1 131 36 view .LVU60
 185 006a 0168     		ldr	r1, [r0]
 131:./Drivers/src/stm32f10x_exti.c ****     }
 186              		.loc 1 131 18 view .LVU61
 187 006c 0A43     		orrs	r2, r2, r1
 188 006e DA60     		str	r2, [r3, #12]
ARM GAS  /tmp/cc9TAPLA.s 			page 7


 189 0070 F3E7     		b	.L4
 190              	.LVL7:
 191              	.L5:
 192              	.LCFI3:
 193              		.cfi_def_cfa_offset 0
 194              		.cfi_restore 4
 143:./Drivers/src/stm32f10x_exti.c **** 
 195              		.loc 1 143 5 is_stmt 1 view .LVU62
 143:./Drivers/src/stm32f10x_exti.c **** 
 196              		.loc 1 143 27 is_stmt 0 view .LVU63
 197 0072 0379     		ldrb	r3, [r0, #4]	@ zero_extendqisi2
 143:./Drivers/src/stm32f10x_exti.c **** 
 198              		.loc 1 143 9 view .LVU64
 199 0074 03F18043 		add	r3, r3, #1073741824
 200 0078 03F58233 		add	r3, r3, #66560
 201              	.LVL8:
 146:./Drivers/src/stm32f10x_exti.c ****   }
 202              		.loc 1 146 5 is_stmt 1 view .LVU65
 203 007c 1A68     		ldr	r2, [r3]
 146:./Drivers/src/stm32f10x_exti.c ****   }
 204              		.loc 1 146 47 is_stmt 0 view .LVU66
 205 007e 0168     		ldr	r1, [r0]
 146:./Drivers/src/stm32f10x_exti.c ****   }
 206              		.loc 1 146 28 view .LVU67
 207 0080 22EA0102 		bic	r2, r2, r1
 208 0084 1A60     		str	r2, [r3]
 209 0086 7047     		bx	lr
 210              	.L14:
 211              		.align	2
 212              	.L13:
 213 0088 00040140 		.word	1073808384
 214              		.cfi_endproc
 215              	.LFE30:
 217              		.section	.text.EXTI_StructInit,"ax",%progbits
 218              		.align	1
 219              		.global	EXTI_StructInit
 220              		.syntax unified
 221              		.thumb
 222              		.thumb_func
 224              	EXTI_StructInit:
 225              	.LVL9:
 226              	.LFB31:
 149:./Drivers/src/stm32f10x_exti.c **** 
 150:./Drivers/src/stm32f10x_exti.c **** /**
 151:./Drivers/src/stm32f10x_exti.c ****   * @brief  Fills each EXTI_InitStruct member with its reset value.
 152:./Drivers/src/stm32f10x_exti.c ****   * @param  EXTI_InitStruct: pointer to a EXTI_InitTypeDef structure which will
 153:./Drivers/src/stm32f10x_exti.c ****   *         be initialized.
 154:./Drivers/src/stm32f10x_exti.c ****   * @retval None
 155:./Drivers/src/stm32f10x_exti.c ****   */
 156:./Drivers/src/stm32f10x_exti.c **** void EXTI_StructInit(EXTI_InitTypeDef* EXTI_InitStruct)
 157:./Drivers/src/stm32f10x_exti.c **** {
 227              		.loc 1 157 1 is_stmt 1 view -0
 228              		.cfi_startproc
 229              		@ args = 0, pretend = 0, frame = 0
 230              		@ frame_needed = 0, uses_anonymous_args = 0
 231              		@ link register save eliminated.
 158:./Drivers/src/stm32f10x_exti.c ****   EXTI_InitStruct->EXTI_Line = EXTI_LINENONE;
ARM GAS  /tmp/cc9TAPLA.s 			page 8


 232              		.loc 1 158 3 view .LVU69
 233              		.loc 1 158 30 is_stmt 0 view .LVU70
 234 0000 0023     		movs	r3, #0
 235 0002 0360     		str	r3, [r0]
 159:./Drivers/src/stm32f10x_exti.c ****   EXTI_InitStruct->EXTI_Mode = EXTI_Mode_Interrupt;
 236              		.loc 1 159 3 is_stmt 1 view .LVU71
 237              		.loc 1 159 30 is_stmt 0 view .LVU72
 238 0004 0371     		strb	r3, [r0, #4]
 160:./Drivers/src/stm32f10x_exti.c ****   EXTI_InitStruct->EXTI_Trigger = EXTI_Trigger_Falling;
 239              		.loc 1 160 3 is_stmt 1 view .LVU73
 240              		.loc 1 160 33 is_stmt 0 view .LVU74
 241 0006 0C22     		movs	r2, #12
 242 0008 4271     		strb	r2, [r0, #5]
 161:./Drivers/src/stm32f10x_exti.c ****   EXTI_InitStruct->EXTI_LineCmd = DISABLE;
 243              		.loc 1 161 3 is_stmt 1 view .LVU75
 244              		.loc 1 161 33 is_stmt 0 view .LVU76
 245 000a 8371     		strb	r3, [r0, #6]
 162:./Drivers/src/stm32f10x_exti.c **** }
 246              		.loc 1 162 1 view .LVU77
 247 000c 7047     		bx	lr
 248              		.cfi_endproc
 249              	.LFE31:
 251              		.section	.text.EXTI_GenerateSWInterrupt,"ax",%progbits
 252              		.align	1
 253              		.global	EXTI_GenerateSWInterrupt
 254              		.syntax unified
 255              		.thumb
 256              		.thumb_func
 258              	EXTI_GenerateSWInterrupt:
 259              	.LVL10:
 260              	.LFB32:
 163:./Drivers/src/stm32f10x_exti.c **** 
 164:./Drivers/src/stm32f10x_exti.c **** /**
 165:./Drivers/src/stm32f10x_exti.c ****   * @brief  Generates a Software interrupt.
 166:./Drivers/src/stm32f10x_exti.c ****   * @param  EXTI_Line: specifies the EXTI lines to be enabled or disabled.
 167:./Drivers/src/stm32f10x_exti.c ****   *   This parameter can be any combination of EXTI_Linex where x can be (0..19).
 168:./Drivers/src/stm32f10x_exti.c ****   * @retval None
 169:./Drivers/src/stm32f10x_exti.c ****   */
 170:./Drivers/src/stm32f10x_exti.c **** void EXTI_GenerateSWInterrupt(uint32_t EXTI_Line)
 171:./Drivers/src/stm32f10x_exti.c **** {
 261              		.loc 1 171 1 is_stmt 1 view -0
 262              		.cfi_startproc
 263              		@ args = 0, pretend = 0, frame = 0
 264              		@ frame_needed = 0, uses_anonymous_args = 0
 265              		@ link register save eliminated.
 172:./Drivers/src/stm32f10x_exti.c ****   /* Check the parameters */
 173:./Drivers/src/stm32f10x_exti.c ****   assert_param(IS_EXTI_LINE(EXTI_Line));
 266              		.loc 1 173 3 view .LVU79
 174:./Drivers/src/stm32f10x_exti.c ****   
 175:./Drivers/src/stm32f10x_exti.c ****   EXTI->SWIER |= EXTI_Line;
 267              		.loc 1 175 3 view .LVU80
 268              		.loc 1 175 7 is_stmt 0 view .LVU81
 269 0000 024A     		ldr	r2, .L17
 270 0002 1369     		ldr	r3, [r2, #16]
 271              		.loc 1 175 15 view .LVU82
 272 0004 0343     		orrs	r3, r3, r0
 273 0006 1361     		str	r3, [r2, #16]
ARM GAS  /tmp/cc9TAPLA.s 			page 9


 176:./Drivers/src/stm32f10x_exti.c **** }
 274              		.loc 1 176 1 view .LVU83
 275 0008 7047     		bx	lr
 276              	.L18:
 277 000a 00BF     		.align	2
 278              	.L17:
 279 000c 00040140 		.word	1073808384
 280              		.cfi_endproc
 281              	.LFE32:
 283              		.section	.text.EXTI_GetFlagStatus,"ax",%progbits
 284              		.align	1
 285              		.global	EXTI_GetFlagStatus
 286              		.syntax unified
 287              		.thumb
 288              		.thumb_func
 290              	EXTI_GetFlagStatus:
 291              	.LVL11:
 292              	.LFB33:
 177:./Drivers/src/stm32f10x_exti.c **** 
 178:./Drivers/src/stm32f10x_exti.c **** /**
 179:./Drivers/src/stm32f10x_exti.c ****   * @brief  Checks whether the specified EXTI line flag is set or not.
 180:./Drivers/src/stm32f10x_exti.c ****   * @param  EXTI_Line: specifies the EXTI line flag to check.
 181:./Drivers/src/stm32f10x_exti.c ****   *   This parameter can be:
 182:./Drivers/src/stm32f10x_exti.c ****   *     @arg EXTI_Linex: External interrupt line x where x(0..19)
 183:./Drivers/src/stm32f10x_exti.c ****   * @retval The new state of EXTI_Line (SET or RESET).
 184:./Drivers/src/stm32f10x_exti.c ****   */
 185:./Drivers/src/stm32f10x_exti.c **** FlagStatus EXTI_GetFlagStatus(uint32_t EXTI_Line)
 186:./Drivers/src/stm32f10x_exti.c **** {
 293              		.loc 1 186 1 is_stmt 1 view -0
 294              		.cfi_startproc
 295              		@ args = 0, pretend = 0, frame = 0
 296              		@ frame_needed = 0, uses_anonymous_args = 0
 297              		@ link register save eliminated.
 187:./Drivers/src/stm32f10x_exti.c ****   FlagStatus bitstatus = RESET;
 298              		.loc 1 187 3 view .LVU85
 188:./Drivers/src/stm32f10x_exti.c ****   /* Check the parameters */
 189:./Drivers/src/stm32f10x_exti.c ****   assert_param(IS_GET_EXTI_LINE(EXTI_Line));
 299              		.loc 1 189 3 view .LVU86
 190:./Drivers/src/stm32f10x_exti.c ****   
 191:./Drivers/src/stm32f10x_exti.c ****   if ((EXTI->PR & EXTI_Line) != (uint32_t)RESET)
 300              		.loc 1 191 3 view .LVU87
 301              		.loc 1 191 12 is_stmt 0 view .LVU88
 302 0000 034B     		ldr	r3, .L22
 303 0002 5B69     		ldr	r3, [r3, #20]
 304              		.loc 1 191 6 view .LVU89
 305 0004 0342     		tst	r3, r0
 306 0006 01D0     		beq	.L21
 192:./Drivers/src/stm32f10x_exti.c ****   {
 193:./Drivers/src/stm32f10x_exti.c ****     bitstatus = SET;
 307              		.loc 1 193 15 view .LVU90
 308 0008 0120     		movs	r0, #1
 309              	.LVL12:
 310              		.loc 1 193 15 view .LVU91
 311 000a 7047     		bx	lr
 312              	.LVL13:
 313              	.L21:
 194:./Drivers/src/stm32f10x_exti.c ****   }
ARM GAS  /tmp/cc9TAPLA.s 			page 10


 195:./Drivers/src/stm32f10x_exti.c ****   else
 196:./Drivers/src/stm32f10x_exti.c ****   {
 197:./Drivers/src/stm32f10x_exti.c ****     bitstatus = RESET;
 314              		.loc 1 197 15 view .LVU92
 315 000c 0020     		movs	r0, #0
 316              	.LVL14:
 198:./Drivers/src/stm32f10x_exti.c ****   }
 199:./Drivers/src/stm32f10x_exti.c ****   return bitstatus;
 317              		.loc 1 199 3 is_stmt 1 view .LVU93
 200:./Drivers/src/stm32f10x_exti.c **** }
 318              		.loc 1 200 1 is_stmt 0 view .LVU94
 319 000e 7047     		bx	lr
 320              	.L23:
 321              		.align	2
 322              	.L22:
 323 0010 00040140 		.word	1073808384
 324              		.cfi_endproc
 325              	.LFE33:
 327              		.section	.text.EXTI_ClearFlag,"ax",%progbits
 328              		.align	1
 329              		.global	EXTI_ClearFlag
 330              		.syntax unified
 331              		.thumb
 332              		.thumb_func
 334              	EXTI_ClearFlag:
 335              	.LVL15:
 336              	.LFB34:
 201:./Drivers/src/stm32f10x_exti.c **** 
 202:./Drivers/src/stm32f10x_exti.c **** /**
 203:./Drivers/src/stm32f10x_exti.c ****   * @brief  Clears the EXTI's line pending flags.
 204:./Drivers/src/stm32f10x_exti.c ****   * @param  EXTI_Line: specifies the EXTI lines flags to clear.
 205:./Drivers/src/stm32f10x_exti.c ****   *   This parameter can be any combination of EXTI_Linex where x can be (0..19).
 206:./Drivers/src/stm32f10x_exti.c ****   * @retval None
 207:./Drivers/src/stm32f10x_exti.c ****   */
 208:./Drivers/src/stm32f10x_exti.c **** void EXTI_ClearFlag(uint32_t EXTI_Line)
 209:./Drivers/src/stm32f10x_exti.c **** {
 337              		.loc 1 209 1 is_stmt 1 view -0
 338              		.cfi_startproc
 339              		@ args = 0, pretend = 0, frame = 0
 340              		@ frame_needed = 0, uses_anonymous_args = 0
 341              		@ link register save eliminated.
 210:./Drivers/src/stm32f10x_exti.c ****   /* Check the parameters */
 211:./Drivers/src/stm32f10x_exti.c ****   assert_param(IS_EXTI_LINE(EXTI_Line));
 342              		.loc 1 211 3 view .LVU96
 212:./Drivers/src/stm32f10x_exti.c ****   
 213:./Drivers/src/stm32f10x_exti.c ****   EXTI->PR = EXTI_Line;
 343              		.loc 1 213 3 view .LVU97
 344              		.loc 1 213 12 is_stmt 0 view .LVU98
 345 0000 014B     		ldr	r3, .L25
 346 0002 5861     		str	r0, [r3, #20]
 214:./Drivers/src/stm32f10x_exti.c **** }
 347              		.loc 1 214 1 view .LVU99
 348 0004 7047     		bx	lr
 349              	.L26:
 350 0006 00BF     		.align	2
 351              	.L25:
 352 0008 00040140 		.word	1073808384
ARM GAS  /tmp/cc9TAPLA.s 			page 11


 353              		.cfi_endproc
 354              	.LFE34:
 356              		.section	.text.EXTI_GetITStatus,"ax",%progbits
 357              		.align	1
 358              		.global	EXTI_GetITStatus
 359              		.syntax unified
 360              		.thumb
 361              		.thumb_func
 363              	EXTI_GetITStatus:
 364              	.LVL16:
 365              	.LFB35:
 215:./Drivers/src/stm32f10x_exti.c **** 
 216:./Drivers/src/stm32f10x_exti.c **** /**
 217:./Drivers/src/stm32f10x_exti.c ****   * @brief  Checks whether the specified EXTI line is asserted or not.
 218:./Drivers/src/stm32f10x_exti.c ****   * @param  EXTI_Line: specifies the EXTI line to check.
 219:./Drivers/src/stm32f10x_exti.c ****   *   This parameter can be:
 220:./Drivers/src/stm32f10x_exti.c ****   *     @arg EXTI_Linex: External interrupt line x where x(0..19)
 221:./Drivers/src/stm32f10x_exti.c ****   * @retval The new state of EXTI_Line (SET or RESET).
 222:./Drivers/src/stm32f10x_exti.c ****   */
 223:./Drivers/src/stm32f10x_exti.c **** ITStatus EXTI_GetITStatus(uint32_t EXTI_Line)
 224:./Drivers/src/stm32f10x_exti.c **** {
 366              		.loc 1 224 1 is_stmt 1 view -0
 367              		.cfi_startproc
 368              		@ args = 0, pretend = 0, frame = 0
 369              		@ frame_needed = 0, uses_anonymous_args = 0
 370              		@ link register save eliminated.
 225:./Drivers/src/stm32f10x_exti.c ****   ITStatus bitstatus = RESET;
 371              		.loc 1 225 3 view .LVU101
 226:./Drivers/src/stm32f10x_exti.c ****   uint32_t enablestatus = 0;
 372              		.loc 1 226 3 view .LVU102
 227:./Drivers/src/stm32f10x_exti.c ****   /* Check the parameters */
 228:./Drivers/src/stm32f10x_exti.c ****   assert_param(IS_GET_EXTI_LINE(EXTI_Line));
 373              		.loc 1 228 3 view .LVU103
 229:./Drivers/src/stm32f10x_exti.c ****   
 230:./Drivers/src/stm32f10x_exti.c ****   enablestatus =  EXTI->IMR & EXTI_Line;
 374              		.loc 1 230 3 view .LVU104
 375              		.loc 1 230 23 is_stmt 0 view .LVU105
 376 0000 064A     		ldr	r2, .L31
 377 0002 1368     		ldr	r3, [r2]
 378              		.loc 1 230 16 view .LVU106
 379 0004 0340     		ands	r3, r3, r0
 380              	.LVL17:
 231:./Drivers/src/stm32f10x_exti.c ****   if (((EXTI->PR & EXTI_Line) != (uint32_t)RESET) && (enablestatus != (uint32_t)RESET))
 381              		.loc 1 231 3 is_stmt 1 view .LVU107
 382              		.loc 1 231 13 is_stmt 0 view .LVU108
 383 0006 5269     		ldr	r2, [r2, #20]
 384              		.loc 1 231 6 view .LVU109
 385 0008 0242     		tst	r2, r0
 386 000a 02D0     		beq	.L29
 387              		.loc 1 231 51 discriminator 1 view .LVU110
 388 000c 1BB9     		cbnz	r3, .L30
 232:./Drivers/src/stm32f10x_exti.c ****   {
 233:./Drivers/src/stm32f10x_exti.c ****     bitstatus = SET;
 234:./Drivers/src/stm32f10x_exti.c ****   }
 235:./Drivers/src/stm32f10x_exti.c ****   else
 236:./Drivers/src/stm32f10x_exti.c ****   {
 237:./Drivers/src/stm32f10x_exti.c ****     bitstatus = RESET;
ARM GAS  /tmp/cc9TAPLA.s 			page 12


 389              		.loc 1 237 15 view .LVU111
 390 000e 0020     		movs	r0, #0
 391              	.LVL18:
 392              		.loc 1 237 15 view .LVU112
 393 0010 7047     		bx	lr
 394              	.LVL19:
 395              	.L29:
 396              		.loc 1 237 15 view .LVU113
 397 0012 0020     		movs	r0, #0
 398              	.LVL20:
 399              		.loc 1 237 15 view .LVU114
 400 0014 7047     		bx	lr
 401              	.LVL21:
 402              	.L30:
 233:./Drivers/src/stm32f10x_exti.c ****   }
 403              		.loc 1 233 15 view .LVU115
 404 0016 0120     		movs	r0, #1
 405              	.LVL22:
 238:./Drivers/src/stm32f10x_exti.c ****   }
 239:./Drivers/src/stm32f10x_exti.c ****   return bitstatus;
 406              		.loc 1 239 3 is_stmt 1 view .LVU116
 240:./Drivers/src/stm32f10x_exti.c **** }
 407              		.loc 1 240 1 is_stmt 0 view .LVU117
 408 0018 7047     		bx	lr
 409              	.L32:
 410 001a 00BF     		.align	2
 411              	.L31:
 412 001c 00040140 		.word	1073808384
 413              		.cfi_endproc
 414              	.LFE35:
 416              		.section	.text.EXTI_ClearITPendingBit,"ax",%progbits
 417              		.align	1
 418              		.global	EXTI_ClearITPendingBit
 419              		.syntax unified
 420              		.thumb
 421              		.thumb_func
 423              	EXTI_ClearITPendingBit:
 424              	.LVL23:
 425              	.LFB36:
 241:./Drivers/src/stm32f10x_exti.c **** 
 242:./Drivers/src/stm32f10x_exti.c **** /**
 243:./Drivers/src/stm32f10x_exti.c ****   * @brief  Clears the EXTI's line pending bits.
 244:./Drivers/src/stm32f10x_exti.c ****   * @param  EXTI_Line: specifies the EXTI lines to clear.
 245:./Drivers/src/stm32f10x_exti.c ****   *   This parameter can be any combination of EXTI_Linex where x can be (0..19).
 246:./Drivers/src/stm32f10x_exti.c ****   * @retval None
 247:./Drivers/src/stm32f10x_exti.c ****   */
 248:./Drivers/src/stm32f10x_exti.c **** void EXTI_ClearITPendingBit(uint32_t EXTI_Line)
 249:./Drivers/src/stm32f10x_exti.c **** {
 426              		.loc 1 249 1 is_stmt 1 view -0
 427              		.cfi_startproc
 428              		@ args = 0, pretend = 0, frame = 0
 429              		@ frame_needed = 0, uses_anonymous_args = 0
 430              		@ link register save eliminated.
 250:./Drivers/src/stm32f10x_exti.c ****   /* Check the parameters */
 251:./Drivers/src/stm32f10x_exti.c ****   assert_param(IS_EXTI_LINE(EXTI_Line));
 431              		.loc 1 251 3 view .LVU119
 252:./Drivers/src/stm32f10x_exti.c ****   
ARM GAS  /tmp/cc9TAPLA.s 			page 13


 253:./Drivers/src/stm32f10x_exti.c ****   EXTI->PR = EXTI_Line;
 432              		.loc 1 253 3 view .LVU120
 433              		.loc 1 253 12 is_stmt 0 view .LVU121
 434 0000 014B     		ldr	r3, .L34
 435 0002 5861     		str	r0, [r3, #20]
 254:./Drivers/src/stm32f10x_exti.c **** }
 436              		.loc 1 254 1 view .LVU122
 437 0004 7047     		bx	lr
 438              	.L35:
 439 0006 00BF     		.align	2
 440              	.L34:
 441 0008 00040140 		.word	1073808384
 442              		.cfi_endproc
 443              	.LFE36:
 445              		.text
 446              	.Letext0:
 447              		.file 2 "/usr/arm-none-eabi/include/machine/_default_types.h"
 448              		.file 3 "/usr/arm-none-eabi/include/sys/_stdint.h"
 449              		.file 4 "cmsis/stm32f10x.h"
 450              		.file 5 "Drivers/inc/stm32f10x_exti.h"
ARM GAS  /tmp/cc9TAPLA.s 			page 14

