ARM GAS  /tmp/cccZtzCA.s 			page 1


   1              		.cpu cortex-m3
   2              		.eabi_attribute 20, 1
   3              		.eabi_attribute 21, 1
   4              		.eabi_attribute 23, 3
   5              		.eabi_attribute 24, 1
   6              		.eabi_attribute 25, 1
   7              		.eabi_attribute 26, 1
   8              		.eabi_attribute 30, 1
   9              		.eabi_attribute 34, 1
  10              		.eabi_attribute 18, 4
  11              		.file	"Delay.c"
  12              		.text
  13              	.Ltext0:
  14              		.cfi_sections	.debug_frame
  15              		.section	.text.Delay_us,"ax",%progbits
  16              		.align	1
  17              		.global	Delay_us
  18              		.arch armv7-m
  19              		.syntax unified
  20              		.thumb
  21              		.thumb_func
  22              		.fpu softvfp
  24              	Delay_us:
  25              	.LVL0:
  26              	.LFB29:
  27              		.file 1 "./Libraries/src/Delay.c"
   1:./Libraries/src/Delay.c **** #include "stm32f10x.h"
   2:./Libraries/src/Delay.c **** 
   3:./Libraries/src/Delay.c **** /**
   4:./Libraries/src/Delay.c ****   * @brief  微秒级延时
   5:./Libraries/src/Delay.c ****   * @param  xus 延时时长，范围：0~233015
   6:./Libraries/src/Delay.c ****   * @retval 无
   7:./Libraries/src/Delay.c ****   */
   8:./Libraries/src/Delay.c **** void Delay_us(uint32_t xus)
   9:./Libraries/src/Delay.c **** {
  28              		.loc 1 9 1 view -0
  29              		.cfi_startproc
  30              		@ args = 0, pretend = 0, frame = 0
  31              		@ frame_needed = 0, uses_anonymous_args = 0
  32              		@ link register save eliminated.
  10:./Libraries/src/Delay.c **** 	SysTick->LOAD = 72 * xus;				//设置定时器重装值
  33              		.loc 1 10 2 view .LVU1
  34              		.loc 1 10 21 is_stmt 0 view .LVU2
  35 0000 00EBC000 		add	r0, r0, r0, lsl #3
  36              	.LVL1:
  37              		.loc 1 10 21 view .LVU3
  38 0004 C000     		lsls	r0, r0, #3
  39              		.loc 1 10 16 view .LVU4
  40 0006 074B     		ldr	r3, .L3
  41 0008 5860     		str	r0, [r3, #4]
  11:./Libraries/src/Delay.c **** 	SysTick->VAL = 0x00;					//清空当前计数值
  42              		.loc 1 11 2 is_stmt 1 view .LVU5
  43              		.loc 1 11 15 is_stmt 0 view .LVU6
  44 000a 0022     		movs	r2, #0
  45 000c 9A60     		str	r2, [r3, #8]
  12:./Libraries/src/Delay.c **** 	SysTick->CTRL = 0x00000005;				//设置时钟源为HCLK，启动定时器
  46              		.loc 1 12 2 is_stmt 1 view .LVU7
ARM GAS  /tmp/cccZtzCA.s 			page 2


  47              		.loc 1 12 16 is_stmt 0 view .LVU8
  48 000e 0522     		movs	r2, #5
  49 0010 1A60     		str	r2, [r3]
  13:./Libraries/src/Delay.c **** 	while(!(SysTick->CTRL & 0x00010000));	//等待计数到0
  50              		.loc 1 13 2 is_stmt 1 view .LVU9
  51              	.L2:
  52              		.loc 1 13 38 discriminator 1 view .LVU10
  53              		.loc 1 13 7 discriminator 1 view .LVU11
  54              		.loc 1 13 17 is_stmt 0 discriminator 1 view .LVU12
  55 0012 044B     		ldr	r3, .L3
  56 0014 1B68     		ldr	r3, [r3]
  57              		.loc 1 13 7 discriminator 1 view .LVU13
  58 0016 13F4803F 		tst	r3, #65536
  59 001a FAD0     		beq	.L2
  14:./Libraries/src/Delay.c **** 	SysTick->CTRL = 0x00000004;				//关闭定时器
  60              		.loc 1 14 2 is_stmt 1 view .LVU14
  61              		.loc 1 14 16 is_stmt 0 view .LVU15
  62 001c 014B     		ldr	r3, .L3
  63 001e 0422     		movs	r2, #4
  64 0020 1A60     		str	r2, [r3]
  15:./Libraries/src/Delay.c **** }
  65              		.loc 1 15 1 view .LVU16
  66 0022 7047     		bx	lr
  67              	.L4:
  68              		.align	2
  69              	.L3:
  70 0024 10E000E0 		.word	-536813552
  71              		.cfi_endproc
  72              	.LFE29:
  74              		.section	.text.Delay_ms,"ax",%progbits
  75              		.align	1
  76              		.global	Delay_ms
  77              		.syntax unified
  78              		.thumb
  79              		.thumb_func
  80              		.fpu softvfp
  82              	Delay_ms:
  83              	.LVL2:
  84              	.LFB30:
  16:./Libraries/src/Delay.c **** 
  17:./Libraries/src/Delay.c **** /**
  18:./Libraries/src/Delay.c ****   * @brief  毫秒级延时
  19:./Libraries/src/Delay.c ****   * @param  xms 延时时长，范围：0~4294967295
  20:./Libraries/src/Delay.c ****   * @retval 无
  21:./Libraries/src/Delay.c ****   */
  22:./Libraries/src/Delay.c **** void Delay_ms(uint32_t xms)
  23:./Libraries/src/Delay.c **** {
  85              		.loc 1 23 1 is_stmt 1 view -0
  86              		.cfi_startproc
  87              		@ args = 0, pretend = 0, frame = 0
  88              		@ frame_needed = 0, uses_anonymous_args = 0
  89              		.loc 1 23 1 is_stmt 0 view .LVU18
  90 0000 10B5     		push	{r4, lr}
  91              	.LCFI0:
  92              		.cfi_def_cfa_offset 8
  93              		.cfi_offset 4, -8
  94              		.cfi_offset 14, -4
ARM GAS  /tmp/cccZtzCA.s 			page 3


  24:./Libraries/src/Delay.c **** 	while(xms--)
  95              		.loc 1 24 2 is_stmt 1 view .LVU19
  96              	.L6:
  97              		.loc 1 24 7 view .LVU20
  98              		.loc 1 24 11 is_stmt 0 view .LVU21
  99 0002 441E     		subs	r4, r0, #1
 100              	.LVL3:
 101              		.loc 1 24 7 view .LVU22
 102 0004 28B1     		cbz	r0, .L9
  25:./Libraries/src/Delay.c **** 	{
  26:./Libraries/src/Delay.c **** 		Delay_us(1000);
 103              		.loc 1 26 3 is_stmt 1 view .LVU23
 104 0006 4FF47A70 		mov	r0, #1000
 105 000a FFF7FEFF 		bl	Delay_us
 106              	.LVL4:
  24:./Libraries/src/Delay.c **** 	while(xms--)
 107              		.loc 1 24 11 is_stmt 0 view .LVU24
 108 000e 2046     		mov	r0, r4
 109 0010 F7E7     		b	.L6
 110              	.L9:
  27:./Libraries/src/Delay.c **** 	}
  28:./Libraries/src/Delay.c **** }
 111              		.loc 1 28 1 view .LVU25
 112 0012 10BD     		pop	{r4, pc}
 113              		.loc 1 28 1 view .LVU26
 114              		.cfi_endproc
 115              	.LFE30:
 117              		.section	.text.Delay_s,"ax",%progbits
 118              		.align	1
 119              		.global	Delay_s
 120              		.syntax unified
 121              		.thumb
 122              		.thumb_func
 123              		.fpu softvfp
 125              	Delay_s:
 126              	.LVL5:
 127              	.LFB31:
  29:./Libraries/src/Delay.c ****  
  30:./Libraries/src/Delay.c **** /**
  31:./Libraries/src/Delay.c ****   * @brief  秒级延时
  32:./Libraries/src/Delay.c ****   * @param  xs 延时时长，范围：0~4294967295
  33:./Libraries/src/Delay.c ****   * @retval 无
  34:./Libraries/src/Delay.c ****   */
  35:./Libraries/src/Delay.c **** void Delay_s(uint32_t xs)
  36:./Libraries/src/Delay.c **** {
 128              		.loc 1 36 1 is_stmt 1 view -0
 129              		.cfi_startproc
 130              		@ args = 0, pretend = 0, frame = 0
 131              		@ frame_needed = 0, uses_anonymous_args = 0
 132              		.loc 1 36 1 is_stmt 0 view .LVU28
 133 0000 10B5     		push	{r4, lr}
 134              	.LCFI1:
 135              		.cfi_def_cfa_offset 8
 136              		.cfi_offset 4, -8
 137              		.cfi_offset 14, -4
  37:./Libraries/src/Delay.c **** 	while(xs--)
 138              		.loc 1 37 2 is_stmt 1 view .LVU29
ARM GAS  /tmp/cccZtzCA.s 			page 4


 139              	.L11:
 140              		.loc 1 37 7 view .LVU30
 141              		.loc 1 37 10 is_stmt 0 view .LVU31
 142 0002 441E     		subs	r4, r0, #1
 143              	.LVL6:
 144              		.loc 1 37 7 view .LVU32
 145 0004 28B1     		cbz	r0, .L14
  38:./Libraries/src/Delay.c **** 	{
  39:./Libraries/src/Delay.c **** 		Delay_ms(1000);
 146              		.loc 1 39 3 is_stmt 1 view .LVU33
 147 0006 4FF47A70 		mov	r0, #1000
 148 000a FFF7FEFF 		bl	Delay_ms
 149              	.LVL7:
  37:./Libraries/src/Delay.c **** 	while(xs--)
 150              		.loc 1 37 10 is_stmt 0 view .LVU34
 151 000e 2046     		mov	r0, r4
 152 0010 F7E7     		b	.L11
 153              	.L14:
  40:./Libraries/src/Delay.c **** 	}
  41:./Libraries/src/Delay.c **** } 
 154              		.loc 1 41 1 view .LVU35
 155 0012 10BD     		pop	{r4, pc}
 156              		.loc 1 41 1 view .LVU36
 157              		.cfi_endproc
 158              	.LFE31:
 160              		.text
 161              	.Letext0:
 162              		.file 2 "cmsis/core_cm3.h"
 163              		.file 3 "/usr/lib/gcc/arm-none-eabi/9.2.1/include/stdint.h"
 164              		.file 4 "cmsis/system_stm32f10x.h"
ARM GAS  /tmp/cccZtzCA.s 			page 5

