ARM GAS  /tmp/ccNkW2Fk.s 			page 1


   1              		.cpu cortex-m3
   2              		.arch armv7-m
   3              		.fpu softvfp
   4              		.eabi_attribute 20, 1
   5              		.eabi_attribute 21, 1
   6              		.eabi_attribute 23, 3
   7              		.eabi_attribute 24, 1
   8              		.eabi_attribute 25, 1
   9              		.eabi_attribute 26, 1
  10              		.eabi_attribute 30, 1
  11              		.eabi_attribute 34, 1
  12              		.eabi_attribute 18, 4
  13              		.file	"stm32f10x_wwdg.c"
  14              		.text
  15              	.Ltext0:
  16              		.cfi_sections	.debug_frame
  17              		.file 1 "./Drivers/src/stm32f10x_wwdg.c"
  18              		.section	.text.WWDG_DeInit,"ax",%progbits
  19              		.align	1
  20              		.global	WWDG_DeInit
  21              		.syntax unified
  22              		.thumb
  23              		.thumb_func
  25              	WWDG_DeInit:
  26              	.LFB29:
   1:./Drivers/src/stm32f10x_wwdg.c **** /**
   2:./Drivers/src/stm32f10x_wwdg.c ****   ******************************************************************************
   3:./Drivers/src/stm32f10x_wwdg.c ****   * @file    stm32f10x_wwdg.c
   4:./Drivers/src/stm32f10x_wwdg.c ****   * @author  MCD Application Team
   5:./Drivers/src/stm32f10x_wwdg.c ****   * @version V3.6.2
   6:./Drivers/src/stm32f10x_wwdg.c ****   * @date    17-September-2021
   7:./Drivers/src/stm32f10x_wwdg.c ****   * @brief   This file provides all the WWDG firmware functions.
   8:./Drivers/src/stm32f10x_wwdg.c ****   ******************************************************************************
   9:./Drivers/src/stm32f10x_wwdg.c ****   * @attention
  10:./Drivers/src/stm32f10x_wwdg.c ****   *
  11:./Drivers/src/stm32f10x_wwdg.c ****   * Copyright (c) 2012 STMicroelectronics.
  12:./Drivers/src/stm32f10x_wwdg.c ****   * All rights reserved.
  13:./Drivers/src/stm32f10x_wwdg.c ****   *
  14:./Drivers/src/stm32f10x_wwdg.c ****   * This software is licensed under terms that can be found in the LICENSE file
  15:./Drivers/src/stm32f10x_wwdg.c ****   * in the root directory of this software component.
  16:./Drivers/src/stm32f10x_wwdg.c ****   * If no LICENSE file comes with this software, it is provided AS-IS.
  17:./Drivers/src/stm32f10x_wwdg.c ****   *
  18:./Drivers/src/stm32f10x_wwdg.c ****   ******************************************************************************
  19:./Drivers/src/stm32f10x_wwdg.c ****   */
  20:./Drivers/src/stm32f10x_wwdg.c **** 
  21:./Drivers/src/stm32f10x_wwdg.c **** /* Includes ------------------------------------------------------------------*/
  22:./Drivers/src/stm32f10x_wwdg.c **** #include "stm32f10x_wwdg.h"
  23:./Drivers/src/stm32f10x_wwdg.c **** #include "stm32f10x_rcc.h"
  24:./Drivers/src/stm32f10x_wwdg.c **** 
  25:./Drivers/src/stm32f10x_wwdg.c **** /** @addtogroup STM32F10x_StdPeriph_Driver
  26:./Drivers/src/stm32f10x_wwdg.c ****   * @{
  27:./Drivers/src/stm32f10x_wwdg.c ****   */
  28:./Drivers/src/stm32f10x_wwdg.c **** 
  29:./Drivers/src/stm32f10x_wwdg.c **** /** @defgroup WWDG 
  30:./Drivers/src/stm32f10x_wwdg.c ****   * @brief WWDG driver modules
  31:./Drivers/src/stm32f10x_wwdg.c ****   * @{
  32:./Drivers/src/stm32f10x_wwdg.c ****   */
ARM GAS  /tmp/ccNkW2Fk.s 			page 2


  33:./Drivers/src/stm32f10x_wwdg.c **** 
  34:./Drivers/src/stm32f10x_wwdg.c **** /** @defgroup WWDG_Private_TypesDefinitions
  35:./Drivers/src/stm32f10x_wwdg.c ****   * @{
  36:./Drivers/src/stm32f10x_wwdg.c ****   */
  37:./Drivers/src/stm32f10x_wwdg.c **** 
  38:./Drivers/src/stm32f10x_wwdg.c **** /**
  39:./Drivers/src/stm32f10x_wwdg.c ****   * @}
  40:./Drivers/src/stm32f10x_wwdg.c ****   */
  41:./Drivers/src/stm32f10x_wwdg.c **** 
  42:./Drivers/src/stm32f10x_wwdg.c **** /** @defgroup WWDG_Private_Defines
  43:./Drivers/src/stm32f10x_wwdg.c ****   * @{
  44:./Drivers/src/stm32f10x_wwdg.c ****   */
  45:./Drivers/src/stm32f10x_wwdg.c **** 
  46:./Drivers/src/stm32f10x_wwdg.c **** /* ----------- WWDG registers bit address in the alias region ----------- */
  47:./Drivers/src/stm32f10x_wwdg.c **** #define WWDG_OFFSET       (WWDG_BASE - PERIPH_BASE)
  48:./Drivers/src/stm32f10x_wwdg.c **** 
  49:./Drivers/src/stm32f10x_wwdg.c **** /* Alias word address of EWI bit */
  50:./Drivers/src/stm32f10x_wwdg.c **** #define CFR_OFFSET        (WWDG_OFFSET + 0x04)
  51:./Drivers/src/stm32f10x_wwdg.c **** #define EWI_BitNumber     0x09
  52:./Drivers/src/stm32f10x_wwdg.c **** #define CFR_EWI_BB        (PERIPH_BB_BASE + (CFR_OFFSET * 32) + (EWI_BitNumber * 4))
  53:./Drivers/src/stm32f10x_wwdg.c **** 
  54:./Drivers/src/stm32f10x_wwdg.c **** /* --------------------- WWDG registers bit mask ------------------------ */
  55:./Drivers/src/stm32f10x_wwdg.c **** 
  56:./Drivers/src/stm32f10x_wwdg.c **** /* CR register bit mask */
  57:./Drivers/src/stm32f10x_wwdg.c **** #define CR_WDGA_Set       ((uint32_t)0x00000080)
  58:./Drivers/src/stm32f10x_wwdg.c **** 
  59:./Drivers/src/stm32f10x_wwdg.c **** /* CFR register bit mask */
  60:./Drivers/src/stm32f10x_wwdg.c **** #define CFR_WDGTB_Mask    ((uint32_t)0xFFFFFE7F)
  61:./Drivers/src/stm32f10x_wwdg.c **** #define CFR_W_Mask        ((uint32_t)0xFFFFFF80)
  62:./Drivers/src/stm32f10x_wwdg.c **** #define BIT_Mask          ((uint8_t)0x7F)
  63:./Drivers/src/stm32f10x_wwdg.c **** 
  64:./Drivers/src/stm32f10x_wwdg.c **** /**
  65:./Drivers/src/stm32f10x_wwdg.c ****   * @}
  66:./Drivers/src/stm32f10x_wwdg.c ****   */
  67:./Drivers/src/stm32f10x_wwdg.c **** 
  68:./Drivers/src/stm32f10x_wwdg.c **** /** @defgroup WWDG_Private_Macros
  69:./Drivers/src/stm32f10x_wwdg.c ****   * @{
  70:./Drivers/src/stm32f10x_wwdg.c ****   */
  71:./Drivers/src/stm32f10x_wwdg.c **** 
  72:./Drivers/src/stm32f10x_wwdg.c **** /**
  73:./Drivers/src/stm32f10x_wwdg.c ****   * @}
  74:./Drivers/src/stm32f10x_wwdg.c ****   */
  75:./Drivers/src/stm32f10x_wwdg.c **** 
  76:./Drivers/src/stm32f10x_wwdg.c **** /** @defgroup WWDG_Private_Variables
  77:./Drivers/src/stm32f10x_wwdg.c ****   * @{
  78:./Drivers/src/stm32f10x_wwdg.c ****   */
  79:./Drivers/src/stm32f10x_wwdg.c **** 
  80:./Drivers/src/stm32f10x_wwdg.c **** /**
  81:./Drivers/src/stm32f10x_wwdg.c ****   * @}
  82:./Drivers/src/stm32f10x_wwdg.c ****   */
  83:./Drivers/src/stm32f10x_wwdg.c **** 
  84:./Drivers/src/stm32f10x_wwdg.c **** /** @defgroup WWDG_Private_FunctionPrototypes
  85:./Drivers/src/stm32f10x_wwdg.c ****   * @{
  86:./Drivers/src/stm32f10x_wwdg.c ****   */
  87:./Drivers/src/stm32f10x_wwdg.c **** 
  88:./Drivers/src/stm32f10x_wwdg.c **** /**
  89:./Drivers/src/stm32f10x_wwdg.c ****   * @}
ARM GAS  /tmp/ccNkW2Fk.s 			page 3


  90:./Drivers/src/stm32f10x_wwdg.c ****   */
  91:./Drivers/src/stm32f10x_wwdg.c **** 
  92:./Drivers/src/stm32f10x_wwdg.c **** /** @defgroup WWDG_Private_Functions
  93:./Drivers/src/stm32f10x_wwdg.c ****   * @{
  94:./Drivers/src/stm32f10x_wwdg.c ****   */
  95:./Drivers/src/stm32f10x_wwdg.c **** 
  96:./Drivers/src/stm32f10x_wwdg.c **** /**
  97:./Drivers/src/stm32f10x_wwdg.c ****   * @brief  Deinitializes the WWDG peripheral registers to their default reset values.
  98:./Drivers/src/stm32f10x_wwdg.c ****   * @param  None
  99:./Drivers/src/stm32f10x_wwdg.c ****   * @retval None
 100:./Drivers/src/stm32f10x_wwdg.c ****   */
 101:./Drivers/src/stm32f10x_wwdg.c **** void WWDG_DeInit(void)
 102:./Drivers/src/stm32f10x_wwdg.c **** {
  27              		.loc 1 102 1 view -0
  28              		.cfi_startproc
  29              		@ args = 0, pretend = 0, frame = 0
  30              		@ frame_needed = 0, uses_anonymous_args = 0
  31 0000 08B5     		push	{r3, lr}
  32              	.LCFI0:
  33              		.cfi_def_cfa_offset 8
  34              		.cfi_offset 3, -8
  35              		.cfi_offset 14, -4
 103:./Drivers/src/stm32f10x_wwdg.c ****   RCC_APB1PeriphResetCmd(RCC_APB1Periph_WWDG, ENABLE);
  36              		.loc 1 103 3 view .LVU1
  37 0002 0121     		movs	r1, #1
  38 0004 4FF40060 		mov	r0, #2048
  39 0008 FFF7FEFF 		bl	RCC_APB1PeriphResetCmd
  40              	.LVL0:
 104:./Drivers/src/stm32f10x_wwdg.c ****   RCC_APB1PeriphResetCmd(RCC_APB1Periph_WWDG, DISABLE);
  41              		.loc 1 104 3 view .LVU2
  42 000c 0021     		movs	r1, #0
  43 000e 4FF40060 		mov	r0, #2048
  44 0012 FFF7FEFF 		bl	RCC_APB1PeriphResetCmd
  45              	.LVL1:
 105:./Drivers/src/stm32f10x_wwdg.c **** }
  46              		.loc 1 105 1 is_stmt 0 view .LVU3
  47 0016 08BD     		pop	{r3, pc}
  48              		.cfi_endproc
  49              	.LFE29:
  51              		.section	.text.WWDG_SetPrescaler,"ax",%progbits
  52              		.align	1
  53              		.global	WWDG_SetPrescaler
  54              		.syntax unified
  55              		.thumb
  56              		.thumb_func
  58              	WWDG_SetPrescaler:
  59              	.LVL2:
  60              	.LFB30:
 106:./Drivers/src/stm32f10x_wwdg.c **** 
 107:./Drivers/src/stm32f10x_wwdg.c **** /**
 108:./Drivers/src/stm32f10x_wwdg.c ****   * @brief  Sets the WWDG Prescaler.
 109:./Drivers/src/stm32f10x_wwdg.c ****   * @param  WWDG_Prescaler: specifies the WWDG Prescaler.
 110:./Drivers/src/stm32f10x_wwdg.c ****   *   This parameter can be one of the following values:
 111:./Drivers/src/stm32f10x_wwdg.c ****   *     @arg WWDG_Prescaler_1: WWDG counter clock = (PCLK1/4096)/1
 112:./Drivers/src/stm32f10x_wwdg.c ****   *     @arg WWDG_Prescaler_2: WWDG counter clock = (PCLK1/4096)/2
 113:./Drivers/src/stm32f10x_wwdg.c ****   *     @arg WWDG_Prescaler_4: WWDG counter clock = (PCLK1/4096)/4
 114:./Drivers/src/stm32f10x_wwdg.c ****   *     @arg WWDG_Prescaler_8: WWDG counter clock = (PCLK1/4096)/8
ARM GAS  /tmp/ccNkW2Fk.s 			page 4


 115:./Drivers/src/stm32f10x_wwdg.c ****   * @retval None
 116:./Drivers/src/stm32f10x_wwdg.c ****   */
 117:./Drivers/src/stm32f10x_wwdg.c **** void WWDG_SetPrescaler(uint32_t WWDG_Prescaler)
 118:./Drivers/src/stm32f10x_wwdg.c **** {
  61              		.loc 1 118 1 is_stmt 1 view -0
  62              		.cfi_startproc
  63              		@ args = 0, pretend = 0, frame = 0
  64              		@ frame_needed = 0, uses_anonymous_args = 0
  65              		@ link register save eliminated.
 119:./Drivers/src/stm32f10x_wwdg.c ****   uint32_t tmpreg = 0;
  66              		.loc 1 119 3 view .LVU5
 120:./Drivers/src/stm32f10x_wwdg.c ****   /* Check the parameters */
 121:./Drivers/src/stm32f10x_wwdg.c ****   assert_param(IS_WWDG_PRESCALER(WWDG_Prescaler));
  67              		.loc 1 121 3 view .LVU6
 122:./Drivers/src/stm32f10x_wwdg.c ****   /* Clear WDGTB[1:0] bits */
 123:./Drivers/src/stm32f10x_wwdg.c ****   tmpreg = WWDG->CFR & CFR_WDGTB_Mask;
  68              		.loc 1 123 3 view .LVU7
  69              		.loc 1 123 16 is_stmt 0 view .LVU8
  70 0000 034A     		ldr	r2, .L4
  71 0002 5368     		ldr	r3, [r2, #4]
  72              		.loc 1 123 10 view .LVU9
  73 0004 23F4C073 		bic	r3, r3, #384
  74              	.LVL3:
 124:./Drivers/src/stm32f10x_wwdg.c ****   /* Set WDGTB[1:0] bits according to WWDG_Prescaler value */
 125:./Drivers/src/stm32f10x_wwdg.c ****   tmpreg |= WWDG_Prescaler;
  75              		.loc 1 125 3 is_stmt 1 view .LVU10
  76              		.loc 1 125 10 is_stmt 0 view .LVU11
  77 0008 0343     		orrs	r3, r3, r0
  78              	.LVL4:
 126:./Drivers/src/stm32f10x_wwdg.c ****   /* Store the new value */
 127:./Drivers/src/stm32f10x_wwdg.c ****   WWDG->CFR = tmpreg;
  79              		.loc 1 127 3 is_stmt 1 view .LVU12
  80              		.loc 1 127 13 is_stmt 0 view .LVU13
  81 000a 5360     		str	r3, [r2, #4]
 128:./Drivers/src/stm32f10x_wwdg.c **** }
  82              		.loc 1 128 1 view .LVU14
  83 000c 7047     		bx	lr
  84              	.L5:
  85 000e 00BF     		.align	2
  86              	.L4:
  87 0010 002C0040 		.word	1073753088
  88              		.cfi_endproc
  89              	.LFE30:
  91              		.section	.text.WWDG_SetWindowValue,"ax",%progbits
  92              		.align	1
  93              		.global	WWDG_SetWindowValue
  94              		.syntax unified
  95              		.thumb
  96              		.thumb_func
  98              	WWDG_SetWindowValue:
  99              	.LVL5:
 100              	.LFB31:
 129:./Drivers/src/stm32f10x_wwdg.c **** 
 130:./Drivers/src/stm32f10x_wwdg.c **** /**
 131:./Drivers/src/stm32f10x_wwdg.c ****   * @brief  Sets the WWDG window value.
 132:./Drivers/src/stm32f10x_wwdg.c ****   * @param  WindowValue: specifies the window value to be compared to the downcounter.
 133:./Drivers/src/stm32f10x_wwdg.c ****   *   This parameter value must be lower than 0x80.
ARM GAS  /tmp/ccNkW2Fk.s 			page 5


 134:./Drivers/src/stm32f10x_wwdg.c ****   * @retval None
 135:./Drivers/src/stm32f10x_wwdg.c ****   */
 136:./Drivers/src/stm32f10x_wwdg.c **** void WWDG_SetWindowValue(uint8_t WindowValue)
 137:./Drivers/src/stm32f10x_wwdg.c **** {
 101              		.loc 1 137 1 is_stmt 1 view -0
 102              		.cfi_startproc
 103              		@ args = 0, pretend = 0, frame = 8
 104              		@ frame_needed = 0, uses_anonymous_args = 0
 105              		@ link register save eliminated.
 106              		.loc 1 137 1 is_stmt 0 view .LVU16
 107 0000 82B0     		sub	sp, sp, #8
 108              	.LCFI1:
 109              		.cfi_def_cfa_offset 8
 138:./Drivers/src/stm32f10x_wwdg.c ****   __IO uint32_t tmpreg = 0;
 110              		.loc 1 138 3 is_stmt 1 view .LVU17
 111              		.loc 1 138 17 is_stmt 0 view .LVU18
 112 0002 0023     		movs	r3, #0
 113 0004 0193     		str	r3, [sp, #4]
 139:./Drivers/src/stm32f10x_wwdg.c **** 
 140:./Drivers/src/stm32f10x_wwdg.c ****   /* Check the parameters */
 141:./Drivers/src/stm32f10x_wwdg.c ****   assert_param(IS_WWDG_WINDOW_VALUE(WindowValue));
 114              		.loc 1 141 3 is_stmt 1 view .LVU19
 142:./Drivers/src/stm32f10x_wwdg.c ****   /* Clear W[6:0] bits */
 143:./Drivers/src/stm32f10x_wwdg.c **** 
 144:./Drivers/src/stm32f10x_wwdg.c ****   tmpreg = WWDG->CFR & CFR_W_Mask;
 115              		.loc 1 144 3 view .LVU20
 116              		.loc 1 144 16 is_stmt 0 view .LVU21
 117 0006 074A     		ldr	r2, .L8
 118 0008 5368     		ldr	r3, [r2, #4]
 119              		.loc 1 144 22 view .LVU22
 120 000a 23F07F03 		bic	r3, r3, #127
 121              		.loc 1 144 10 view .LVU23
 122 000e 0193     		str	r3, [sp, #4]
 145:./Drivers/src/stm32f10x_wwdg.c **** 
 146:./Drivers/src/stm32f10x_wwdg.c ****   /* Set W[6:0] bits according to WindowValue value */
 147:./Drivers/src/stm32f10x_wwdg.c ****   tmpreg |= WindowValue & (uint32_t) BIT_Mask;
 123              		.loc 1 147 3 is_stmt 1 view .LVU24
 124              		.loc 1 147 25 is_stmt 0 view .LVU25
 125 0010 00F07F00 		and	r0, r0, #127
 126              	.LVL6:
 127              		.loc 1 147 10 view .LVU26
 128 0014 019B     		ldr	r3, [sp, #4]
 129 0016 1843     		orrs	r0, r0, r3
 130 0018 0190     		str	r0, [sp, #4]
 148:./Drivers/src/stm32f10x_wwdg.c **** 
 149:./Drivers/src/stm32f10x_wwdg.c ****   /* Store the new value */
 150:./Drivers/src/stm32f10x_wwdg.c ****   WWDG->CFR = tmpreg;
 131              		.loc 1 150 3 is_stmt 1 view .LVU27
 132              		.loc 1 150 13 is_stmt 0 view .LVU28
 133 001a 019B     		ldr	r3, [sp, #4]
 134 001c 5360     		str	r3, [r2, #4]
 151:./Drivers/src/stm32f10x_wwdg.c **** }
 135              		.loc 1 151 1 view .LVU29
 136 001e 02B0     		add	sp, sp, #8
 137              	.LCFI2:
 138              		.cfi_def_cfa_offset 0
 139              		@ sp needed
ARM GAS  /tmp/ccNkW2Fk.s 			page 6


 140 0020 7047     		bx	lr
 141              	.L9:
 142 0022 00BF     		.align	2
 143              	.L8:
 144 0024 002C0040 		.word	1073753088
 145              		.cfi_endproc
 146              	.LFE31:
 148              		.section	.text.WWDG_EnableIT,"ax",%progbits
 149              		.align	1
 150              		.global	WWDG_EnableIT
 151              		.syntax unified
 152              		.thumb
 153              		.thumb_func
 155              	WWDG_EnableIT:
 156              	.LFB32:
 152:./Drivers/src/stm32f10x_wwdg.c **** 
 153:./Drivers/src/stm32f10x_wwdg.c **** /**
 154:./Drivers/src/stm32f10x_wwdg.c ****   * @brief  Enables the WWDG Early Wakeup interrupt(EWI).
 155:./Drivers/src/stm32f10x_wwdg.c ****   * @param  None
 156:./Drivers/src/stm32f10x_wwdg.c ****   * @retval None
 157:./Drivers/src/stm32f10x_wwdg.c ****   */
 158:./Drivers/src/stm32f10x_wwdg.c **** void WWDG_EnableIT(void)
 159:./Drivers/src/stm32f10x_wwdg.c **** {
 157              		.loc 1 159 1 is_stmt 1 view -0
 158              		.cfi_startproc
 159              		@ args = 0, pretend = 0, frame = 0
 160              		@ frame_needed = 0, uses_anonymous_args = 0
 161              		@ link register save eliminated.
 160:./Drivers/src/stm32f10x_wwdg.c ****   *(__IO uint32_t *) CFR_EWI_BB = (uint32_t)ENABLE;
 162              		.loc 1 160 3 view .LVU31
 163              		.loc 1 160 33 is_stmt 0 view .LVU32
 164 0000 024B     		ldr	r3, .L11
 165 0002 0122     		movs	r2, #1
 166 0004 C3F8A420 		str	r2, [r3, #164]
 161:./Drivers/src/stm32f10x_wwdg.c **** }
 167              		.loc 1 161 1 view .LVU33
 168 0008 7047     		bx	lr
 169              	.L12:
 170 000a 00BF     		.align	2
 171              	.L11:
 172 000c 00800542 		.word	1107656704
 173              		.cfi_endproc
 174              	.LFE32:
 176              		.section	.text.WWDG_SetCounter,"ax",%progbits
 177              		.align	1
 178              		.global	WWDG_SetCounter
 179              		.syntax unified
 180              		.thumb
 181              		.thumb_func
 183              	WWDG_SetCounter:
 184              	.LVL7:
 185              	.LFB33:
 162:./Drivers/src/stm32f10x_wwdg.c **** 
 163:./Drivers/src/stm32f10x_wwdg.c **** /**
 164:./Drivers/src/stm32f10x_wwdg.c ****   * @brief  Sets the WWDG counter value.
 165:./Drivers/src/stm32f10x_wwdg.c ****   * @param  Counter: specifies the watchdog counter value.
 166:./Drivers/src/stm32f10x_wwdg.c ****   *   This parameter must be a number between 0x40 and 0x7F.
ARM GAS  /tmp/ccNkW2Fk.s 			page 7


 167:./Drivers/src/stm32f10x_wwdg.c ****   * @retval None
 168:./Drivers/src/stm32f10x_wwdg.c ****   */
 169:./Drivers/src/stm32f10x_wwdg.c **** void WWDG_SetCounter(uint8_t Counter)
 170:./Drivers/src/stm32f10x_wwdg.c **** {
 186              		.loc 1 170 1 is_stmt 1 view -0
 187              		.cfi_startproc
 188              		@ args = 0, pretend = 0, frame = 0
 189              		@ frame_needed = 0, uses_anonymous_args = 0
 190              		@ link register save eliminated.
 171:./Drivers/src/stm32f10x_wwdg.c ****   /* Check the parameters */
 172:./Drivers/src/stm32f10x_wwdg.c ****   assert_param(IS_WWDG_COUNTER(Counter));
 191              		.loc 1 172 3 view .LVU35
 173:./Drivers/src/stm32f10x_wwdg.c ****   /* Write to T[6:0] bits to configure the counter value, no need to do
 174:./Drivers/src/stm32f10x_wwdg.c ****      a read-modify-write; writing a 0 to WDGA bit does nothing */
 175:./Drivers/src/stm32f10x_wwdg.c ****   WWDG->CR = Counter & BIT_Mask;
 192              		.loc 1 175 3 view .LVU36
 193              		.loc 1 175 22 is_stmt 0 view .LVU37
 194 0000 00F07F00 		and	r0, r0, #127
 195              	.LVL8:
 196              		.loc 1 175 12 view .LVU38
 197 0004 014B     		ldr	r3, .L14
 198 0006 1860     		str	r0, [r3]
 176:./Drivers/src/stm32f10x_wwdg.c **** }
 199              		.loc 1 176 1 view .LVU39
 200 0008 7047     		bx	lr
 201              	.L15:
 202 000a 00BF     		.align	2
 203              	.L14:
 204 000c 002C0040 		.word	1073753088
 205              		.cfi_endproc
 206              	.LFE33:
 208              		.section	.text.WWDG_Enable,"ax",%progbits
 209              		.align	1
 210              		.global	WWDG_Enable
 211              		.syntax unified
 212              		.thumb
 213              		.thumb_func
 215              	WWDG_Enable:
 216              	.LVL9:
 217              	.LFB34:
 177:./Drivers/src/stm32f10x_wwdg.c **** 
 178:./Drivers/src/stm32f10x_wwdg.c **** /**
 179:./Drivers/src/stm32f10x_wwdg.c ****   * @brief  Enables WWDG and load the counter value.                  
 180:./Drivers/src/stm32f10x_wwdg.c ****   * @param  Counter: specifies the watchdog counter value.
 181:./Drivers/src/stm32f10x_wwdg.c ****   *   This parameter must be a number between 0x40 and 0x7F.
 182:./Drivers/src/stm32f10x_wwdg.c ****   * @retval None
 183:./Drivers/src/stm32f10x_wwdg.c ****   */
 184:./Drivers/src/stm32f10x_wwdg.c **** void WWDG_Enable(uint8_t Counter)
 185:./Drivers/src/stm32f10x_wwdg.c **** {
 218              		.loc 1 185 1 is_stmt 1 view -0
 219              		.cfi_startproc
 220              		@ args = 0, pretend = 0, frame = 0
 221              		@ frame_needed = 0, uses_anonymous_args = 0
 222              		@ link register save eliminated.
 186:./Drivers/src/stm32f10x_wwdg.c ****   /* Check the parameters */
 187:./Drivers/src/stm32f10x_wwdg.c ****   assert_param(IS_WWDG_COUNTER(Counter));
 223              		.loc 1 187 3 view .LVU41
ARM GAS  /tmp/ccNkW2Fk.s 			page 8


 188:./Drivers/src/stm32f10x_wwdg.c ****   WWDG->CR = CR_WDGA_Set | Counter;
 224              		.loc 1 188 3 view .LVU42
 225              		.loc 1 188 26 is_stmt 0 view .LVU43
 226 0000 40F08000 		orr	r0, r0, #128
 227              	.LVL10:
 228              		.loc 1 188 12 view .LVU44
 229 0004 014B     		ldr	r3, .L17
 230 0006 1860     		str	r0, [r3]
 189:./Drivers/src/stm32f10x_wwdg.c **** }
 231              		.loc 1 189 1 view .LVU45
 232 0008 7047     		bx	lr
 233              	.L18:
 234 000a 00BF     		.align	2
 235              	.L17:
 236 000c 002C0040 		.word	1073753088
 237              		.cfi_endproc
 238              	.LFE34:
 240              		.section	.text.WWDG_GetFlagStatus,"ax",%progbits
 241              		.align	1
 242              		.global	WWDG_GetFlagStatus
 243              		.syntax unified
 244              		.thumb
 245              		.thumb_func
 247              	WWDG_GetFlagStatus:
 248              	.LFB35:
 190:./Drivers/src/stm32f10x_wwdg.c **** 
 191:./Drivers/src/stm32f10x_wwdg.c **** /**
 192:./Drivers/src/stm32f10x_wwdg.c ****   * @brief  Checks whether the Early Wakeup interrupt flag is set or not.
 193:./Drivers/src/stm32f10x_wwdg.c ****   * @param  None
 194:./Drivers/src/stm32f10x_wwdg.c ****   * @retval The new state of the Early Wakeup interrupt flag (SET or RESET)
 195:./Drivers/src/stm32f10x_wwdg.c ****   */
 196:./Drivers/src/stm32f10x_wwdg.c **** FlagStatus WWDG_GetFlagStatus(void)
 197:./Drivers/src/stm32f10x_wwdg.c **** {
 249              		.loc 1 197 1 is_stmt 1 view -0
 250              		.cfi_startproc
 251              		@ args = 0, pretend = 0, frame = 0
 252              		@ frame_needed = 0, uses_anonymous_args = 0
 253              		@ link register save eliminated.
 198:./Drivers/src/stm32f10x_wwdg.c ****   return (FlagStatus)(WWDG->SR);
 254              		.loc 1 198 3 view .LVU47
 255              		.loc 1 198 27 is_stmt 0 view .LVU48
 256 0000 014B     		ldr	r3, .L20
 257 0002 9868     		ldr	r0, [r3, #8]
 199:./Drivers/src/stm32f10x_wwdg.c **** }
 258              		.loc 1 199 1 view .LVU49
 259 0004 C0B2     		uxtb	r0, r0
 260 0006 7047     		bx	lr
 261              	.L21:
 262              		.align	2
 263              	.L20:
 264 0008 002C0040 		.word	1073753088
 265              		.cfi_endproc
 266              	.LFE35:
 268              		.section	.text.WWDG_ClearFlag,"ax",%progbits
 269              		.align	1
 270              		.global	WWDG_ClearFlag
 271              		.syntax unified
ARM GAS  /tmp/ccNkW2Fk.s 			page 9


 272              		.thumb
 273              		.thumb_func
 275              	WWDG_ClearFlag:
 276              	.LFB36:
 200:./Drivers/src/stm32f10x_wwdg.c **** 
 201:./Drivers/src/stm32f10x_wwdg.c **** /**
 202:./Drivers/src/stm32f10x_wwdg.c ****   * @brief  Clears Early Wakeup interrupt flag.
 203:./Drivers/src/stm32f10x_wwdg.c ****   * @param  None
 204:./Drivers/src/stm32f10x_wwdg.c ****   * @retval None
 205:./Drivers/src/stm32f10x_wwdg.c ****   */
 206:./Drivers/src/stm32f10x_wwdg.c **** void WWDG_ClearFlag(void)
 207:./Drivers/src/stm32f10x_wwdg.c **** {
 277              		.loc 1 207 1 is_stmt 1 view -0
 278              		.cfi_startproc
 279              		@ args = 0, pretend = 0, frame = 0
 280              		@ frame_needed = 0, uses_anonymous_args = 0
 281              		@ link register save eliminated.
 208:./Drivers/src/stm32f10x_wwdg.c ****   WWDG->SR = (uint32_t)RESET;
 282              		.loc 1 208 3 view .LVU51
 283              		.loc 1 208 12 is_stmt 0 view .LVU52
 284 0000 014B     		ldr	r3, .L23
 285 0002 0022     		movs	r2, #0
 286 0004 9A60     		str	r2, [r3, #8]
 209:./Drivers/src/stm32f10x_wwdg.c **** }
 287              		.loc 1 209 1 view .LVU53
 288 0006 7047     		bx	lr
 289              	.L24:
 290              		.align	2
 291              	.L23:
 292 0008 002C0040 		.word	1073753088
 293              		.cfi_endproc
 294              	.LFE36:
 296              		.text
 297              	.Letext0:
 298              		.file 2 "/usr/lib/gcc/arm-none-eabi/12.2.1/include/stdint.h"
 299              		.file 3 "cmsis/stm32f10x.h"
 300              		.file 4 "Drivers/inc/stm32f10x_rcc.h"
ARM GAS  /tmp/ccNkW2Fk.s 			page 10

