ARM GAS  /tmp/ccFpkY5E.s 			page 1


   1              		.cpu cortex-m3
   2              		.eabi_attribute 20, 1
   3              		.eabi_attribute 21, 1
   4              		.eabi_attribute 23, 3
   5              		.eabi_attribute 24, 1
   6              		.eabi_attribute 25, 1
   7              		.eabi_attribute 26, 1
   8              		.eabi_attribute 30, 1
   9              		.eabi_attribute 34, 1
  10              		.eabi_attribute 18, 4
  11              		.file	"stm32f10x_it.c"
  12              		.text
  13              	.Ltext0:
  14              		.cfi_sections	.debug_frame
  15              		.section	.text.NMI_Handler,"ax",%progbits
  16              		.align	1
  17              		.global	NMI_Handler
  18              		.arch armv7-m
  19              		.syntax unified
  20              		.thumb
  21              		.thumb_func
  22              		.fpu softvfp
  24              	NMI_Handler:
  25              	.LFB29:
  26              		.file 1 "./source/stm32f10x_it.c"
   1:./source/stm32f10x_it.c **** /**
   2:./source/stm32f10x_it.c ****   ******************************************************************************
   3:./source/stm32f10x_it.c ****   * @file    GPIO/IOToggle/stm32f10x_it.c 
   4:./source/stm32f10x_it.c ****   * @author  MCD Application Team
   5:./source/stm32f10x_it.c ****   * @version V3.6.0
   6:./source/stm32f10x_it.c ****   * @date    20-September-2021
   7:./source/stm32f10x_it.c ****   * @brief   Main Interrupt Service Routines.
   8:./source/stm32f10x_it.c ****   *          This file provides template for all exceptions handler and peripherals
   9:./source/stm32f10x_it.c ****   *          interrupt service routine.
  10:./source/stm32f10x_it.c ****   ******************************************************************************
  11:./source/stm32f10x_it.c ****   * @attention
  12:./source/stm32f10x_it.c ****   *
  13:./source/stm32f10x_it.c ****   * Copyright (c) 2011 STMicroelectronics.
  14:./source/stm32f10x_it.c ****   * All rights reserved.
  15:./source/stm32f10x_it.c ****   *
  16:./source/stm32f10x_it.c ****   * This software is licensed under terms that can be found in the LICENSE file
  17:./source/stm32f10x_it.c ****   * in the root directory of this software component.
  18:./source/stm32f10x_it.c ****   * If no LICENSE file comes with this software, it is provided AS-IS.
  19:./source/stm32f10x_it.c ****   *
  20:./source/stm32f10x_it.c ****   ******************************************************************************
  21:./source/stm32f10x_it.c ****   */
  22:./source/stm32f10x_it.c **** 
  23:./source/stm32f10x_it.c **** /* Includes ------------------------------------------------------------------*/
  24:./source/stm32f10x_it.c **** #include "stm32f10x_it.h"
  25:./source/stm32f10x_it.c **** 
  26:./source/stm32f10x_it.c **** /** @addtogroup STM32F10x_StdPeriph_Examples
  27:./source/stm32f10x_it.c ****   * @{
  28:./source/stm32f10x_it.c ****   */
  29:./source/stm32f10x_it.c **** 
  30:./source/stm32f10x_it.c **** /** @addtogroup GPIO_IOToggle
  31:./source/stm32f10x_it.c ****   * @{
  32:./source/stm32f10x_it.c ****   */
ARM GAS  /tmp/ccFpkY5E.s 			page 2


  33:./source/stm32f10x_it.c **** 
  34:./source/stm32f10x_it.c **** /* Private typedef -----------------------------------------------------------*/
  35:./source/stm32f10x_it.c **** /* Private define ------------------------------------------------------------*/
  36:./source/stm32f10x_it.c **** /* Private macro -------------------------------------------------------------*/
  37:./source/stm32f10x_it.c **** /* Private variables ---------------------------------------------------------*/
  38:./source/stm32f10x_it.c **** /* Private function prototypes -----------------------------------------------*/
  39:./source/stm32f10x_it.c **** /* Private functions ---------------------------------------------------------*/
  40:./source/stm32f10x_it.c **** 
  41:./source/stm32f10x_it.c **** /******************************************************************************/
  42:./source/stm32f10x_it.c **** /*            Cortex-M3 Processor Exceptions Handlers                         */
  43:./source/stm32f10x_it.c **** /******************************************************************************/
  44:./source/stm32f10x_it.c **** 
  45:./source/stm32f10x_it.c **** /**
  46:./source/stm32f10x_it.c ****   * @brief  This function handles NMI exception.
  47:./source/stm32f10x_it.c ****   * @param  None
  48:./source/stm32f10x_it.c ****   * @retval None
  49:./source/stm32f10x_it.c ****   */
  50:./source/stm32f10x_it.c **** void NMI_Handler(void)
  51:./source/stm32f10x_it.c **** {
  27              		.loc 1 51 1 view -0
  28              		.cfi_startproc
  29              		@ args = 0, pretend = 0, frame = 0
  30              		@ frame_needed = 0, uses_anonymous_args = 0
  31              		@ link register save eliminated.
  52:./source/stm32f10x_it.c **** }
  32              		.loc 1 52 1 view .LVU1
  33 0000 7047     		bx	lr
  34              		.cfi_endproc
  35              	.LFE29:
  37              		.section	.text.HardFault_Handler,"ax",%progbits
  38              		.align	1
  39              		.global	HardFault_Handler
  40              		.syntax unified
  41              		.thumb
  42              		.thumb_func
  43              		.fpu softvfp
  45              	HardFault_Handler:
  46              	.LFB30:
  53:./source/stm32f10x_it.c **** 
  54:./source/stm32f10x_it.c **** /**
  55:./source/stm32f10x_it.c ****   * @brief  This function handles Hard Fault exception.
  56:./source/stm32f10x_it.c ****   * @param  None
  57:./source/stm32f10x_it.c ****   * @retval None
  58:./source/stm32f10x_it.c ****   */
  59:./source/stm32f10x_it.c **** void HardFault_Handler(void)
  60:./source/stm32f10x_it.c **** {
  47              		.loc 1 60 1 view -0
  48              		.cfi_startproc
  49              		@ Volatile: function does not return.
  50              		@ args = 0, pretend = 0, frame = 0
  51              		@ frame_needed = 0, uses_anonymous_args = 0
  52              		@ link register save eliminated.
  53              	.L3:
  61:./source/stm32f10x_it.c ****   /* Go to infinite loop when Hard Fault exception occurs */
  62:./source/stm32f10x_it.c ****   while (1)
  54              		.loc 1 62 3 discriminator 1 view .LVU3
  63:./source/stm32f10x_it.c ****   {
ARM GAS  /tmp/ccFpkY5E.s 			page 3


  64:./source/stm32f10x_it.c ****   }
  55              		.loc 1 64 3 discriminator 1 view .LVU4
  62:./source/stm32f10x_it.c ****   {
  56              		.loc 1 62 9 discriminator 1 view .LVU5
  57 0000 FEE7     		b	.L3
  58              		.cfi_endproc
  59              	.LFE30:
  61              		.section	.text.MemManage_Handler,"ax",%progbits
  62              		.align	1
  63              		.global	MemManage_Handler
  64              		.syntax unified
  65              		.thumb
  66              		.thumb_func
  67              		.fpu softvfp
  69              	MemManage_Handler:
  70              	.LFB31:
  65:./source/stm32f10x_it.c **** }
  66:./source/stm32f10x_it.c **** 
  67:./source/stm32f10x_it.c **** /**
  68:./source/stm32f10x_it.c ****   * @brief  This function handles Memory Manage exception.
  69:./source/stm32f10x_it.c ****   * @param  None
  70:./source/stm32f10x_it.c ****   * @retval None
  71:./source/stm32f10x_it.c ****   */
  72:./source/stm32f10x_it.c **** void MemManage_Handler(void)
  73:./source/stm32f10x_it.c **** {
  71              		.loc 1 73 1 view -0
  72              		.cfi_startproc
  73              		@ Volatile: function does not return.
  74              		@ args = 0, pretend = 0, frame = 0
  75              		@ frame_needed = 0, uses_anonymous_args = 0
  76              		@ link register save eliminated.
  77              	.L5:
  74:./source/stm32f10x_it.c ****   /* Go to infinite loop when Memory Manage exception occurs */
  75:./source/stm32f10x_it.c ****   while (1)
  78              		.loc 1 75 3 discriminator 1 view .LVU7
  76:./source/stm32f10x_it.c ****   {
  77:./source/stm32f10x_it.c ****   }
  79              		.loc 1 77 3 discriminator 1 view .LVU8
  75:./source/stm32f10x_it.c ****   {
  80              		.loc 1 75 9 discriminator 1 view .LVU9
  81 0000 FEE7     		b	.L5
  82              		.cfi_endproc
  83              	.LFE31:
  85              		.section	.text.BusFault_Handler,"ax",%progbits
  86              		.align	1
  87              		.global	BusFault_Handler
  88              		.syntax unified
  89              		.thumb
  90              		.thumb_func
  91              		.fpu softvfp
  93              	BusFault_Handler:
  94              	.LFB32:
  78:./source/stm32f10x_it.c **** }
  79:./source/stm32f10x_it.c **** 
  80:./source/stm32f10x_it.c **** /**
  81:./source/stm32f10x_it.c ****   * @brief  This function handles Bus Fault exception.
  82:./source/stm32f10x_it.c ****   * @param  None
ARM GAS  /tmp/ccFpkY5E.s 			page 4


  83:./source/stm32f10x_it.c ****   * @retval None
  84:./source/stm32f10x_it.c ****   */
  85:./source/stm32f10x_it.c **** void BusFault_Handler(void)
  86:./source/stm32f10x_it.c **** {
  95              		.loc 1 86 1 view -0
  96              		.cfi_startproc
  97              		@ Volatile: function does not return.
  98              		@ args = 0, pretend = 0, frame = 0
  99              		@ frame_needed = 0, uses_anonymous_args = 0
 100              		@ link register save eliminated.
 101              	.L7:
  87:./source/stm32f10x_it.c ****   /* Go to infinite loop when Bus Fault exception occurs */
  88:./source/stm32f10x_it.c ****   while (1)
 102              		.loc 1 88 3 discriminator 1 view .LVU11
  89:./source/stm32f10x_it.c ****   {
  90:./source/stm32f10x_it.c ****   }
 103              		.loc 1 90 3 discriminator 1 view .LVU12
  88:./source/stm32f10x_it.c ****   {
 104              		.loc 1 88 9 discriminator 1 view .LVU13
 105 0000 FEE7     		b	.L7
 106              		.cfi_endproc
 107              	.LFE32:
 109              		.section	.text.UsageFault_Handler,"ax",%progbits
 110              		.align	1
 111              		.global	UsageFault_Handler
 112              		.syntax unified
 113              		.thumb
 114              		.thumb_func
 115              		.fpu softvfp
 117              	UsageFault_Handler:
 118              	.LFB33:
  91:./source/stm32f10x_it.c **** }
  92:./source/stm32f10x_it.c **** 
  93:./source/stm32f10x_it.c **** /**
  94:./source/stm32f10x_it.c ****   * @brief  This function handles Usage Fault exception.
  95:./source/stm32f10x_it.c ****   * @param  None
  96:./source/stm32f10x_it.c ****   * @retval None
  97:./source/stm32f10x_it.c ****   */
  98:./source/stm32f10x_it.c **** void UsageFault_Handler(void)
  99:./source/stm32f10x_it.c **** {
 119              		.loc 1 99 1 view -0
 120              		.cfi_startproc
 121              		@ Volatile: function does not return.
 122              		@ args = 0, pretend = 0, frame = 0
 123              		@ frame_needed = 0, uses_anonymous_args = 0
 124              		@ link register save eliminated.
 125              	.L9:
 100:./source/stm32f10x_it.c ****   /* Go to infinite loop when Usage Fault exception occurs */
 101:./source/stm32f10x_it.c ****   while (1)
 126              		.loc 1 101 3 discriminator 1 view .LVU15
 102:./source/stm32f10x_it.c ****   {
 103:./source/stm32f10x_it.c ****   }
 127              		.loc 1 103 3 discriminator 1 view .LVU16
 101:./source/stm32f10x_it.c ****   {
 128              		.loc 1 101 9 discriminator 1 view .LVU17
 129 0000 FEE7     		b	.L9
 130              		.cfi_endproc
ARM GAS  /tmp/ccFpkY5E.s 			page 5


 131              	.LFE33:
 133              		.section	.text.SVC_Handler,"ax",%progbits
 134              		.align	1
 135              		.global	SVC_Handler
 136              		.syntax unified
 137              		.thumb
 138              		.thumb_func
 139              		.fpu softvfp
 141              	SVC_Handler:
 142              	.LFB34:
 104:./source/stm32f10x_it.c **** }
 105:./source/stm32f10x_it.c **** 
 106:./source/stm32f10x_it.c **** /**
 107:./source/stm32f10x_it.c ****   * @brief  This function handles SVCall exception.
 108:./source/stm32f10x_it.c ****   * @param  None
 109:./source/stm32f10x_it.c ****   * @retval None
 110:./source/stm32f10x_it.c ****   */
 111:./source/stm32f10x_it.c **** void SVC_Handler(void)
 112:./source/stm32f10x_it.c **** {
 143              		.loc 1 112 1 view -0
 144              		.cfi_startproc
 145              		@ args = 0, pretend = 0, frame = 0
 146              		@ frame_needed = 0, uses_anonymous_args = 0
 147              		@ link register save eliminated.
 113:./source/stm32f10x_it.c **** }
 148              		.loc 1 113 1 view .LVU19
 149 0000 7047     		bx	lr
 150              		.cfi_endproc
 151              	.LFE34:
 153              		.section	.text.DebugMon_Handler,"ax",%progbits
 154              		.align	1
 155              		.global	DebugMon_Handler
 156              		.syntax unified
 157              		.thumb
 158              		.thumb_func
 159              		.fpu softvfp
 161              	DebugMon_Handler:
 162              	.LFB35:
 114:./source/stm32f10x_it.c **** 
 115:./source/stm32f10x_it.c **** /**
 116:./source/stm32f10x_it.c ****   * @brief  This function handles Debug Monitor exception.
 117:./source/stm32f10x_it.c ****   * @param  None
 118:./source/stm32f10x_it.c ****   * @retval None
 119:./source/stm32f10x_it.c ****   */
 120:./source/stm32f10x_it.c **** void DebugMon_Handler(void)
 121:./source/stm32f10x_it.c **** {
 163              		.loc 1 121 1 view -0
 164              		.cfi_startproc
 165              		@ args = 0, pretend = 0, frame = 0
 166              		@ frame_needed = 0, uses_anonymous_args = 0
 167              		@ link register save eliminated.
 122:./source/stm32f10x_it.c **** }
 168              		.loc 1 122 1 view .LVU21
 169 0000 7047     		bx	lr
 170              		.cfi_endproc
 171              	.LFE35:
 173              		.section	.text.PendSV_Handler,"ax",%progbits
ARM GAS  /tmp/ccFpkY5E.s 			page 6


 174              		.align	1
 175              		.global	PendSV_Handler
 176              		.syntax unified
 177              		.thumb
 178              		.thumb_func
 179              		.fpu softvfp
 181              	PendSV_Handler:
 182              	.LFB36:
 123:./source/stm32f10x_it.c **** 
 124:./source/stm32f10x_it.c **** /**
 125:./source/stm32f10x_it.c ****   * @brief  This function handles PendSV_Handler exception.
 126:./source/stm32f10x_it.c ****   * @param  None
 127:./source/stm32f10x_it.c ****   * @retval None
 128:./source/stm32f10x_it.c ****   */
 129:./source/stm32f10x_it.c **** void PendSV_Handler(void)
 130:./source/stm32f10x_it.c **** {
 183              		.loc 1 130 1 view -0
 184              		.cfi_startproc
 185              		@ args = 0, pretend = 0, frame = 0
 186              		@ frame_needed = 0, uses_anonymous_args = 0
 187              		@ link register save eliminated.
 131:./source/stm32f10x_it.c **** }
 188              		.loc 1 131 1 view .LVU23
 189 0000 7047     		bx	lr
 190              		.cfi_endproc
 191              	.LFE36:
 193              		.section	.text.SysTick_Handler,"ax",%progbits
 194              		.align	1
 195              		.global	SysTick_Handler
 196              		.syntax unified
 197              		.thumb
 198              		.thumb_func
 199              		.fpu softvfp
 201              	SysTick_Handler:
 202              	.LFB37:
 132:./source/stm32f10x_it.c **** 
 133:./source/stm32f10x_it.c **** /**
 134:./source/stm32f10x_it.c ****   * @brief  This function handles SysTick Handler.
 135:./source/stm32f10x_it.c ****   * @param  None
 136:./source/stm32f10x_it.c ****   * @retval None
 137:./source/stm32f10x_it.c ****   */
 138:./source/stm32f10x_it.c **** void SysTick_Handler(void)
 139:./source/stm32f10x_it.c **** {
 203              		.loc 1 139 1 view -0
 204              		.cfi_startproc
 205              		@ args = 0, pretend = 0, frame = 0
 206              		@ frame_needed = 0, uses_anonymous_args = 0
 207              		@ link register save eliminated.
 140:./source/stm32f10x_it.c **** }
 208              		.loc 1 140 1 view .LVU25
 209 0000 7047     		bx	lr
 210              		.cfi_endproc
 211              	.LFE37:
 213              		.text
 214              	.Letext0:
 215              		.file 2 "cmsis/core_cm3.h"
 216              		.file 3 "cmsis/system_stm32f10x.h"
ARM GAS  /tmp/ccFpkY5E.s 			page 7


 217              		.file 4 "/usr/lib/gcc/arm-none-eabi/9.2.1/include/stdint.h"
ARM GAS  /tmp/ccFpkY5E.s 			page 8

