ARM GAS  /tmp/ccj0ChJy.s 			page 1


   1              		.cpu cortex-m3
   2              		.arch armv7-m
   3              		.fpu softvfp
   4              		.eabi_attribute 20, 1
   5              		.eabi_attribute 21, 1
   6              		.eabi_attribute 23, 3
   7              		.eabi_attribute 24, 1
   8              		.eabi_attribute 25, 1
   9              		.eabi_attribute 26, 1
  10              		.eabi_attribute 30, 1
  11              		.eabi_attribute 34, 1
  12              		.eabi_attribute 18, 4
  13              		.file	"stm32f10x_dma.c"
  14              		.text
  15              	.Ltext0:
  16              		.cfi_sections	.debug_frame
  17              		.file 1 "./Drivers/src/stm32f10x_dma.c"
  18              		.section	.text.DMA_DeInit,"ax",%progbits
  19              		.align	1
  20              		.global	DMA_DeInit
  21              		.syntax unified
  22              		.thumb
  23              		.thumb_func
  25              	DMA_DeInit:
  26              	.LVL0:
  27              	.LFB29:
   1:./Drivers/src/stm32f10x_dma.c **** /**
   2:./Drivers/src/stm32f10x_dma.c ****   ******************************************************************************
   3:./Drivers/src/stm32f10x_dma.c ****   * @file    stm32f10x_dma.c
   4:./Drivers/src/stm32f10x_dma.c ****   * @author  MCD Application Team
   5:./Drivers/src/stm32f10x_dma.c ****   * @version V3.6.2
   6:./Drivers/src/stm32f10x_dma.c ****   * @date    17-September-2021
   7:./Drivers/src/stm32f10x_dma.c ****   * @brief   This file provides all the DMA firmware functions.
   8:./Drivers/src/stm32f10x_dma.c ****   ******************************************************************************
   9:./Drivers/src/stm32f10x_dma.c ****   * @attention
  10:./Drivers/src/stm32f10x_dma.c ****   *
  11:./Drivers/src/stm32f10x_dma.c ****   * Copyright (c) 2012 STMicroelectronics.
  12:./Drivers/src/stm32f10x_dma.c ****   * All rights reserved.
  13:./Drivers/src/stm32f10x_dma.c ****   *
  14:./Drivers/src/stm32f10x_dma.c ****   * This software is licensed under terms that can be found in the LICENSE file
  15:./Drivers/src/stm32f10x_dma.c ****   * in the root directory of this software component.
  16:./Drivers/src/stm32f10x_dma.c ****   * If no LICENSE file comes with this software, it is provided AS-IS.
  17:./Drivers/src/stm32f10x_dma.c ****   *
  18:./Drivers/src/stm32f10x_dma.c ****   ******************************************************************************
  19:./Drivers/src/stm32f10x_dma.c ****   */
  20:./Drivers/src/stm32f10x_dma.c **** 
  21:./Drivers/src/stm32f10x_dma.c **** /* Includes ------------------------------------------------------------------*/
  22:./Drivers/src/stm32f10x_dma.c **** #include "stm32f10x_dma.h"
  23:./Drivers/src/stm32f10x_dma.c **** #include "stm32f10x_rcc.h"
  24:./Drivers/src/stm32f10x_dma.c **** 
  25:./Drivers/src/stm32f10x_dma.c **** /** @addtogroup STM32F10x_StdPeriph_Driver
  26:./Drivers/src/stm32f10x_dma.c ****   * @{
  27:./Drivers/src/stm32f10x_dma.c ****   */
  28:./Drivers/src/stm32f10x_dma.c **** 
  29:./Drivers/src/stm32f10x_dma.c **** /** @defgroup DMA 
  30:./Drivers/src/stm32f10x_dma.c ****   * @brief DMA driver modules
  31:./Drivers/src/stm32f10x_dma.c ****   * @{
ARM GAS  /tmp/ccj0ChJy.s 			page 2


  32:./Drivers/src/stm32f10x_dma.c ****   */ 
  33:./Drivers/src/stm32f10x_dma.c **** 
  34:./Drivers/src/stm32f10x_dma.c **** /** @defgroup DMA_Private_TypesDefinitions
  35:./Drivers/src/stm32f10x_dma.c ****   * @{
  36:./Drivers/src/stm32f10x_dma.c ****   */ 
  37:./Drivers/src/stm32f10x_dma.c **** /**
  38:./Drivers/src/stm32f10x_dma.c ****   * @}
  39:./Drivers/src/stm32f10x_dma.c ****   */
  40:./Drivers/src/stm32f10x_dma.c **** 
  41:./Drivers/src/stm32f10x_dma.c **** /** @defgroup DMA_Private_Defines
  42:./Drivers/src/stm32f10x_dma.c ****   * @{
  43:./Drivers/src/stm32f10x_dma.c ****   */
  44:./Drivers/src/stm32f10x_dma.c **** 
  45:./Drivers/src/stm32f10x_dma.c **** 
  46:./Drivers/src/stm32f10x_dma.c **** /* DMA1 Channelx interrupt pending bit masks */
  47:./Drivers/src/stm32f10x_dma.c **** #define DMA1_Channel1_IT_Mask    ((uint32_t)(DMA_ISR_GIF1 | DMA_ISR_TCIF1 | DMA_ISR_HTIF1 | DMA_ISR
  48:./Drivers/src/stm32f10x_dma.c **** #define DMA1_Channel2_IT_Mask    ((uint32_t)(DMA_ISR_GIF2 | DMA_ISR_TCIF2 | DMA_ISR_HTIF2 | DMA_ISR
  49:./Drivers/src/stm32f10x_dma.c **** #define DMA1_Channel3_IT_Mask    ((uint32_t)(DMA_ISR_GIF3 | DMA_ISR_TCIF3 | DMA_ISR_HTIF3 | DMA_ISR
  50:./Drivers/src/stm32f10x_dma.c **** #define DMA1_Channel4_IT_Mask    ((uint32_t)(DMA_ISR_GIF4 | DMA_ISR_TCIF4 | DMA_ISR_HTIF4 | DMA_ISR
  51:./Drivers/src/stm32f10x_dma.c **** #define DMA1_Channel5_IT_Mask    ((uint32_t)(DMA_ISR_GIF5 | DMA_ISR_TCIF5 | DMA_ISR_HTIF5 | DMA_ISR
  52:./Drivers/src/stm32f10x_dma.c **** #define DMA1_Channel6_IT_Mask    ((uint32_t)(DMA_ISR_GIF6 | DMA_ISR_TCIF6 | DMA_ISR_HTIF6 | DMA_ISR
  53:./Drivers/src/stm32f10x_dma.c **** #define DMA1_Channel7_IT_Mask    ((uint32_t)(DMA_ISR_GIF7 | DMA_ISR_TCIF7 | DMA_ISR_HTIF7 | DMA_ISR
  54:./Drivers/src/stm32f10x_dma.c **** 
  55:./Drivers/src/stm32f10x_dma.c **** /* DMA2 Channelx interrupt pending bit masks */
  56:./Drivers/src/stm32f10x_dma.c **** #define DMA2_Channel1_IT_Mask    ((uint32_t)(DMA_ISR_GIF1 | DMA_ISR_TCIF1 | DMA_ISR_HTIF1 | DMA_ISR
  57:./Drivers/src/stm32f10x_dma.c **** #define DMA2_Channel2_IT_Mask    ((uint32_t)(DMA_ISR_GIF2 | DMA_ISR_TCIF2 | DMA_ISR_HTIF2 | DMA_ISR
  58:./Drivers/src/stm32f10x_dma.c **** #define DMA2_Channel3_IT_Mask    ((uint32_t)(DMA_ISR_GIF3 | DMA_ISR_TCIF3 | DMA_ISR_HTIF3 | DMA_ISR
  59:./Drivers/src/stm32f10x_dma.c **** #define DMA2_Channel4_IT_Mask    ((uint32_t)(DMA_ISR_GIF4 | DMA_ISR_TCIF4 | DMA_ISR_HTIF4 | DMA_ISR
  60:./Drivers/src/stm32f10x_dma.c **** #define DMA2_Channel5_IT_Mask    ((uint32_t)(DMA_ISR_GIF5 | DMA_ISR_TCIF5 | DMA_ISR_HTIF5 | DMA_ISR
  61:./Drivers/src/stm32f10x_dma.c **** 
  62:./Drivers/src/stm32f10x_dma.c **** /* DMA2 FLAG mask */
  63:./Drivers/src/stm32f10x_dma.c **** #define FLAG_Mask                ((uint32_t)0x10000000)
  64:./Drivers/src/stm32f10x_dma.c **** 
  65:./Drivers/src/stm32f10x_dma.c **** /* DMA registers Masks */
  66:./Drivers/src/stm32f10x_dma.c **** #define CCR_CLEAR_Mask           ((uint32_t)0xFFFF800F)
  67:./Drivers/src/stm32f10x_dma.c **** 
  68:./Drivers/src/stm32f10x_dma.c **** /**
  69:./Drivers/src/stm32f10x_dma.c ****   * @}
  70:./Drivers/src/stm32f10x_dma.c ****   */
  71:./Drivers/src/stm32f10x_dma.c **** 
  72:./Drivers/src/stm32f10x_dma.c **** /** @defgroup DMA_Private_Macros
  73:./Drivers/src/stm32f10x_dma.c ****   * @{
  74:./Drivers/src/stm32f10x_dma.c ****   */
  75:./Drivers/src/stm32f10x_dma.c **** 
  76:./Drivers/src/stm32f10x_dma.c **** /**
  77:./Drivers/src/stm32f10x_dma.c ****   * @}
  78:./Drivers/src/stm32f10x_dma.c ****   */
  79:./Drivers/src/stm32f10x_dma.c **** 
  80:./Drivers/src/stm32f10x_dma.c **** /** @defgroup DMA_Private_Variables
  81:./Drivers/src/stm32f10x_dma.c ****   * @{
  82:./Drivers/src/stm32f10x_dma.c ****   */
  83:./Drivers/src/stm32f10x_dma.c **** 
  84:./Drivers/src/stm32f10x_dma.c **** /**
  85:./Drivers/src/stm32f10x_dma.c ****   * @}
  86:./Drivers/src/stm32f10x_dma.c ****   */
  87:./Drivers/src/stm32f10x_dma.c **** 
  88:./Drivers/src/stm32f10x_dma.c **** /** @defgroup DMA_Private_FunctionPrototypes
ARM GAS  /tmp/ccj0ChJy.s 			page 3


  89:./Drivers/src/stm32f10x_dma.c ****   * @{
  90:./Drivers/src/stm32f10x_dma.c ****   */
  91:./Drivers/src/stm32f10x_dma.c **** 
  92:./Drivers/src/stm32f10x_dma.c **** /**
  93:./Drivers/src/stm32f10x_dma.c ****   * @}
  94:./Drivers/src/stm32f10x_dma.c ****   */
  95:./Drivers/src/stm32f10x_dma.c **** 
  96:./Drivers/src/stm32f10x_dma.c **** /** @defgroup DMA_Private_Functions
  97:./Drivers/src/stm32f10x_dma.c ****   * @{
  98:./Drivers/src/stm32f10x_dma.c ****   */
  99:./Drivers/src/stm32f10x_dma.c **** 
 100:./Drivers/src/stm32f10x_dma.c **** /**
 101:./Drivers/src/stm32f10x_dma.c ****   * @brief  Deinitializes the DMAy Channelx registers to their default reset
 102:./Drivers/src/stm32f10x_dma.c ****   *         values.
 103:./Drivers/src/stm32f10x_dma.c ****   * @param  DMAy_Channelx: where y can be 1 or 2 to select the DMA and
 104:./Drivers/src/stm32f10x_dma.c ****   *   x can be 1 to 7 for DMA1 and 1 to 5 for DMA2 to select the DMA Channel.
 105:./Drivers/src/stm32f10x_dma.c ****   * @retval None
 106:./Drivers/src/stm32f10x_dma.c ****   */
 107:./Drivers/src/stm32f10x_dma.c **** void DMA_DeInit(DMA_Channel_TypeDef* DMAy_Channelx)
 108:./Drivers/src/stm32f10x_dma.c **** {
  28              		.loc 1 108 1 view -0
  29              		.cfi_startproc
  30              		@ args = 0, pretend = 0, frame = 0
  31              		@ frame_needed = 0, uses_anonymous_args = 0
  32              		@ link register save eliminated.
 109:./Drivers/src/stm32f10x_dma.c ****   /* Check the parameters */
 110:./Drivers/src/stm32f10x_dma.c ****   assert_param(IS_DMA_ALL_PERIPH(DMAy_Channelx));
  33              		.loc 1 110 3 view .LVU1
 111:./Drivers/src/stm32f10x_dma.c ****   
 112:./Drivers/src/stm32f10x_dma.c ****   /* Disable the selected DMAy Channelx */
 113:./Drivers/src/stm32f10x_dma.c ****   DMAy_Channelx->CCR &= (uint16_t)(~DMA_CCR1_EN);
  34              		.loc 1 113 3 view .LVU2
  35              		.loc 1 113 16 is_stmt 0 view .LVU3
  36 0000 0368     		ldr	r3, [r0]
  37              		.loc 1 113 22 view .LVU4
  38 0002 23F00103 		bic	r3, r3, #1
  39 0006 1B04     		lsls	r3, r3, #16
  40 0008 1B0C     		lsrs	r3, r3, #16
  41 000a 0360     		str	r3, [r0]
 114:./Drivers/src/stm32f10x_dma.c ****   
 115:./Drivers/src/stm32f10x_dma.c ****   /* Reset DMAy Channelx control register */
 116:./Drivers/src/stm32f10x_dma.c ****   DMAy_Channelx->CCR  = 0;
  42              		.loc 1 116 3 is_stmt 1 view .LVU5
  43              		.loc 1 116 23 is_stmt 0 view .LVU6
  44 000c 0023     		movs	r3, #0
  45 000e 0360     		str	r3, [r0]
 117:./Drivers/src/stm32f10x_dma.c ****   
 118:./Drivers/src/stm32f10x_dma.c ****   /* Reset DMAy Channelx remaining bytes register */
 119:./Drivers/src/stm32f10x_dma.c ****   DMAy_Channelx->CNDTR = 0;
  46              		.loc 1 119 3 is_stmt 1 view .LVU7
  47              		.loc 1 119 24 is_stmt 0 view .LVU8
  48 0010 4360     		str	r3, [r0, #4]
 120:./Drivers/src/stm32f10x_dma.c ****   
 121:./Drivers/src/stm32f10x_dma.c ****   /* Reset DMAy Channelx peripheral address register */
 122:./Drivers/src/stm32f10x_dma.c ****   DMAy_Channelx->CPAR  = 0;
  49              		.loc 1 122 3 is_stmt 1 view .LVU9
  50              		.loc 1 122 24 is_stmt 0 view .LVU10
ARM GAS  /tmp/ccj0ChJy.s 			page 4


  51 0012 8360     		str	r3, [r0, #8]
 123:./Drivers/src/stm32f10x_dma.c ****   
 124:./Drivers/src/stm32f10x_dma.c ****   /* Reset DMAy Channelx memory address register */
 125:./Drivers/src/stm32f10x_dma.c ****   DMAy_Channelx->CMAR = 0;
  52              		.loc 1 125 3 is_stmt 1 view .LVU11
  53              		.loc 1 125 23 is_stmt 0 view .LVU12
  54 0014 C360     		str	r3, [r0, #12]
 126:./Drivers/src/stm32f10x_dma.c ****   
 127:./Drivers/src/stm32f10x_dma.c ****   if (DMAy_Channelx == DMA1_Channel1)
  55              		.loc 1 127 3 is_stmt 1 view .LVU13
  56              		.loc 1 127 6 is_stmt 0 view .LVU14
  57 0016 364B     		ldr	r3, .L26
  58 0018 9842     		cmp	r0, r3
  59 001a 21D0     		beq	.L14
 128:./Drivers/src/stm32f10x_dma.c ****   {
 129:./Drivers/src/stm32f10x_dma.c ****     /* Reset interrupt pending bits for DMA1 Channel1 */
 130:./Drivers/src/stm32f10x_dma.c ****     DMA1->IFCR |= DMA1_Channel1_IT_Mask;
 131:./Drivers/src/stm32f10x_dma.c ****   }
 132:./Drivers/src/stm32f10x_dma.c ****   else if (DMAy_Channelx == DMA1_Channel2)
  60              		.loc 1 132 8 is_stmt 1 view .LVU15
  61              		.loc 1 132 11 is_stmt 0 view .LVU16
  62 001c 354B     		ldr	r3, .L26+4
  63 001e 9842     		cmp	r0, r3
  64 0020 24D0     		beq	.L15
 133:./Drivers/src/stm32f10x_dma.c ****   {
 134:./Drivers/src/stm32f10x_dma.c ****     /* Reset interrupt pending bits for DMA1 Channel2 */
 135:./Drivers/src/stm32f10x_dma.c ****     DMA1->IFCR |= DMA1_Channel2_IT_Mask;
 136:./Drivers/src/stm32f10x_dma.c ****   }
 137:./Drivers/src/stm32f10x_dma.c ****   else if (DMAy_Channelx == DMA1_Channel3)
  65              		.loc 1 137 8 is_stmt 1 view .LVU17
  66              		.loc 1 137 11 is_stmt 0 view .LVU18
  67 0022 354B     		ldr	r3, .L26+8
  68 0024 9842     		cmp	r0, r3
  69 0026 27D0     		beq	.L16
 138:./Drivers/src/stm32f10x_dma.c ****   {
 139:./Drivers/src/stm32f10x_dma.c ****     /* Reset interrupt pending bits for DMA1 Channel3 */
 140:./Drivers/src/stm32f10x_dma.c ****     DMA1->IFCR |= DMA1_Channel3_IT_Mask;
 141:./Drivers/src/stm32f10x_dma.c ****   }
 142:./Drivers/src/stm32f10x_dma.c ****   else if (DMAy_Channelx == DMA1_Channel4)
  70              		.loc 1 142 8 is_stmt 1 view .LVU19
  71              		.loc 1 142 11 is_stmt 0 view .LVU20
  72 0028 344B     		ldr	r3, .L26+12
  73 002a 9842     		cmp	r0, r3
  74 002c 2AD0     		beq	.L17
 143:./Drivers/src/stm32f10x_dma.c ****   {
 144:./Drivers/src/stm32f10x_dma.c ****     /* Reset interrupt pending bits for DMA1 Channel4 */
 145:./Drivers/src/stm32f10x_dma.c ****     DMA1->IFCR |= DMA1_Channel4_IT_Mask;
 146:./Drivers/src/stm32f10x_dma.c ****   }
 147:./Drivers/src/stm32f10x_dma.c ****   else if (DMAy_Channelx == DMA1_Channel5)
  75              		.loc 1 147 8 is_stmt 1 view .LVU21
  76              		.loc 1 147 11 is_stmt 0 view .LVU22
  77 002e 344B     		ldr	r3, .L26+16
  78 0030 9842     		cmp	r0, r3
  79 0032 2DD0     		beq	.L18
 148:./Drivers/src/stm32f10x_dma.c ****   {
 149:./Drivers/src/stm32f10x_dma.c ****     /* Reset interrupt pending bits for DMA1 Channel5 */
 150:./Drivers/src/stm32f10x_dma.c ****     DMA1->IFCR |= DMA1_Channel5_IT_Mask;
ARM GAS  /tmp/ccj0ChJy.s 			page 5


 151:./Drivers/src/stm32f10x_dma.c ****   }
 152:./Drivers/src/stm32f10x_dma.c ****   else if (DMAy_Channelx == DMA1_Channel6)
  80              		.loc 1 152 8 is_stmt 1 view .LVU23
  81              		.loc 1 152 11 is_stmt 0 view .LVU24
  82 0034 334B     		ldr	r3, .L26+20
  83 0036 9842     		cmp	r0, r3
  84 0038 30D0     		beq	.L19
 153:./Drivers/src/stm32f10x_dma.c ****   {
 154:./Drivers/src/stm32f10x_dma.c ****     /* Reset interrupt pending bits for DMA1 Channel6 */
 155:./Drivers/src/stm32f10x_dma.c ****     DMA1->IFCR |= DMA1_Channel6_IT_Mask;
 156:./Drivers/src/stm32f10x_dma.c ****   }
 157:./Drivers/src/stm32f10x_dma.c ****   else if (DMAy_Channelx == DMA1_Channel7)
  85              		.loc 1 157 8 is_stmt 1 view .LVU25
  86              		.loc 1 157 11 is_stmt 0 view .LVU26
  87 003a 334B     		ldr	r3, .L26+24
  88 003c 9842     		cmp	r0, r3
  89 003e 33D0     		beq	.L20
 158:./Drivers/src/stm32f10x_dma.c ****   {
 159:./Drivers/src/stm32f10x_dma.c ****     /* Reset interrupt pending bits for DMA1 Channel7 */
 160:./Drivers/src/stm32f10x_dma.c ****     DMA1->IFCR |= DMA1_Channel7_IT_Mask;
 161:./Drivers/src/stm32f10x_dma.c ****   }
 162:./Drivers/src/stm32f10x_dma.c ****   else if (DMAy_Channelx == DMA2_Channel1)
  90              		.loc 1 162 8 is_stmt 1 view .LVU27
  91              		.loc 1 162 11 is_stmt 0 view .LVU28
  92 0040 324B     		ldr	r3, .L26+28
  93 0042 9842     		cmp	r0, r3
  94 0044 36D0     		beq	.L21
 163:./Drivers/src/stm32f10x_dma.c ****   {
 164:./Drivers/src/stm32f10x_dma.c ****     /* Reset interrupt pending bits for DMA2 Channel1 */
 165:./Drivers/src/stm32f10x_dma.c ****     DMA2->IFCR |= DMA2_Channel1_IT_Mask;
 166:./Drivers/src/stm32f10x_dma.c ****   }
 167:./Drivers/src/stm32f10x_dma.c ****   else if (DMAy_Channelx == DMA2_Channel2)
  95              		.loc 1 167 8 is_stmt 1 view .LVU29
  96              		.loc 1 167 11 is_stmt 0 view .LVU30
  97 0046 324B     		ldr	r3, .L26+32
  98 0048 9842     		cmp	r0, r3
  99 004a 39D0     		beq	.L22
 168:./Drivers/src/stm32f10x_dma.c ****   {
 169:./Drivers/src/stm32f10x_dma.c ****     /* Reset interrupt pending bits for DMA2 Channel2 */
 170:./Drivers/src/stm32f10x_dma.c ****     DMA2->IFCR |= DMA2_Channel2_IT_Mask;
 171:./Drivers/src/stm32f10x_dma.c ****   }
 172:./Drivers/src/stm32f10x_dma.c ****   else if (DMAy_Channelx == DMA2_Channel3)
 100              		.loc 1 172 8 is_stmt 1 view .LVU31
 101              		.loc 1 172 11 is_stmt 0 view .LVU32
 102 004c 314B     		ldr	r3, .L26+36
 103 004e 9842     		cmp	r0, r3
 104 0050 3CD0     		beq	.L23
 173:./Drivers/src/stm32f10x_dma.c ****   {
 174:./Drivers/src/stm32f10x_dma.c ****     /* Reset interrupt pending bits for DMA2 Channel3 */
 175:./Drivers/src/stm32f10x_dma.c ****     DMA2->IFCR |= DMA2_Channel3_IT_Mask;
 176:./Drivers/src/stm32f10x_dma.c ****   }
 177:./Drivers/src/stm32f10x_dma.c ****   else if (DMAy_Channelx == DMA2_Channel4)
 105              		.loc 1 177 8 is_stmt 1 view .LVU33
 106              		.loc 1 177 11 is_stmt 0 view .LVU34
 107 0052 314B     		ldr	r3, .L26+40
 108 0054 9842     		cmp	r0, r3
 109 0056 3FD0     		beq	.L24
ARM GAS  /tmp/ccj0ChJy.s 			page 6


 178:./Drivers/src/stm32f10x_dma.c ****   {
 179:./Drivers/src/stm32f10x_dma.c ****     /* Reset interrupt pending bits for DMA2 Channel4 */
 180:./Drivers/src/stm32f10x_dma.c ****     DMA2->IFCR |= DMA2_Channel4_IT_Mask;
 181:./Drivers/src/stm32f10x_dma.c ****   }
 182:./Drivers/src/stm32f10x_dma.c ****   else
 183:./Drivers/src/stm32f10x_dma.c ****   { 
 184:./Drivers/src/stm32f10x_dma.c ****     if (DMAy_Channelx == DMA2_Channel5)
 110              		.loc 1 184 5 is_stmt 1 view .LVU35
 111              		.loc 1 184 8 is_stmt 0 view .LVU36
 112 0058 304B     		ldr	r3, .L26+44
 113 005a 9842     		cmp	r0, r3
 114 005c 42D0     		beq	.L25
 115              	.L1:
 185:./Drivers/src/stm32f10x_dma.c ****     {
 186:./Drivers/src/stm32f10x_dma.c ****       /* Reset interrupt pending bits for DMA2 Channel5 */
 187:./Drivers/src/stm32f10x_dma.c ****       DMA2->IFCR |= DMA2_Channel5_IT_Mask;
 188:./Drivers/src/stm32f10x_dma.c ****     }
 189:./Drivers/src/stm32f10x_dma.c ****   }
 190:./Drivers/src/stm32f10x_dma.c **** }
 116              		.loc 1 190 1 view .LVU37
 117 005e 7047     		bx	lr
 118              	.L14:
 130:./Drivers/src/stm32f10x_dma.c ****   }
 119              		.loc 1 130 5 is_stmt 1 view .LVU38
 130:./Drivers/src/stm32f10x_dma.c ****   }
 120              		.loc 1 130 9 is_stmt 0 view .LVU39
 121 0060 2F4A     		ldr	r2, .L26+48
 122 0062 5368     		ldr	r3, [r2, #4]
 130:./Drivers/src/stm32f10x_dma.c ****   }
 123              		.loc 1 130 16 view .LVU40
 124 0064 43F00F03 		orr	r3, r3, #15
 125 0068 5360     		str	r3, [r2, #4]
 126 006a 7047     		bx	lr
 127              	.L15:
 135:./Drivers/src/stm32f10x_dma.c ****   }
 128              		.loc 1 135 5 is_stmt 1 view .LVU41
 135:./Drivers/src/stm32f10x_dma.c ****   }
 129              		.loc 1 135 9 is_stmt 0 view .LVU42
 130 006c 2C4A     		ldr	r2, .L26+48
 131 006e 5368     		ldr	r3, [r2, #4]
 135:./Drivers/src/stm32f10x_dma.c ****   }
 132              		.loc 1 135 16 view .LVU43
 133 0070 43F0F003 		orr	r3, r3, #240
 134 0074 5360     		str	r3, [r2, #4]
 135 0076 7047     		bx	lr
 136              	.L16:
 140:./Drivers/src/stm32f10x_dma.c ****   }
 137              		.loc 1 140 5 is_stmt 1 view .LVU44
 140:./Drivers/src/stm32f10x_dma.c ****   }
 138              		.loc 1 140 9 is_stmt 0 view .LVU45
 139 0078 294A     		ldr	r2, .L26+48
 140 007a 5368     		ldr	r3, [r2, #4]
 140:./Drivers/src/stm32f10x_dma.c ****   }
 141              		.loc 1 140 16 view .LVU46
 142 007c 43F47063 		orr	r3, r3, #3840
 143 0080 5360     		str	r3, [r2, #4]
 144 0082 7047     		bx	lr
ARM GAS  /tmp/ccj0ChJy.s 			page 7


 145              	.L17:
 145:./Drivers/src/stm32f10x_dma.c ****   }
 146              		.loc 1 145 5 is_stmt 1 view .LVU47
 145:./Drivers/src/stm32f10x_dma.c ****   }
 147              		.loc 1 145 9 is_stmt 0 view .LVU48
 148 0084 264A     		ldr	r2, .L26+48
 149 0086 5368     		ldr	r3, [r2, #4]
 145:./Drivers/src/stm32f10x_dma.c ****   }
 150              		.loc 1 145 16 view .LVU49
 151 0088 43F47043 		orr	r3, r3, #61440
 152 008c 5360     		str	r3, [r2, #4]
 153 008e 7047     		bx	lr
 154              	.L18:
 150:./Drivers/src/stm32f10x_dma.c ****   }
 155              		.loc 1 150 5 is_stmt 1 view .LVU50
 150:./Drivers/src/stm32f10x_dma.c ****   }
 156              		.loc 1 150 9 is_stmt 0 view .LVU51
 157 0090 234A     		ldr	r2, .L26+48
 158 0092 5368     		ldr	r3, [r2, #4]
 150:./Drivers/src/stm32f10x_dma.c ****   }
 159              		.loc 1 150 16 view .LVU52
 160 0094 43F47023 		orr	r3, r3, #983040
 161 0098 5360     		str	r3, [r2, #4]
 162 009a 7047     		bx	lr
 163              	.L19:
 155:./Drivers/src/stm32f10x_dma.c ****   }
 164              		.loc 1 155 5 is_stmt 1 view .LVU53
 155:./Drivers/src/stm32f10x_dma.c ****   }
 165              		.loc 1 155 9 is_stmt 0 view .LVU54
 166 009c 204A     		ldr	r2, .L26+48
 167 009e 5368     		ldr	r3, [r2, #4]
 155:./Drivers/src/stm32f10x_dma.c ****   }
 168              		.loc 1 155 16 view .LVU55
 169 00a0 43F47003 		orr	r3, r3, #15728640
 170 00a4 5360     		str	r3, [r2, #4]
 171 00a6 7047     		bx	lr
 172              	.L20:
 160:./Drivers/src/stm32f10x_dma.c ****   }
 173              		.loc 1 160 5 is_stmt 1 view .LVU56
 160:./Drivers/src/stm32f10x_dma.c ****   }
 174              		.loc 1 160 9 is_stmt 0 view .LVU57
 175 00a8 1D4A     		ldr	r2, .L26+48
 176 00aa 5368     		ldr	r3, [r2, #4]
 160:./Drivers/src/stm32f10x_dma.c ****   }
 177              		.loc 1 160 16 view .LVU58
 178 00ac 43F07063 		orr	r3, r3, #251658240
 179 00b0 5360     		str	r3, [r2, #4]
 180 00b2 7047     		bx	lr
 181              	.L21:
 165:./Drivers/src/stm32f10x_dma.c ****   }
 182              		.loc 1 165 5 is_stmt 1 view .LVU59
 165:./Drivers/src/stm32f10x_dma.c ****   }
 183              		.loc 1 165 9 is_stmt 0 view .LVU60
 184 00b4 1B4A     		ldr	r2, .L26+52
 185 00b6 5368     		ldr	r3, [r2, #4]
 165:./Drivers/src/stm32f10x_dma.c ****   }
 186              		.loc 1 165 16 view .LVU61
ARM GAS  /tmp/ccj0ChJy.s 			page 8


 187 00b8 43F00F03 		orr	r3, r3, #15
 188 00bc 5360     		str	r3, [r2, #4]
 189 00be 7047     		bx	lr
 190              	.L22:
 170:./Drivers/src/stm32f10x_dma.c ****   }
 191              		.loc 1 170 5 is_stmt 1 view .LVU62
 170:./Drivers/src/stm32f10x_dma.c ****   }
 192              		.loc 1 170 9 is_stmt 0 view .LVU63
 193 00c0 184A     		ldr	r2, .L26+52
 194 00c2 5368     		ldr	r3, [r2, #4]
 170:./Drivers/src/stm32f10x_dma.c ****   }
 195              		.loc 1 170 16 view .LVU64
 196 00c4 43F0F003 		orr	r3, r3, #240
 197 00c8 5360     		str	r3, [r2, #4]
 198 00ca 7047     		bx	lr
 199              	.L23:
 175:./Drivers/src/stm32f10x_dma.c ****   }
 200              		.loc 1 175 5 is_stmt 1 view .LVU65
 175:./Drivers/src/stm32f10x_dma.c ****   }
 201              		.loc 1 175 9 is_stmt 0 view .LVU66
 202 00cc 154A     		ldr	r2, .L26+52
 203 00ce 5368     		ldr	r3, [r2, #4]
 175:./Drivers/src/stm32f10x_dma.c ****   }
 204              		.loc 1 175 16 view .LVU67
 205 00d0 43F47063 		orr	r3, r3, #3840
 206 00d4 5360     		str	r3, [r2, #4]
 207 00d6 7047     		bx	lr
 208              	.L24:
 180:./Drivers/src/stm32f10x_dma.c ****   }
 209              		.loc 1 180 5 is_stmt 1 view .LVU68
 180:./Drivers/src/stm32f10x_dma.c ****   }
 210              		.loc 1 180 9 is_stmt 0 view .LVU69
 211 00d8 124A     		ldr	r2, .L26+52
 212 00da 5368     		ldr	r3, [r2, #4]
 180:./Drivers/src/stm32f10x_dma.c ****   }
 213              		.loc 1 180 16 view .LVU70
 214 00dc 43F47043 		orr	r3, r3, #61440
 215 00e0 5360     		str	r3, [r2, #4]
 216 00e2 7047     		bx	lr
 217              	.L25:
 187:./Drivers/src/stm32f10x_dma.c ****     }
 218              		.loc 1 187 7 is_stmt 1 view .LVU71
 187:./Drivers/src/stm32f10x_dma.c ****     }
 219              		.loc 1 187 11 is_stmt 0 view .LVU72
 220 00e4 0F4A     		ldr	r2, .L26+52
 221 00e6 5368     		ldr	r3, [r2, #4]
 187:./Drivers/src/stm32f10x_dma.c ****     }
 222              		.loc 1 187 18 view .LVU73
 223 00e8 43F47023 		orr	r3, r3, #983040
 224 00ec 5360     		str	r3, [r2, #4]
 225              		.loc 1 190 1 view .LVU74
 226 00ee B6E7     		b	.L1
 227              	.L27:
 228              		.align	2
 229              	.L26:
 230 00f0 08000240 		.word	1073872904
 231 00f4 1C000240 		.word	1073872924
ARM GAS  /tmp/ccj0ChJy.s 			page 9


 232 00f8 30000240 		.word	1073872944
 233 00fc 44000240 		.word	1073872964
 234 0100 58000240 		.word	1073872984
 235 0104 6C000240 		.word	1073873004
 236 0108 80000240 		.word	1073873024
 237 010c 08040240 		.word	1073873928
 238 0110 1C040240 		.word	1073873948
 239 0114 30040240 		.word	1073873968
 240 0118 44040240 		.word	1073873988
 241 011c 58040240 		.word	1073874008
 242 0120 00000240 		.word	1073872896
 243 0124 00040240 		.word	1073873920
 244              		.cfi_endproc
 245              	.LFE29:
 247              		.section	.text.DMA_Init,"ax",%progbits
 248              		.align	1
 249              		.global	DMA_Init
 250              		.syntax unified
 251              		.thumb
 252              		.thumb_func
 254              	DMA_Init:
 255              	.LVL1:
 256              	.LFB30:
 191:./Drivers/src/stm32f10x_dma.c **** 
 192:./Drivers/src/stm32f10x_dma.c **** /**
 193:./Drivers/src/stm32f10x_dma.c ****   * @brief  Initializes the DMAy Channelx according to the specified
 194:./Drivers/src/stm32f10x_dma.c ****   *         parameters in the DMA_InitStruct.
 195:./Drivers/src/stm32f10x_dma.c ****   * @param  DMAy_Channelx: where y can be 1 or 2 to select the DMA and 
 196:./Drivers/src/stm32f10x_dma.c ****   *   x can be 1 to 7 for DMA1 and 1 to 5 for DMA2 to select the DMA Channel.
 197:./Drivers/src/stm32f10x_dma.c ****   * @param  DMA_InitStruct: pointer to a DMA_InitTypeDef structure that
 198:./Drivers/src/stm32f10x_dma.c ****   *         contains the configuration information for the specified DMA Channel.
 199:./Drivers/src/stm32f10x_dma.c ****   * @retval None
 200:./Drivers/src/stm32f10x_dma.c ****   */
 201:./Drivers/src/stm32f10x_dma.c **** void DMA_Init(DMA_Channel_TypeDef* DMAy_Channelx, DMA_InitTypeDef* DMA_InitStruct)
 202:./Drivers/src/stm32f10x_dma.c **** {
 257              		.loc 1 202 1 is_stmt 1 view -0
 258              		.cfi_startproc
 259              		@ args = 0, pretend = 0, frame = 0
 260              		@ frame_needed = 0, uses_anonymous_args = 0
 261              		@ link register save eliminated.
 262              		.loc 1 202 1 is_stmt 0 view .LVU76
 263 0000 10B4     		push	{r4}
 264              	.LCFI0:
 265              		.cfi_def_cfa_offset 4
 266              		.cfi_offset 4, -4
 203:./Drivers/src/stm32f10x_dma.c ****   uint32_t tmpreg = 0;
 267              		.loc 1 203 3 is_stmt 1 view .LVU77
 268              	.LVL2:
 204:./Drivers/src/stm32f10x_dma.c **** 
 205:./Drivers/src/stm32f10x_dma.c ****   /* Check the parameters */
 206:./Drivers/src/stm32f10x_dma.c ****   assert_param(IS_DMA_ALL_PERIPH(DMAy_Channelx));
 269              		.loc 1 206 3 view .LVU78
 207:./Drivers/src/stm32f10x_dma.c ****   assert_param(IS_DMA_DIR(DMA_InitStruct->DMA_DIR));
 270              		.loc 1 207 3 view .LVU79
 208:./Drivers/src/stm32f10x_dma.c ****   assert_param(IS_DMA_BUFFER_SIZE(DMA_InitStruct->DMA_BufferSize));
 271              		.loc 1 208 3 view .LVU80
 209:./Drivers/src/stm32f10x_dma.c ****   assert_param(IS_DMA_PERIPHERAL_INC_STATE(DMA_InitStruct->DMA_PeripheralInc));
ARM GAS  /tmp/ccj0ChJy.s 			page 10


 272              		.loc 1 209 3 view .LVU81
 210:./Drivers/src/stm32f10x_dma.c ****   assert_param(IS_DMA_MEMORY_INC_STATE(DMA_InitStruct->DMA_MemoryInc));   
 273              		.loc 1 210 3 view .LVU82
 211:./Drivers/src/stm32f10x_dma.c ****   assert_param(IS_DMA_PERIPHERAL_DATA_SIZE(DMA_InitStruct->DMA_PeripheralDataSize));
 274              		.loc 1 211 3 view .LVU83
 212:./Drivers/src/stm32f10x_dma.c ****   assert_param(IS_DMA_MEMORY_DATA_SIZE(DMA_InitStruct->DMA_MemoryDataSize));
 275              		.loc 1 212 3 view .LVU84
 213:./Drivers/src/stm32f10x_dma.c ****   assert_param(IS_DMA_MODE(DMA_InitStruct->DMA_Mode));
 276              		.loc 1 213 3 view .LVU85
 214:./Drivers/src/stm32f10x_dma.c ****   assert_param(IS_DMA_PRIORITY(DMA_InitStruct->DMA_Priority));
 277              		.loc 1 214 3 view .LVU86
 215:./Drivers/src/stm32f10x_dma.c ****   assert_param(IS_DMA_M2M_STATE(DMA_InitStruct->DMA_M2M));
 278              		.loc 1 215 3 view .LVU87
 216:./Drivers/src/stm32f10x_dma.c **** 
 217:./Drivers/src/stm32f10x_dma.c **** /*--------------------------- DMAy Channelx CCR Configuration -----------------*/
 218:./Drivers/src/stm32f10x_dma.c ****   /* Get the DMAy_Channelx CCR value */
 219:./Drivers/src/stm32f10x_dma.c ****   tmpreg = DMAy_Channelx->CCR;
 279              		.loc 1 219 3 view .LVU88
 280              		.loc 1 219 10 is_stmt 0 view .LVU89
 281 0002 0268     		ldr	r2, [r0]
 282              	.LVL3:
 220:./Drivers/src/stm32f10x_dma.c ****   /* Clear MEM2MEM, PL, MSIZE, PSIZE, MINC, PINC, CIRC and DIR bits */
 221:./Drivers/src/stm32f10x_dma.c ****   tmpreg &= CCR_CLEAR_Mask;
 283              		.loc 1 221 3 is_stmt 1 view .LVU90
 284              		.loc 1 221 10 is_stmt 0 view .LVU91
 285 0004 22F4FF42 		bic	r2, r2, #32640
 286              	.LVL4:
 287              		.loc 1 221 10 view .LVU92
 288 0008 22F07002 		bic	r2, r2, #112
 289              	.LVL5:
 222:./Drivers/src/stm32f10x_dma.c ****   /* Configure DMAy Channelx: data transfer, data size, priority level and mode */
 223:./Drivers/src/stm32f10x_dma.c ****   /* Set DIR bit according to DMA_DIR value */
 224:./Drivers/src/stm32f10x_dma.c ****   /* Set CIRC bit according to DMA_Mode value */
 225:./Drivers/src/stm32f10x_dma.c ****   /* Set PINC bit according to DMA_PeripheralInc value */
 226:./Drivers/src/stm32f10x_dma.c ****   /* Set MINC bit according to DMA_MemoryInc value */
 227:./Drivers/src/stm32f10x_dma.c ****   /* Set PSIZE bits according to DMA_PeripheralDataSize value */
 228:./Drivers/src/stm32f10x_dma.c ****   /* Set MSIZE bits according to DMA_MemoryDataSize value */
 229:./Drivers/src/stm32f10x_dma.c ****   /* Set PL bits according to DMA_Priority value */
 230:./Drivers/src/stm32f10x_dma.c ****   /* Set the MEM2MEM bit according to DMA_M2M value */
 231:./Drivers/src/stm32f10x_dma.c ****   tmpreg |= DMA_InitStruct->DMA_DIR | DMA_InitStruct->DMA_Mode |
 290              		.loc 1 231 3 is_stmt 1 view .LVU93
 291              		.loc 1 231 27 is_stmt 0 view .LVU94
 292 000c 8B68     		ldr	r3, [r1, #8]
 293              		.loc 1 231 37 view .LVU95
 294 000e 0C6A     		ldr	r4, [r1, #32]
 295 0010 2343     		orrs	r3, r3, r4
 296              		.loc 1 231 64 view .LVU96
 297 0012 0C69     		ldr	r4, [r1, #16]
 298 0014 2343     		orrs	r3, r3, r4
 232:./Drivers/src/stm32f10x_dma.c ****             DMA_InitStruct->DMA_PeripheralInc | DMA_InitStruct->DMA_MemoryInc |
 299              		.loc 1 232 47 view .LVU97
 300 0016 4C69     		ldr	r4, [r1, #20]
 301 0018 2343     		orrs	r3, r3, r4
 302              		.loc 1 232 79 view .LVU98
 303 001a 8C69     		ldr	r4, [r1, #24]
 304 001c 2343     		orrs	r3, r3, r4
 233:./Drivers/src/stm32f10x_dma.c ****             DMA_InitStruct->DMA_PeripheralDataSize | DMA_InitStruct->DMA_MemoryDataSize |
ARM GAS  /tmp/ccj0ChJy.s 			page 11


 305              		.loc 1 233 52 view .LVU99
 306 001e CC69     		ldr	r4, [r1, #28]
 307 0020 2343     		orrs	r3, r3, r4
 308              		.loc 1 233 89 view .LVU100
 309 0022 4C6A     		ldr	r4, [r1, #36]
 310 0024 2343     		orrs	r3, r3, r4
 234:./Drivers/src/stm32f10x_dma.c ****             DMA_InitStruct->DMA_Priority | DMA_InitStruct->DMA_M2M;
 311              		.loc 1 234 42 view .LVU101
 312 0026 8C6A     		ldr	r4, [r1, #40]
 313 0028 2343     		orrs	r3, r3, r4
 231:./Drivers/src/stm32f10x_dma.c ****             DMA_InitStruct->DMA_PeripheralInc | DMA_InitStruct->DMA_MemoryInc |
 314              		.loc 1 231 10 view .LVU102
 315 002a 1343     		orrs	r3, r3, r2
 316              	.LVL6:
 235:./Drivers/src/stm32f10x_dma.c **** 
 236:./Drivers/src/stm32f10x_dma.c ****   /* Write to DMAy Channelx CCR */
 237:./Drivers/src/stm32f10x_dma.c ****   DMAy_Channelx->CCR = tmpreg;
 317              		.loc 1 237 3 is_stmt 1 view .LVU103
 318              		.loc 1 237 22 is_stmt 0 view .LVU104
 319 002c 0360     		str	r3, [r0]
 238:./Drivers/src/stm32f10x_dma.c **** 
 239:./Drivers/src/stm32f10x_dma.c **** /*--------------------------- DMAy Channelx CNDTR Configuration ---------------*/
 240:./Drivers/src/stm32f10x_dma.c ****   /* Write to DMAy Channelx CNDTR */
 241:./Drivers/src/stm32f10x_dma.c ****   DMAy_Channelx->CNDTR = DMA_InitStruct->DMA_BufferSize;
 320              		.loc 1 241 3 is_stmt 1 view .LVU105
 321              		.loc 1 241 40 is_stmt 0 view .LVU106
 322 002e CB68     		ldr	r3, [r1, #12]
 323              	.LVL7:
 324              		.loc 1 241 24 view .LVU107
 325 0030 4360     		str	r3, [r0, #4]
 326              	.LVL8:
 242:./Drivers/src/stm32f10x_dma.c **** 
 243:./Drivers/src/stm32f10x_dma.c **** /*--------------------------- DMAy Channelx CPAR Configuration ----------------*/
 244:./Drivers/src/stm32f10x_dma.c ****   /* Write to DMAy Channelx CPAR */
 245:./Drivers/src/stm32f10x_dma.c ****   DMAy_Channelx->CPAR = DMA_InitStruct->DMA_PeripheralBaseAddr;
 327              		.loc 1 245 3 is_stmt 1 view .LVU108
 328              		.loc 1 245 39 is_stmt 0 view .LVU109
 329 0032 0B68     		ldr	r3, [r1]
 330              		.loc 1 245 23 view .LVU110
 331 0034 8360     		str	r3, [r0, #8]
 246:./Drivers/src/stm32f10x_dma.c **** 
 247:./Drivers/src/stm32f10x_dma.c **** /*--------------------------- DMAy Channelx CMAR Configuration ----------------*/
 248:./Drivers/src/stm32f10x_dma.c ****   /* Write to DMAy Channelx CMAR */
 249:./Drivers/src/stm32f10x_dma.c ****   DMAy_Channelx->CMAR = DMA_InitStruct->DMA_MemoryBaseAddr;
 332              		.loc 1 249 3 is_stmt 1 view .LVU111
 333              		.loc 1 249 39 is_stmt 0 view .LVU112
 334 0036 4B68     		ldr	r3, [r1, #4]
 335              		.loc 1 249 23 view .LVU113
 336 0038 C360     		str	r3, [r0, #12]
 250:./Drivers/src/stm32f10x_dma.c **** }
 337              		.loc 1 250 1 view .LVU114
 338 003a 10BC     		pop	{r4}
 339              	.LCFI1:
 340              		.cfi_restore 4
 341              		.cfi_def_cfa_offset 0
 342 003c 7047     		bx	lr
 343              		.cfi_endproc
ARM GAS  /tmp/ccj0ChJy.s 			page 12


 344              	.LFE30:
 346              		.section	.text.DMA_StructInit,"ax",%progbits
 347              		.align	1
 348              		.global	DMA_StructInit
 349              		.syntax unified
 350              		.thumb
 351              		.thumb_func
 353              	DMA_StructInit:
 354              	.LVL9:
 355              	.LFB31:
 251:./Drivers/src/stm32f10x_dma.c **** 
 252:./Drivers/src/stm32f10x_dma.c **** /**
 253:./Drivers/src/stm32f10x_dma.c ****   * @brief  Fills each DMA_InitStruct member with its default value.
 254:./Drivers/src/stm32f10x_dma.c ****   * @param  DMA_InitStruct : pointer to a DMA_InitTypeDef structure which will
 255:./Drivers/src/stm32f10x_dma.c ****   *         be initialized.
 256:./Drivers/src/stm32f10x_dma.c ****   * @retval None
 257:./Drivers/src/stm32f10x_dma.c ****   */
 258:./Drivers/src/stm32f10x_dma.c **** void DMA_StructInit(DMA_InitTypeDef* DMA_InitStruct)
 259:./Drivers/src/stm32f10x_dma.c **** {
 356              		.loc 1 259 1 is_stmt 1 view -0
 357              		.cfi_startproc
 358              		@ args = 0, pretend = 0, frame = 0
 359              		@ frame_needed = 0, uses_anonymous_args = 0
 360              		@ link register save eliminated.
 260:./Drivers/src/stm32f10x_dma.c **** /*-------------- Reset DMA init structure parameters values ------------------*/
 261:./Drivers/src/stm32f10x_dma.c ****   /* Initialize the DMA_PeripheralBaseAddr member */
 262:./Drivers/src/stm32f10x_dma.c ****   DMA_InitStruct->DMA_PeripheralBaseAddr = 0;
 361              		.loc 1 262 3 view .LVU116
 362              		.loc 1 262 42 is_stmt 0 view .LVU117
 363 0000 0023     		movs	r3, #0
 364 0002 0360     		str	r3, [r0]
 263:./Drivers/src/stm32f10x_dma.c ****   /* Initialize the DMA_MemoryBaseAddr member */
 264:./Drivers/src/stm32f10x_dma.c ****   DMA_InitStruct->DMA_MemoryBaseAddr = 0;
 365              		.loc 1 264 3 is_stmt 1 view .LVU118
 366              		.loc 1 264 38 is_stmt 0 view .LVU119
 367 0004 4360     		str	r3, [r0, #4]
 265:./Drivers/src/stm32f10x_dma.c ****   /* Initialize the DMA_DIR member */
 266:./Drivers/src/stm32f10x_dma.c ****   DMA_InitStruct->DMA_DIR = DMA_DIR_PeripheralSRC;
 368              		.loc 1 266 3 is_stmt 1 view .LVU120
 369              		.loc 1 266 27 is_stmt 0 view .LVU121
 370 0006 8360     		str	r3, [r0, #8]
 267:./Drivers/src/stm32f10x_dma.c ****   /* Initialize the DMA_BufferSize member */
 268:./Drivers/src/stm32f10x_dma.c ****   DMA_InitStruct->DMA_BufferSize = 0;
 371              		.loc 1 268 3 is_stmt 1 view .LVU122
 372              		.loc 1 268 34 is_stmt 0 view .LVU123
 373 0008 C360     		str	r3, [r0, #12]
 269:./Drivers/src/stm32f10x_dma.c ****   /* Initialize the DMA_PeripheralInc member */
 270:./Drivers/src/stm32f10x_dma.c ****   DMA_InitStruct->DMA_PeripheralInc = DMA_PeripheralInc_Disable;
 374              		.loc 1 270 3 is_stmt 1 view .LVU124
 375              		.loc 1 270 37 is_stmt 0 view .LVU125
 376 000a 0361     		str	r3, [r0, #16]
 271:./Drivers/src/stm32f10x_dma.c ****   /* Initialize the DMA_MemoryInc member */
 272:./Drivers/src/stm32f10x_dma.c ****   DMA_InitStruct->DMA_MemoryInc = DMA_MemoryInc_Disable;
 377              		.loc 1 272 3 is_stmt 1 view .LVU126
 378              		.loc 1 272 33 is_stmt 0 view .LVU127
 379 000c 4361     		str	r3, [r0, #20]
 273:./Drivers/src/stm32f10x_dma.c ****   /* Initialize the DMA_PeripheralDataSize member */
ARM GAS  /tmp/ccj0ChJy.s 			page 13


 274:./Drivers/src/stm32f10x_dma.c ****   DMA_InitStruct->DMA_PeripheralDataSize = DMA_PeripheralDataSize_Byte;
 380              		.loc 1 274 3 is_stmt 1 view .LVU128
 381              		.loc 1 274 42 is_stmt 0 view .LVU129
 382 000e 8361     		str	r3, [r0, #24]
 275:./Drivers/src/stm32f10x_dma.c ****   /* Initialize the DMA_MemoryDataSize member */
 276:./Drivers/src/stm32f10x_dma.c ****   DMA_InitStruct->DMA_MemoryDataSize = DMA_MemoryDataSize_Byte;
 383              		.loc 1 276 3 is_stmt 1 view .LVU130
 384              		.loc 1 276 38 is_stmt 0 view .LVU131
 385 0010 C361     		str	r3, [r0, #28]
 277:./Drivers/src/stm32f10x_dma.c ****   /* Initialize the DMA_Mode member */
 278:./Drivers/src/stm32f10x_dma.c ****   DMA_InitStruct->DMA_Mode = DMA_Mode_Normal;
 386              		.loc 1 278 3 is_stmt 1 view .LVU132
 387              		.loc 1 278 28 is_stmt 0 view .LVU133
 388 0012 0362     		str	r3, [r0, #32]
 279:./Drivers/src/stm32f10x_dma.c ****   /* Initialize the DMA_Priority member */
 280:./Drivers/src/stm32f10x_dma.c ****   DMA_InitStruct->DMA_Priority = DMA_Priority_Low;
 389              		.loc 1 280 3 is_stmt 1 view .LVU134
 390              		.loc 1 280 32 is_stmt 0 view .LVU135
 391 0014 4362     		str	r3, [r0, #36]
 281:./Drivers/src/stm32f10x_dma.c ****   /* Initialize the DMA_M2M member */
 282:./Drivers/src/stm32f10x_dma.c ****   DMA_InitStruct->DMA_M2M = DMA_M2M_Disable;
 392              		.loc 1 282 3 is_stmt 1 view .LVU136
 393              		.loc 1 282 27 is_stmt 0 view .LVU137
 394 0016 8362     		str	r3, [r0, #40]
 283:./Drivers/src/stm32f10x_dma.c **** }
 395              		.loc 1 283 1 view .LVU138
 396 0018 7047     		bx	lr
 397              		.cfi_endproc
 398              	.LFE31:
 400              		.section	.text.DMA_Cmd,"ax",%progbits
 401              		.align	1
 402              		.global	DMA_Cmd
 403              		.syntax unified
 404              		.thumb
 405              		.thumb_func
 407              	DMA_Cmd:
 408              	.LVL10:
 409              	.LFB32:
 284:./Drivers/src/stm32f10x_dma.c **** 
 285:./Drivers/src/stm32f10x_dma.c **** /**
 286:./Drivers/src/stm32f10x_dma.c ****   * @brief  Enables or disables the specified DMAy Channelx.
 287:./Drivers/src/stm32f10x_dma.c ****   * @param  DMAy_Channelx: where y can be 1 or 2 to select the DMA and 
 288:./Drivers/src/stm32f10x_dma.c ****   *   x can be 1 to 7 for DMA1 and 1 to 5 for DMA2 to select the DMA Channel.
 289:./Drivers/src/stm32f10x_dma.c ****   * @param  NewState: new state of the DMAy Channelx. 
 290:./Drivers/src/stm32f10x_dma.c ****   *   This parameter can be: ENABLE or DISABLE.
 291:./Drivers/src/stm32f10x_dma.c ****   * @retval None
 292:./Drivers/src/stm32f10x_dma.c ****   */
 293:./Drivers/src/stm32f10x_dma.c **** void DMA_Cmd(DMA_Channel_TypeDef* DMAy_Channelx, FunctionalState NewState)
 294:./Drivers/src/stm32f10x_dma.c **** {
 410              		.loc 1 294 1 is_stmt 1 view -0
 411              		.cfi_startproc
 412              		@ args = 0, pretend = 0, frame = 0
 413              		@ frame_needed = 0, uses_anonymous_args = 0
 414              		@ link register save eliminated.
 295:./Drivers/src/stm32f10x_dma.c ****   /* Check the parameters */
 296:./Drivers/src/stm32f10x_dma.c ****   assert_param(IS_DMA_ALL_PERIPH(DMAy_Channelx));
 415              		.loc 1 296 3 view .LVU140
ARM GAS  /tmp/ccj0ChJy.s 			page 14


 297:./Drivers/src/stm32f10x_dma.c ****   assert_param(IS_FUNCTIONAL_STATE(NewState));
 416              		.loc 1 297 3 view .LVU141
 298:./Drivers/src/stm32f10x_dma.c **** 
 299:./Drivers/src/stm32f10x_dma.c ****   if (NewState != DISABLE)
 417              		.loc 1 299 3 view .LVU142
 418              		.loc 1 299 6 is_stmt 0 view .LVU143
 419 0000 21B1     		cbz	r1, .L32
 300:./Drivers/src/stm32f10x_dma.c ****   {
 301:./Drivers/src/stm32f10x_dma.c ****     /* Enable the selected DMAy Channelx */
 302:./Drivers/src/stm32f10x_dma.c ****     DMAy_Channelx->CCR |= DMA_CCR1_EN;
 420              		.loc 1 302 5 is_stmt 1 view .LVU144
 421              		.loc 1 302 18 is_stmt 0 view .LVU145
 422 0002 0368     		ldr	r3, [r0]
 423              		.loc 1 302 24 view .LVU146
 424 0004 43F00103 		orr	r3, r3, #1
 425 0008 0360     		str	r3, [r0]
 426 000a 7047     		bx	lr
 427              	.L32:
 303:./Drivers/src/stm32f10x_dma.c ****   }
 304:./Drivers/src/stm32f10x_dma.c ****   else
 305:./Drivers/src/stm32f10x_dma.c ****   {
 306:./Drivers/src/stm32f10x_dma.c ****     /* Disable the selected DMAy Channelx */
 307:./Drivers/src/stm32f10x_dma.c ****     DMAy_Channelx->CCR &= (uint16_t)(~DMA_CCR1_EN);
 428              		.loc 1 307 5 is_stmt 1 view .LVU147
 429              		.loc 1 307 18 is_stmt 0 view .LVU148
 430 000c 0368     		ldr	r3, [r0]
 431              		.loc 1 307 24 view .LVU149
 432 000e 23F00103 		bic	r3, r3, #1
 433 0012 1B04     		lsls	r3, r3, #16
 434 0014 1B0C     		lsrs	r3, r3, #16
 435 0016 0360     		str	r3, [r0]
 308:./Drivers/src/stm32f10x_dma.c ****   }
 309:./Drivers/src/stm32f10x_dma.c **** }
 436              		.loc 1 309 1 view .LVU150
 437 0018 7047     		bx	lr
 438              		.cfi_endproc
 439              	.LFE32:
 441              		.section	.text.DMA_ITConfig,"ax",%progbits
 442              		.align	1
 443              		.global	DMA_ITConfig
 444              		.syntax unified
 445              		.thumb
 446              		.thumb_func
 448              	DMA_ITConfig:
 449              	.LVL11:
 450              	.LFB33:
 310:./Drivers/src/stm32f10x_dma.c **** 
 311:./Drivers/src/stm32f10x_dma.c **** /**
 312:./Drivers/src/stm32f10x_dma.c ****   * @brief  Enables or disables the specified DMAy Channelx interrupts.
 313:./Drivers/src/stm32f10x_dma.c ****   * @param  DMAy_Channelx: where y can be 1 or 2 to select the DMA and 
 314:./Drivers/src/stm32f10x_dma.c ****   *   x can be 1 to 7 for DMA1 and 1 to 5 for DMA2 to select the DMA Channel.
 315:./Drivers/src/stm32f10x_dma.c ****   * @param  DMA_IT: specifies the DMA interrupts sources to be enabled
 316:./Drivers/src/stm32f10x_dma.c ****   *   or disabled. 
 317:./Drivers/src/stm32f10x_dma.c ****   *   This parameter can be any combination of the following values:
 318:./Drivers/src/stm32f10x_dma.c ****   *     @arg DMA_IT_TC:  Transfer complete interrupt mask
 319:./Drivers/src/stm32f10x_dma.c ****   *     @arg DMA_IT_HT:  Half transfer interrupt mask
 320:./Drivers/src/stm32f10x_dma.c ****   *     @arg DMA_IT_TE:  Transfer error interrupt mask
ARM GAS  /tmp/ccj0ChJy.s 			page 15


 321:./Drivers/src/stm32f10x_dma.c ****   * @param  NewState: new state of the specified DMA interrupts.
 322:./Drivers/src/stm32f10x_dma.c ****   *   This parameter can be: ENABLE or DISABLE.
 323:./Drivers/src/stm32f10x_dma.c ****   * @retval None
 324:./Drivers/src/stm32f10x_dma.c ****   */
 325:./Drivers/src/stm32f10x_dma.c **** void DMA_ITConfig(DMA_Channel_TypeDef* DMAy_Channelx, uint32_t DMA_IT, FunctionalState NewState)
 326:./Drivers/src/stm32f10x_dma.c **** {
 451              		.loc 1 326 1 is_stmt 1 view -0
 452              		.cfi_startproc
 453              		@ args = 0, pretend = 0, frame = 0
 454              		@ frame_needed = 0, uses_anonymous_args = 0
 455              		@ link register save eliminated.
 327:./Drivers/src/stm32f10x_dma.c ****   /* Check the parameters */
 328:./Drivers/src/stm32f10x_dma.c ****   assert_param(IS_DMA_ALL_PERIPH(DMAy_Channelx));
 456              		.loc 1 328 3 view .LVU152
 329:./Drivers/src/stm32f10x_dma.c ****   assert_param(IS_DMA_CONFIG_IT(DMA_IT));
 457              		.loc 1 329 3 view .LVU153
 330:./Drivers/src/stm32f10x_dma.c ****   assert_param(IS_FUNCTIONAL_STATE(NewState));
 458              		.loc 1 330 3 view .LVU154
 331:./Drivers/src/stm32f10x_dma.c ****   if (NewState != DISABLE)
 459              		.loc 1 331 3 view .LVU155
 460              		.loc 1 331 6 is_stmt 0 view .LVU156
 461 0000 1AB1     		cbz	r2, .L35
 332:./Drivers/src/stm32f10x_dma.c ****   {
 333:./Drivers/src/stm32f10x_dma.c ****     /* Enable the selected DMA interrupts */
 334:./Drivers/src/stm32f10x_dma.c ****     DMAy_Channelx->CCR |= DMA_IT;
 462              		.loc 1 334 5 is_stmt 1 view .LVU157
 463              		.loc 1 334 18 is_stmt 0 view .LVU158
 464 0002 0368     		ldr	r3, [r0]
 465              		.loc 1 334 24 view .LVU159
 466 0004 0B43     		orrs	r3, r3, r1
 467 0006 0360     		str	r3, [r0]
 468 0008 7047     		bx	lr
 469              	.L35:
 335:./Drivers/src/stm32f10x_dma.c ****   }
 336:./Drivers/src/stm32f10x_dma.c ****   else
 337:./Drivers/src/stm32f10x_dma.c ****   {
 338:./Drivers/src/stm32f10x_dma.c ****     /* Disable the selected DMA interrupts */
 339:./Drivers/src/stm32f10x_dma.c ****     DMAy_Channelx->CCR &= ~DMA_IT;
 470              		.loc 1 339 5 is_stmt 1 view .LVU160
 471              		.loc 1 339 18 is_stmt 0 view .LVU161
 472 000a 0368     		ldr	r3, [r0]
 473              		.loc 1 339 24 view .LVU162
 474 000c 23EA0103 		bic	r3, r3, r1
 475 0010 0360     		str	r3, [r0]
 340:./Drivers/src/stm32f10x_dma.c ****   }
 341:./Drivers/src/stm32f10x_dma.c **** }
 476              		.loc 1 341 1 view .LVU163
 477 0012 7047     		bx	lr
 478              		.cfi_endproc
 479              	.LFE33:
 481              		.section	.text.DMA_SetCurrDataCounter,"ax",%progbits
 482              		.align	1
 483              		.global	DMA_SetCurrDataCounter
 484              		.syntax unified
 485              		.thumb
 486              		.thumb_func
 488              	DMA_SetCurrDataCounter:
ARM GAS  /tmp/ccj0ChJy.s 			page 16


 489              	.LVL12:
 490              	.LFB34:
 342:./Drivers/src/stm32f10x_dma.c **** 
 343:./Drivers/src/stm32f10x_dma.c **** /**
 344:./Drivers/src/stm32f10x_dma.c ****   * @brief  Sets the number of data units in the current DMAy Channelx transfer.
 345:./Drivers/src/stm32f10x_dma.c ****   * @param  DMAy_Channelx: where y can be 1 or 2 to select the DMA and 
 346:./Drivers/src/stm32f10x_dma.c ****   *         x can be 1 to 7 for DMA1 and 1 to 5 for DMA2 to select the DMA Channel.
 347:./Drivers/src/stm32f10x_dma.c ****   * @param  DataNumber: The number of data units in the current DMAy Channelx
 348:./Drivers/src/stm32f10x_dma.c ****   *         transfer.   
 349:./Drivers/src/stm32f10x_dma.c ****   * @note   This function can only be used when the DMAy_Channelx is disabled.                 
 350:./Drivers/src/stm32f10x_dma.c ****   * @retval None.
 351:./Drivers/src/stm32f10x_dma.c ****   */
 352:./Drivers/src/stm32f10x_dma.c **** void DMA_SetCurrDataCounter(DMA_Channel_TypeDef* DMAy_Channelx, uint16_t DataNumber)
 353:./Drivers/src/stm32f10x_dma.c **** {
 491              		.loc 1 353 1 is_stmt 1 view -0
 492              		.cfi_startproc
 493              		@ args = 0, pretend = 0, frame = 0
 494              		@ frame_needed = 0, uses_anonymous_args = 0
 495              		@ link register save eliminated.
 354:./Drivers/src/stm32f10x_dma.c ****   /* Check the parameters */
 355:./Drivers/src/stm32f10x_dma.c ****   assert_param(IS_DMA_ALL_PERIPH(DMAy_Channelx));
 496              		.loc 1 355 3 view .LVU165
 356:./Drivers/src/stm32f10x_dma.c ****   
 357:./Drivers/src/stm32f10x_dma.c **** /*--------------------------- DMAy Channelx CNDTR Configuration ---------------*/
 358:./Drivers/src/stm32f10x_dma.c ****   /* Write to DMAy Channelx CNDTR */
 359:./Drivers/src/stm32f10x_dma.c ****   DMAy_Channelx->CNDTR = DataNumber;  
 497              		.loc 1 359 3 view .LVU166
 498              		.loc 1 359 24 is_stmt 0 view .LVU167
 499 0000 4160     		str	r1, [r0, #4]
 360:./Drivers/src/stm32f10x_dma.c **** }
 500              		.loc 1 360 1 view .LVU168
 501 0002 7047     		bx	lr
 502              		.cfi_endproc
 503              	.LFE34:
 505              		.section	.text.DMA_GetCurrDataCounter,"ax",%progbits
 506              		.align	1
 507              		.global	DMA_GetCurrDataCounter
 508              		.syntax unified
 509              		.thumb
 510              		.thumb_func
 512              	DMA_GetCurrDataCounter:
 513              	.LVL13:
 514              	.LFB35:
 361:./Drivers/src/stm32f10x_dma.c **** 
 362:./Drivers/src/stm32f10x_dma.c **** /**
 363:./Drivers/src/stm32f10x_dma.c ****   * @brief  Returns the number of remaining data units in the current
 364:./Drivers/src/stm32f10x_dma.c ****   *         DMAy Channelx transfer.
 365:./Drivers/src/stm32f10x_dma.c ****   * @param  DMAy_Channelx: where y can be 1 or 2 to select the DMA and 
 366:./Drivers/src/stm32f10x_dma.c ****   *   x can be 1 to 7 for DMA1 and 1 to 5 for DMA2 to select the DMA Channel.
 367:./Drivers/src/stm32f10x_dma.c ****   * @retval The number of remaining data units in the current DMAy Channelx
 368:./Drivers/src/stm32f10x_dma.c ****   *         transfer.
 369:./Drivers/src/stm32f10x_dma.c ****   */
 370:./Drivers/src/stm32f10x_dma.c **** uint16_t DMA_GetCurrDataCounter(DMA_Channel_TypeDef* DMAy_Channelx)
 371:./Drivers/src/stm32f10x_dma.c **** {
 515              		.loc 1 371 1 is_stmt 1 view -0
 516              		.cfi_startproc
 517              		@ args = 0, pretend = 0, frame = 0
ARM GAS  /tmp/ccj0ChJy.s 			page 17


 518              		@ frame_needed = 0, uses_anonymous_args = 0
 519              		@ link register save eliminated.
 372:./Drivers/src/stm32f10x_dma.c ****   /* Check the parameters */
 373:./Drivers/src/stm32f10x_dma.c ****   assert_param(IS_DMA_ALL_PERIPH(DMAy_Channelx));
 520              		.loc 1 373 3 view .LVU170
 374:./Drivers/src/stm32f10x_dma.c ****   /* Return the number of remaining data units for DMAy Channelx */
 375:./Drivers/src/stm32f10x_dma.c ****   return ((uint16_t)(DMAy_Channelx->CNDTR));
 521              		.loc 1 375 3 view .LVU171
 522              		.loc 1 375 35 is_stmt 0 view .LVU172
 523 0000 4068     		ldr	r0, [r0, #4]
 524              	.LVL14:
 376:./Drivers/src/stm32f10x_dma.c **** }
 525              		.loc 1 376 1 view .LVU173
 526 0002 80B2     		uxth	r0, r0
 527 0004 7047     		bx	lr
 528              		.cfi_endproc
 529              	.LFE35:
 531              		.section	.text.DMA_GetFlagStatus,"ax",%progbits
 532              		.align	1
 533              		.global	DMA_GetFlagStatus
 534              		.syntax unified
 535              		.thumb
 536              		.thumb_func
 538              	DMA_GetFlagStatus:
 539              	.LVL15:
 540              	.LFB36:
 377:./Drivers/src/stm32f10x_dma.c **** 
 378:./Drivers/src/stm32f10x_dma.c **** /**
 379:./Drivers/src/stm32f10x_dma.c ****   * @brief  Checks whether the specified DMAy Channelx flag is set or not.
 380:./Drivers/src/stm32f10x_dma.c ****   * @param  DMAy_FLAG: specifies the flag to check.
 381:./Drivers/src/stm32f10x_dma.c ****   *   This parameter can be one of the following values:
 382:./Drivers/src/stm32f10x_dma.c ****   *     @arg DMA1_FLAG_GL1: DMA1 Channel1 global flag.
 383:./Drivers/src/stm32f10x_dma.c ****   *     @arg DMA1_FLAG_TC1: DMA1 Channel1 transfer complete flag.
 384:./Drivers/src/stm32f10x_dma.c ****   *     @arg DMA1_FLAG_HT1: DMA1 Channel1 half transfer flag.
 385:./Drivers/src/stm32f10x_dma.c ****   *     @arg DMA1_FLAG_TE1: DMA1 Channel1 transfer error flag.
 386:./Drivers/src/stm32f10x_dma.c ****   *     @arg DMA1_FLAG_GL2: DMA1 Channel2 global flag.
 387:./Drivers/src/stm32f10x_dma.c ****   *     @arg DMA1_FLAG_TC2: DMA1 Channel2 transfer complete flag.
 388:./Drivers/src/stm32f10x_dma.c ****   *     @arg DMA1_FLAG_HT2: DMA1 Channel2 half transfer flag.
 389:./Drivers/src/stm32f10x_dma.c ****   *     @arg DMA1_FLAG_TE2: DMA1 Channel2 transfer error flag.
 390:./Drivers/src/stm32f10x_dma.c ****   *     @arg DMA1_FLAG_GL3: DMA1 Channel3 global flag.
 391:./Drivers/src/stm32f10x_dma.c ****   *     @arg DMA1_FLAG_TC3: DMA1 Channel3 transfer complete flag.
 392:./Drivers/src/stm32f10x_dma.c ****   *     @arg DMA1_FLAG_HT3: DMA1 Channel3 half transfer flag.
 393:./Drivers/src/stm32f10x_dma.c ****   *     @arg DMA1_FLAG_TE3: DMA1 Channel3 transfer error flag.
 394:./Drivers/src/stm32f10x_dma.c ****   *     @arg DMA1_FLAG_GL4: DMA1 Channel4 global flag.
 395:./Drivers/src/stm32f10x_dma.c ****   *     @arg DMA1_FLAG_TC4: DMA1 Channel4 transfer complete flag.
 396:./Drivers/src/stm32f10x_dma.c ****   *     @arg DMA1_FLAG_HT4: DMA1 Channel4 half transfer flag.
 397:./Drivers/src/stm32f10x_dma.c ****   *     @arg DMA1_FLAG_TE4: DMA1 Channel4 transfer error flag.
 398:./Drivers/src/stm32f10x_dma.c ****   *     @arg DMA1_FLAG_GL5: DMA1 Channel5 global flag.
 399:./Drivers/src/stm32f10x_dma.c ****   *     @arg DMA1_FLAG_TC5: DMA1 Channel5 transfer complete flag.
 400:./Drivers/src/stm32f10x_dma.c ****   *     @arg DMA1_FLAG_HT5: DMA1 Channel5 half transfer flag.
 401:./Drivers/src/stm32f10x_dma.c ****   *     @arg DMA1_FLAG_TE5: DMA1 Channel5 transfer error flag.
 402:./Drivers/src/stm32f10x_dma.c ****   *     @arg DMA1_FLAG_GL6: DMA1 Channel6 global flag.
 403:./Drivers/src/stm32f10x_dma.c ****   *     @arg DMA1_FLAG_TC6: DMA1 Channel6 transfer complete flag.
 404:./Drivers/src/stm32f10x_dma.c ****   *     @arg DMA1_FLAG_HT6: DMA1 Channel6 half transfer flag.
 405:./Drivers/src/stm32f10x_dma.c ****   *     @arg DMA1_FLAG_TE6: DMA1 Channel6 transfer error flag.
 406:./Drivers/src/stm32f10x_dma.c ****   *     @arg DMA1_FLAG_GL7: DMA1 Channel7 global flag.
 407:./Drivers/src/stm32f10x_dma.c ****   *     @arg DMA1_FLAG_TC7: DMA1 Channel7 transfer complete flag.
ARM GAS  /tmp/ccj0ChJy.s 			page 18


 408:./Drivers/src/stm32f10x_dma.c ****   *     @arg DMA1_FLAG_HT7: DMA1 Channel7 half transfer flag.
 409:./Drivers/src/stm32f10x_dma.c ****   *     @arg DMA1_FLAG_TE7: DMA1 Channel7 transfer error flag.
 410:./Drivers/src/stm32f10x_dma.c ****   *     @arg DMA2_FLAG_GL1: DMA2 Channel1 global flag.
 411:./Drivers/src/stm32f10x_dma.c ****   *     @arg DMA2_FLAG_TC1: DMA2 Channel1 transfer complete flag.
 412:./Drivers/src/stm32f10x_dma.c ****   *     @arg DMA2_FLAG_HT1: DMA2 Channel1 half transfer flag.
 413:./Drivers/src/stm32f10x_dma.c ****   *     @arg DMA2_FLAG_TE1: DMA2 Channel1 transfer error flag.
 414:./Drivers/src/stm32f10x_dma.c ****   *     @arg DMA2_FLAG_GL2: DMA2 Channel2 global flag.
 415:./Drivers/src/stm32f10x_dma.c ****   *     @arg DMA2_FLAG_TC2: DMA2 Channel2 transfer complete flag.
 416:./Drivers/src/stm32f10x_dma.c ****   *     @arg DMA2_FLAG_HT2: DMA2 Channel2 half transfer flag.
 417:./Drivers/src/stm32f10x_dma.c ****   *     @arg DMA2_FLAG_TE2: DMA2 Channel2 transfer error flag.
 418:./Drivers/src/stm32f10x_dma.c ****   *     @arg DMA2_FLAG_GL3: DMA2 Channel3 global flag.
 419:./Drivers/src/stm32f10x_dma.c ****   *     @arg DMA2_FLAG_TC3: DMA2 Channel3 transfer complete flag.
 420:./Drivers/src/stm32f10x_dma.c ****   *     @arg DMA2_FLAG_HT3: DMA2 Channel3 half transfer flag.
 421:./Drivers/src/stm32f10x_dma.c ****   *     @arg DMA2_FLAG_TE3: DMA2 Channel3 transfer error flag.
 422:./Drivers/src/stm32f10x_dma.c ****   *     @arg DMA2_FLAG_GL4: DMA2 Channel4 global flag.
 423:./Drivers/src/stm32f10x_dma.c ****   *     @arg DMA2_FLAG_TC4: DMA2 Channel4 transfer complete flag.
 424:./Drivers/src/stm32f10x_dma.c ****   *     @arg DMA2_FLAG_HT4: DMA2 Channel4 half transfer flag.
 425:./Drivers/src/stm32f10x_dma.c ****   *     @arg DMA2_FLAG_TE4: DMA2 Channel4 transfer error flag.
 426:./Drivers/src/stm32f10x_dma.c ****   *     @arg DMA2_FLAG_GL5: DMA2 Channel5 global flag.
 427:./Drivers/src/stm32f10x_dma.c ****   *     @arg DMA2_FLAG_TC5: DMA2 Channel5 transfer complete flag.
 428:./Drivers/src/stm32f10x_dma.c ****   *     @arg DMA2_FLAG_HT5: DMA2 Channel5 half transfer flag.
 429:./Drivers/src/stm32f10x_dma.c ****   *     @arg DMA2_FLAG_TE5: DMA2 Channel5 transfer error flag.
 430:./Drivers/src/stm32f10x_dma.c ****   * @retval The new state of DMAy_FLAG (SET or RESET).
 431:./Drivers/src/stm32f10x_dma.c ****   */
 432:./Drivers/src/stm32f10x_dma.c **** FlagStatus DMA_GetFlagStatus(uint32_t DMAy_FLAG)
 433:./Drivers/src/stm32f10x_dma.c **** {
 541              		.loc 1 433 1 is_stmt 1 view -0
 542              		.cfi_startproc
 543              		@ args = 0, pretend = 0, frame = 0
 544              		@ frame_needed = 0, uses_anonymous_args = 0
 545              		@ link register save eliminated.
 434:./Drivers/src/stm32f10x_dma.c ****   FlagStatus bitstatus = RESET;
 546              		.loc 1 434 3 view .LVU175
 435:./Drivers/src/stm32f10x_dma.c ****   uint32_t tmpreg = 0;
 547              		.loc 1 435 3 view .LVU176
 436:./Drivers/src/stm32f10x_dma.c ****   
 437:./Drivers/src/stm32f10x_dma.c ****   /* Check the parameters */
 438:./Drivers/src/stm32f10x_dma.c ****   assert_param(IS_DMA_GET_FLAG(DMAy_FLAG));
 548              		.loc 1 438 3 view .LVU177
 439:./Drivers/src/stm32f10x_dma.c **** 
 440:./Drivers/src/stm32f10x_dma.c ****   /* Calculate the used DMAy */
 441:./Drivers/src/stm32f10x_dma.c ****   if ((DMAy_FLAG & FLAG_Mask) != (uint32_t)RESET)
 549              		.loc 1 441 3 view .LVU178
 550              		.loc 1 441 6 is_stmt 0 view .LVU179
 551 0000 10F0805F 		tst	r0, #268435456
 552 0004 05D0     		beq	.L40
 442:./Drivers/src/stm32f10x_dma.c ****   {
 443:./Drivers/src/stm32f10x_dma.c ****     /* Get DMA2 ISR register value */
 444:./Drivers/src/stm32f10x_dma.c ****     tmpreg = DMA2->ISR ;
 553              		.loc 1 444 5 is_stmt 1 view .LVU180
 554              		.loc 1 444 12 is_stmt 0 view .LVU181
 555 0006 054B     		ldr	r3, .L44
 556 0008 1B68     		ldr	r3, [r3]
 557              	.LVL16:
 558              	.L41:
 445:./Drivers/src/stm32f10x_dma.c ****   }
 446:./Drivers/src/stm32f10x_dma.c ****   else
ARM GAS  /tmp/ccj0ChJy.s 			page 19


 447:./Drivers/src/stm32f10x_dma.c ****   {
 448:./Drivers/src/stm32f10x_dma.c ****     /* Get DMA1 ISR register value */
 449:./Drivers/src/stm32f10x_dma.c ****     tmpreg = DMA1->ISR ;
 450:./Drivers/src/stm32f10x_dma.c ****   }
 451:./Drivers/src/stm32f10x_dma.c **** 
 452:./Drivers/src/stm32f10x_dma.c ****   /* Check the status of the specified DMAy flag */
 453:./Drivers/src/stm32f10x_dma.c ****   if ((tmpreg & DMAy_FLAG) != (uint32_t)RESET)
 559              		.loc 1 453 3 is_stmt 1 view .LVU182
 560              		.loc 1 453 6 is_stmt 0 view .LVU183
 561 000a 0342     		tst	r3, r0
 562 000c 04D0     		beq	.L43
 454:./Drivers/src/stm32f10x_dma.c ****   {
 455:./Drivers/src/stm32f10x_dma.c ****     /* DMAy_FLAG is set */
 456:./Drivers/src/stm32f10x_dma.c ****     bitstatus = SET;
 563              		.loc 1 456 15 view .LVU184
 564 000e 0120     		movs	r0, #1
 565              	.LVL17:
 566              		.loc 1 456 15 view .LVU185
 567 0010 7047     		bx	lr
 568              	.LVL18:
 569              	.L40:
 449:./Drivers/src/stm32f10x_dma.c ****   }
 570              		.loc 1 449 5 is_stmt 1 view .LVU186
 449:./Drivers/src/stm32f10x_dma.c ****   }
 571              		.loc 1 449 12 is_stmt 0 view .LVU187
 572 0012 034B     		ldr	r3, .L44+4
 573 0014 1B68     		ldr	r3, [r3]
 574              	.LVL19:
 449:./Drivers/src/stm32f10x_dma.c ****   }
 575              		.loc 1 449 12 view .LVU188
 576 0016 F8E7     		b	.L41
 577              	.L43:
 457:./Drivers/src/stm32f10x_dma.c ****   }
 458:./Drivers/src/stm32f10x_dma.c ****   else
 459:./Drivers/src/stm32f10x_dma.c ****   {
 460:./Drivers/src/stm32f10x_dma.c ****     /* DMAy_FLAG is reset */
 461:./Drivers/src/stm32f10x_dma.c ****     bitstatus = RESET;
 578              		.loc 1 461 15 view .LVU189
 579 0018 0020     		movs	r0, #0
 580              	.LVL20:
 462:./Drivers/src/stm32f10x_dma.c ****   }
 463:./Drivers/src/stm32f10x_dma.c ****   
 464:./Drivers/src/stm32f10x_dma.c ****   /* Return the DMAy_FLAG status */
 465:./Drivers/src/stm32f10x_dma.c ****   return  bitstatus;
 581              		.loc 1 465 3 is_stmt 1 view .LVU190
 466:./Drivers/src/stm32f10x_dma.c **** }
 582              		.loc 1 466 1 is_stmt 0 view .LVU191
 583 001a 7047     		bx	lr
 584              	.L45:
 585              		.align	2
 586              	.L44:
 587 001c 00040240 		.word	1073873920
 588 0020 00000240 		.word	1073872896
 589              		.cfi_endproc
 590              	.LFE36:
 592              		.section	.text.DMA_ClearFlag,"ax",%progbits
 593              		.align	1
ARM GAS  /tmp/ccj0ChJy.s 			page 20


 594              		.global	DMA_ClearFlag
 595              		.syntax unified
 596              		.thumb
 597              		.thumb_func
 599              	DMA_ClearFlag:
 600              	.LVL21:
 601              	.LFB37:
 467:./Drivers/src/stm32f10x_dma.c **** 
 468:./Drivers/src/stm32f10x_dma.c **** /**
 469:./Drivers/src/stm32f10x_dma.c ****   * @brief  Clears the DMAy Channelx's pending flags.
 470:./Drivers/src/stm32f10x_dma.c ****   * @param  DMAy_FLAG: specifies the flag to clear.
 471:./Drivers/src/stm32f10x_dma.c ****   *   This parameter can be any combination (for the same DMA) of the following values:
 472:./Drivers/src/stm32f10x_dma.c ****   *     @arg DMA1_FLAG_GL1: DMA1 Channel1 global flag.
 473:./Drivers/src/stm32f10x_dma.c ****   *     @arg DMA1_FLAG_TC1: DMA1 Channel1 transfer complete flag.
 474:./Drivers/src/stm32f10x_dma.c ****   *     @arg DMA1_FLAG_HT1: DMA1 Channel1 half transfer flag.
 475:./Drivers/src/stm32f10x_dma.c ****   *     @arg DMA1_FLAG_TE1: DMA1 Channel1 transfer error flag.
 476:./Drivers/src/stm32f10x_dma.c ****   *     @arg DMA1_FLAG_GL2: DMA1 Channel2 global flag.
 477:./Drivers/src/stm32f10x_dma.c ****   *     @arg DMA1_FLAG_TC2: DMA1 Channel2 transfer complete flag.
 478:./Drivers/src/stm32f10x_dma.c ****   *     @arg DMA1_FLAG_HT2: DMA1 Channel2 half transfer flag.
 479:./Drivers/src/stm32f10x_dma.c ****   *     @arg DMA1_FLAG_TE2: DMA1 Channel2 transfer error flag.
 480:./Drivers/src/stm32f10x_dma.c ****   *     @arg DMA1_FLAG_GL3: DMA1 Channel3 global flag.
 481:./Drivers/src/stm32f10x_dma.c ****   *     @arg DMA1_FLAG_TC3: DMA1 Channel3 transfer complete flag.
 482:./Drivers/src/stm32f10x_dma.c ****   *     @arg DMA1_FLAG_HT3: DMA1 Channel3 half transfer flag.
 483:./Drivers/src/stm32f10x_dma.c ****   *     @arg DMA1_FLAG_TE3: DMA1 Channel3 transfer error flag.
 484:./Drivers/src/stm32f10x_dma.c ****   *     @arg DMA1_FLAG_GL4: DMA1 Channel4 global flag.
 485:./Drivers/src/stm32f10x_dma.c ****   *     @arg DMA1_FLAG_TC4: DMA1 Channel4 transfer complete flag.
 486:./Drivers/src/stm32f10x_dma.c ****   *     @arg DMA1_FLAG_HT4: DMA1 Channel4 half transfer flag.
 487:./Drivers/src/stm32f10x_dma.c ****   *     @arg DMA1_FLAG_TE4: DMA1 Channel4 transfer error flag.
 488:./Drivers/src/stm32f10x_dma.c ****   *     @arg DMA1_FLAG_GL5: DMA1 Channel5 global flag.
 489:./Drivers/src/stm32f10x_dma.c ****   *     @arg DMA1_FLAG_TC5: DMA1 Channel5 transfer complete flag.
 490:./Drivers/src/stm32f10x_dma.c ****   *     @arg DMA1_FLAG_HT5: DMA1 Channel5 half transfer flag.
 491:./Drivers/src/stm32f10x_dma.c ****   *     @arg DMA1_FLAG_TE5: DMA1 Channel5 transfer error flag.
 492:./Drivers/src/stm32f10x_dma.c ****   *     @arg DMA1_FLAG_GL6: DMA1 Channel6 global flag.
 493:./Drivers/src/stm32f10x_dma.c ****   *     @arg DMA1_FLAG_TC6: DMA1 Channel6 transfer complete flag.
 494:./Drivers/src/stm32f10x_dma.c ****   *     @arg DMA1_FLAG_HT6: DMA1 Channel6 half transfer flag.
 495:./Drivers/src/stm32f10x_dma.c ****   *     @arg DMA1_FLAG_TE6: DMA1 Channel6 transfer error flag.
 496:./Drivers/src/stm32f10x_dma.c ****   *     @arg DMA1_FLAG_GL7: DMA1 Channel7 global flag.
 497:./Drivers/src/stm32f10x_dma.c ****   *     @arg DMA1_FLAG_TC7: DMA1 Channel7 transfer complete flag.
 498:./Drivers/src/stm32f10x_dma.c ****   *     @arg DMA1_FLAG_HT7: DMA1 Channel7 half transfer flag.
 499:./Drivers/src/stm32f10x_dma.c ****   *     @arg DMA1_FLAG_TE7: DMA1 Channel7 transfer error flag.
 500:./Drivers/src/stm32f10x_dma.c ****   *     @arg DMA2_FLAG_GL1: DMA2 Channel1 global flag.
 501:./Drivers/src/stm32f10x_dma.c ****   *     @arg DMA2_FLAG_TC1: DMA2 Channel1 transfer complete flag.
 502:./Drivers/src/stm32f10x_dma.c ****   *     @arg DMA2_FLAG_HT1: DMA2 Channel1 half transfer flag.
 503:./Drivers/src/stm32f10x_dma.c ****   *     @arg DMA2_FLAG_TE1: DMA2 Channel1 transfer error flag.
 504:./Drivers/src/stm32f10x_dma.c ****   *     @arg DMA2_FLAG_GL2: DMA2 Channel2 global flag.
 505:./Drivers/src/stm32f10x_dma.c ****   *     @arg DMA2_FLAG_TC2: DMA2 Channel2 transfer complete flag.
 506:./Drivers/src/stm32f10x_dma.c ****   *     @arg DMA2_FLAG_HT2: DMA2 Channel2 half transfer flag.
 507:./Drivers/src/stm32f10x_dma.c ****   *     @arg DMA2_FLAG_TE2: DMA2 Channel2 transfer error flag.
 508:./Drivers/src/stm32f10x_dma.c ****   *     @arg DMA2_FLAG_GL3: DMA2 Channel3 global flag.
 509:./Drivers/src/stm32f10x_dma.c ****   *     @arg DMA2_FLAG_TC3: DMA2 Channel3 transfer complete flag.
 510:./Drivers/src/stm32f10x_dma.c ****   *     @arg DMA2_FLAG_HT3: DMA2 Channel3 half transfer flag.
 511:./Drivers/src/stm32f10x_dma.c ****   *     @arg DMA2_FLAG_TE3: DMA2 Channel3 transfer error flag.
 512:./Drivers/src/stm32f10x_dma.c ****   *     @arg DMA2_FLAG_GL4: DMA2 Channel4 global flag.
 513:./Drivers/src/stm32f10x_dma.c ****   *     @arg DMA2_FLAG_TC4: DMA2 Channel4 transfer complete flag.
 514:./Drivers/src/stm32f10x_dma.c ****   *     @arg DMA2_FLAG_HT4: DMA2 Channel4 half transfer flag.
 515:./Drivers/src/stm32f10x_dma.c ****   *     @arg DMA2_FLAG_TE4: DMA2 Channel4 transfer error flag.
 516:./Drivers/src/stm32f10x_dma.c ****   *     @arg DMA2_FLAG_GL5: DMA2 Channel5 global flag.
ARM GAS  /tmp/ccj0ChJy.s 			page 21


 517:./Drivers/src/stm32f10x_dma.c ****   *     @arg DMA2_FLAG_TC5: DMA2 Channel5 transfer complete flag.
 518:./Drivers/src/stm32f10x_dma.c ****   *     @arg DMA2_FLAG_HT5: DMA2 Channel5 half transfer flag.
 519:./Drivers/src/stm32f10x_dma.c ****   *     @arg DMA2_FLAG_TE5: DMA2 Channel5 transfer error flag.
 520:./Drivers/src/stm32f10x_dma.c ****   * @retval None
 521:./Drivers/src/stm32f10x_dma.c ****   */
 522:./Drivers/src/stm32f10x_dma.c **** void DMA_ClearFlag(uint32_t DMAy_FLAG)
 523:./Drivers/src/stm32f10x_dma.c **** {
 602              		.loc 1 523 1 is_stmt 1 view -0
 603              		.cfi_startproc
 604              		@ args = 0, pretend = 0, frame = 0
 605              		@ frame_needed = 0, uses_anonymous_args = 0
 606              		@ link register save eliminated.
 524:./Drivers/src/stm32f10x_dma.c ****   /* Check the parameters */
 525:./Drivers/src/stm32f10x_dma.c ****   assert_param(IS_DMA_CLEAR_FLAG(DMAy_FLAG));
 607              		.loc 1 525 3 view .LVU193
 526:./Drivers/src/stm32f10x_dma.c **** 
 527:./Drivers/src/stm32f10x_dma.c ****   /* Calculate the used DMAy */
 528:./Drivers/src/stm32f10x_dma.c ****   if ((DMAy_FLAG & FLAG_Mask) != (uint32_t)RESET)
 608              		.loc 1 528 3 view .LVU194
 609              		.loc 1 528 6 is_stmt 0 view .LVU195
 610 0000 10F0805F 		tst	r0, #268435456
 611 0004 02D0     		beq	.L47
 529:./Drivers/src/stm32f10x_dma.c ****   {
 530:./Drivers/src/stm32f10x_dma.c ****     /* Clear the selected DMAy flags */
 531:./Drivers/src/stm32f10x_dma.c ****     DMA2->IFCR = DMAy_FLAG;
 612              		.loc 1 531 5 is_stmt 1 view .LVU196
 613              		.loc 1 531 16 is_stmt 0 view .LVU197
 614 0006 034B     		ldr	r3, .L49
 615 0008 5860     		str	r0, [r3, #4]
 616 000a 7047     		bx	lr
 617              	.L47:
 532:./Drivers/src/stm32f10x_dma.c ****   }
 533:./Drivers/src/stm32f10x_dma.c ****   else
 534:./Drivers/src/stm32f10x_dma.c ****   {
 535:./Drivers/src/stm32f10x_dma.c ****     /* Clear the selected DMAy flags */
 536:./Drivers/src/stm32f10x_dma.c ****     DMA1->IFCR = DMAy_FLAG;
 618              		.loc 1 536 5 is_stmt 1 view .LVU198
 619              		.loc 1 536 16 is_stmt 0 view .LVU199
 620 000c 024B     		ldr	r3, .L49+4
 621 000e 5860     		str	r0, [r3, #4]
 537:./Drivers/src/stm32f10x_dma.c ****   }
 538:./Drivers/src/stm32f10x_dma.c **** }
 622              		.loc 1 538 1 view .LVU200
 623 0010 7047     		bx	lr
 624              	.L50:
 625 0012 00BF     		.align	2
 626              	.L49:
 627 0014 00040240 		.word	1073873920
 628 0018 00000240 		.word	1073872896
 629              		.cfi_endproc
 630              	.LFE37:
 632              		.section	.text.DMA_GetITStatus,"ax",%progbits
 633              		.align	1
 634              		.global	DMA_GetITStatus
 635              		.syntax unified
 636              		.thumb
 637              		.thumb_func
ARM GAS  /tmp/ccj0ChJy.s 			page 22


 639              	DMA_GetITStatus:
 640              	.LVL22:
 641              	.LFB38:
 539:./Drivers/src/stm32f10x_dma.c **** 
 540:./Drivers/src/stm32f10x_dma.c **** /**
 541:./Drivers/src/stm32f10x_dma.c ****   * @brief  Checks whether the specified DMAy Channelx interrupt has occurred or not.
 542:./Drivers/src/stm32f10x_dma.c ****   * @param  DMAy_IT: specifies the DMAy interrupt source to check. 
 543:./Drivers/src/stm32f10x_dma.c ****   *   This parameter can be one of the following values:
 544:./Drivers/src/stm32f10x_dma.c ****   *     @arg DMA1_IT_GL1: DMA1 Channel1 global interrupt.
 545:./Drivers/src/stm32f10x_dma.c ****   *     @arg DMA1_IT_TC1: DMA1 Channel1 transfer complete interrupt.
 546:./Drivers/src/stm32f10x_dma.c ****   *     @arg DMA1_IT_HT1: DMA1 Channel1 half transfer interrupt.
 547:./Drivers/src/stm32f10x_dma.c ****   *     @arg DMA1_IT_TE1: DMA1 Channel1 transfer error interrupt.
 548:./Drivers/src/stm32f10x_dma.c ****   *     @arg DMA1_IT_GL2: DMA1 Channel2 global interrupt.
 549:./Drivers/src/stm32f10x_dma.c ****   *     @arg DMA1_IT_TC2: DMA1 Channel2 transfer complete interrupt.
 550:./Drivers/src/stm32f10x_dma.c ****   *     @arg DMA1_IT_HT2: DMA1 Channel2 half transfer interrupt.
 551:./Drivers/src/stm32f10x_dma.c ****   *     @arg DMA1_IT_TE2: DMA1 Channel2 transfer error interrupt.
 552:./Drivers/src/stm32f10x_dma.c ****   *     @arg DMA1_IT_GL3: DMA1 Channel3 global interrupt.
 553:./Drivers/src/stm32f10x_dma.c ****   *     @arg DMA1_IT_TC3: DMA1 Channel3 transfer complete interrupt.
 554:./Drivers/src/stm32f10x_dma.c ****   *     @arg DMA1_IT_HT3: DMA1 Channel3 half transfer interrupt.
 555:./Drivers/src/stm32f10x_dma.c ****   *     @arg DMA1_IT_TE3: DMA1 Channel3 transfer error interrupt.
 556:./Drivers/src/stm32f10x_dma.c ****   *     @arg DMA1_IT_GL4: DMA1 Channel4 global interrupt.
 557:./Drivers/src/stm32f10x_dma.c ****   *     @arg DMA1_IT_TC4: DMA1 Channel4 transfer complete interrupt.
 558:./Drivers/src/stm32f10x_dma.c ****   *     @arg DMA1_IT_HT4: DMA1 Channel4 half transfer interrupt.
 559:./Drivers/src/stm32f10x_dma.c ****   *     @arg DMA1_IT_TE4: DMA1 Channel4 transfer error interrupt.
 560:./Drivers/src/stm32f10x_dma.c ****   *     @arg DMA1_IT_GL5: DMA1 Channel5 global interrupt.
 561:./Drivers/src/stm32f10x_dma.c ****   *     @arg DMA1_IT_TC5: DMA1 Channel5 transfer complete interrupt.
 562:./Drivers/src/stm32f10x_dma.c ****   *     @arg DMA1_IT_HT5: DMA1 Channel5 half transfer interrupt.
 563:./Drivers/src/stm32f10x_dma.c ****   *     @arg DMA1_IT_TE5: DMA1 Channel5 transfer error interrupt.
 564:./Drivers/src/stm32f10x_dma.c ****   *     @arg DMA1_IT_GL6: DMA1 Channel6 global interrupt.
 565:./Drivers/src/stm32f10x_dma.c ****   *     @arg DMA1_IT_TC6: DMA1 Channel6 transfer complete interrupt.
 566:./Drivers/src/stm32f10x_dma.c ****   *     @arg DMA1_IT_HT6: DMA1 Channel6 half transfer interrupt.
 567:./Drivers/src/stm32f10x_dma.c ****   *     @arg DMA1_IT_TE6: DMA1 Channel6 transfer error interrupt.
 568:./Drivers/src/stm32f10x_dma.c ****   *     @arg DMA1_IT_GL7: DMA1 Channel7 global interrupt.
 569:./Drivers/src/stm32f10x_dma.c ****   *     @arg DMA1_IT_TC7: DMA1 Channel7 transfer complete interrupt.
 570:./Drivers/src/stm32f10x_dma.c ****   *     @arg DMA1_IT_HT7: DMA1 Channel7 half transfer interrupt.
 571:./Drivers/src/stm32f10x_dma.c ****   *     @arg DMA1_IT_TE7: DMA1 Channel7 transfer error interrupt.
 572:./Drivers/src/stm32f10x_dma.c ****   *     @arg DMA2_IT_GL1: DMA2 Channel1 global interrupt.
 573:./Drivers/src/stm32f10x_dma.c ****   *     @arg DMA2_IT_TC1: DMA2 Channel1 transfer complete interrupt.
 574:./Drivers/src/stm32f10x_dma.c ****   *     @arg DMA2_IT_HT1: DMA2 Channel1 half transfer interrupt.
 575:./Drivers/src/stm32f10x_dma.c ****   *     @arg DMA2_IT_TE1: DMA2 Channel1 transfer error interrupt.
 576:./Drivers/src/stm32f10x_dma.c ****   *     @arg DMA2_IT_GL2: DMA2 Channel2 global interrupt.
 577:./Drivers/src/stm32f10x_dma.c ****   *     @arg DMA2_IT_TC2: DMA2 Channel2 transfer complete interrupt.
 578:./Drivers/src/stm32f10x_dma.c ****   *     @arg DMA2_IT_HT2: DMA2 Channel2 half transfer interrupt.
 579:./Drivers/src/stm32f10x_dma.c ****   *     @arg DMA2_IT_TE2: DMA2 Channel2 transfer error interrupt.
 580:./Drivers/src/stm32f10x_dma.c ****   *     @arg DMA2_IT_GL3: DMA2 Channel3 global interrupt.
 581:./Drivers/src/stm32f10x_dma.c ****   *     @arg DMA2_IT_TC3: DMA2 Channel3 transfer complete interrupt.
 582:./Drivers/src/stm32f10x_dma.c ****   *     @arg DMA2_IT_HT3: DMA2 Channel3 half transfer interrupt.
 583:./Drivers/src/stm32f10x_dma.c ****   *     @arg DMA2_IT_TE3: DMA2 Channel3 transfer error interrupt.
 584:./Drivers/src/stm32f10x_dma.c ****   *     @arg DMA2_IT_GL4: DMA2 Channel4 global interrupt.
 585:./Drivers/src/stm32f10x_dma.c ****   *     @arg DMA2_IT_TC4: DMA2 Channel4 transfer complete interrupt.
 586:./Drivers/src/stm32f10x_dma.c ****   *     @arg DMA2_IT_HT4: DMA2 Channel4 half transfer interrupt.
 587:./Drivers/src/stm32f10x_dma.c ****   *     @arg DMA2_IT_TE4: DMA2 Channel4 transfer error interrupt.
 588:./Drivers/src/stm32f10x_dma.c ****   *     @arg DMA2_IT_GL5: DMA2 Channel5 global interrupt.
 589:./Drivers/src/stm32f10x_dma.c ****   *     @arg DMA2_IT_TC5: DMA2 Channel5 transfer complete interrupt.
 590:./Drivers/src/stm32f10x_dma.c ****   *     @arg DMA2_IT_HT5: DMA2 Channel5 half transfer interrupt.
 591:./Drivers/src/stm32f10x_dma.c ****   *     @arg DMA2_IT_TE5: DMA2 Channel5 transfer error interrupt.
 592:./Drivers/src/stm32f10x_dma.c ****   * @retval The new state of DMAy_IT (SET or RESET).
ARM GAS  /tmp/ccj0ChJy.s 			page 23


 593:./Drivers/src/stm32f10x_dma.c ****   */
 594:./Drivers/src/stm32f10x_dma.c **** ITStatus DMA_GetITStatus(uint32_t DMAy_IT)
 595:./Drivers/src/stm32f10x_dma.c **** {
 642              		.loc 1 595 1 is_stmt 1 view -0
 643              		.cfi_startproc
 644              		@ args = 0, pretend = 0, frame = 0
 645              		@ frame_needed = 0, uses_anonymous_args = 0
 646              		@ link register save eliminated.
 596:./Drivers/src/stm32f10x_dma.c ****   ITStatus bitstatus = RESET;
 647              		.loc 1 596 3 view .LVU202
 597:./Drivers/src/stm32f10x_dma.c ****   uint32_t tmpreg = 0;
 648              		.loc 1 597 3 view .LVU203
 598:./Drivers/src/stm32f10x_dma.c **** 
 599:./Drivers/src/stm32f10x_dma.c ****   /* Check the parameters */
 600:./Drivers/src/stm32f10x_dma.c ****   assert_param(IS_DMA_GET_IT(DMAy_IT));
 649              		.loc 1 600 3 view .LVU204
 601:./Drivers/src/stm32f10x_dma.c **** 
 602:./Drivers/src/stm32f10x_dma.c ****   /* Calculate the used DMA */
 603:./Drivers/src/stm32f10x_dma.c ****   if ((DMAy_IT & FLAG_Mask) != (uint32_t)RESET)
 650              		.loc 1 603 3 view .LVU205
 651              		.loc 1 603 6 is_stmt 0 view .LVU206
 652 0000 10F0805F 		tst	r0, #268435456
 653 0004 05D0     		beq	.L52
 604:./Drivers/src/stm32f10x_dma.c ****   {
 605:./Drivers/src/stm32f10x_dma.c ****     /* Get DMA2 ISR register value */
 606:./Drivers/src/stm32f10x_dma.c ****     tmpreg = DMA2->ISR;
 654              		.loc 1 606 5 is_stmt 1 view .LVU207
 655              		.loc 1 606 12 is_stmt 0 view .LVU208
 656 0006 054B     		ldr	r3, .L56
 657 0008 1B68     		ldr	r3, [r3]
 658              	.LVL23:
 659              	.L53:
 607:./Drivers/src/stm32f10x_dma.c ****   }
 608:./Drivers/src/stm32f10x_dma.c ****   else
 609:./Drivers/src/stm32f10x_dma.c ****   {
 610:./Drivers/src/stm32f10x_dma.c ****     /* Get DMA1 ISR register value */
 611:./Drivers/src/stm32f10x_dma.c ****     tmpreg = DMA1->ISR;
 612:./Drivers/src/stm32f10x_dma.c ****   }
 613:./Drivers/src/stm32f10x_dma.c **** 
 614:./Drivers/src/stm32f10x_dma.c ****   /* Check the status of the specified DMAy interrupt */
 615:./Drivers/src/stm32f10x_dma.c ****   if ((tmpreg & DMAy_IT) != (uint32_t)RESET)
 660              		.loc 1 615 3 is_stmt 1 view .LVU209
 661              		.loc 1 615 6 is_stmt 0 view .LVU210
 662 000a 0342     		tst	r3, r0
 663 000c 04D0     		beq	.L55
 616:./Drivers/src/stm32f10x_dma.c ****   {
 617:./Drivers/src/stm32f10x_dma.c ****     /* DMAy_IT is set */
 618:./Drivers/src/stm32f10x_dma.c ****     bitstatus = SET;
 664              		.loc 1 618 15 view .LVU211
 665 000e 0120     		movs	r0, #1
 666              	.LVL24:
 667              		.loc 1 618 15 view .LVU212
 668 0010 7047     		bx	lr
 669              	.LVL25:
 670              	.L52:
 611:./Drivers/src/stm32f10x_dma.c ****   }
 671              		.loc 1 611 5 is_stmt 1 view .LVU213
ARM GAS  /tmp/ccj0ChJy.s 			page 24


 611:./Drivers/src/stm32f10x_dma.c ****   }
 672              		.loc 1 611 12 is_stmt 0 view .LVU214
 673 0012 034B     		ldr	r3, .L56+4
 674 0014 1B68     		ldr	r3, [r3]
 675              	.LVL26:
 611:./Drivers/src/stm32f10x_dma.c ****   }
 676              		.loc 1 611 12 view .LVU215
 677 0016 F8E7     		b	.L53
 678              	.L55:
 619:./Drivers/src/stm32f10x_dma.c ****   }
 620:./Drivers/src/stm32f10x_dma.c ****   else
 621:./Drivers/src/stm32f10x_dma.c ****   {
 622:./Drivers/src/stm32f10x_dma.c ****     /* DMAy_IT is reset */
 623:./Drivers/src/stm32f10x_dma.c ****     bitstatus = RESET;
 679              		.loc 1 623 15 view .LVU216
 680 0018 0020     		movs	r0, #0
 681              	.LVL27:
 624:./Drivers/src/stm32f10x_dma.c ****   }
 625:./Drivers/src/stm32f10x_dma.c ****   /* Return the DMA_IT status */
 626:./Drivers/src/stm32f10x_dma.c ****   return  bitstatus;
 682              		.loc 1 626 3 is_stmt 1 view .LVU217
 627:./Drivers/src/stm32f10x_dma.c **** }
 683              		.loc 1 627 1 is_stmt 0 view .LVU218
 684 001a 7047     		bx	lr
 685              	.L57:
 686              		.align	2
 687              	.L56:
 688 001c 00040240 		.word	1073873920
 689 0020 00000240 		.word	1073872896
 690              		.cfi_endproc
 691              	.LFE38:
 693              		.section	.text.DMA_ClearITPendingBit,"ax",%progbits
 694              		.align	1
 695              		.global	DMA_ClearITPendingBit
 696              		.syntax unified
 697              		.thumb
 698              		.thumb_func
 700              	DMA_ClearITPendingBit:
 701              	.LVL28:
 702              	.LFB39:
 628:./Drivers/src/stm32f10x_dma.c **** 
 629:./Drivers/src/stm32f10x_dma.c **** /**
 630:./Drivers/src/stm32f10x_dma.c ****   * @brief  Clears the DMAy Channelx's interrupt pending bits.
 631:./Drivers/src/stm32f10x_dma.c ****   * @param  DMAy_IT: specifies the DMAy interrupt pending bit to clear.
 632:./Drivers/src/stm32f10x_dma.c ****   *   This parameter can be any combination (for the same DMA) of the following values:
 633:./Drivers/src/stm32f10x_dma.c ****   *     @arg DMA1_IT_GL1: DMA1 Channel1 global interrupt.
 634:./Drivers/src/stm32f10x_dma.c ****   *     @arg DMA1_IT_TC1: DMA1 Channel1 transfer complete interrupt.
 635:./Drivers/src/stm32f10x_dma.c ****   *     @arg DMA1_IT_HT1: DMA1 Channel1 half transfer interrupt.
 636:./Drivers/src/stm32f10x_dma.c ****   *     @arg DMA1_IT_TE1: DMA1 Channel1 transfer error interrupt.
 637:./Drivers/src/stm32f10x_dma.c ****   *     @arg DMA1_IT_GL2: DMA1 Channel2 global interrupt.
 638:./Drivers/src/stm32f10x_dma.c ****   *     @arg DMA1_IT_TC2: DMA1 Channel2 transfer complete interrupt.
 639:./Drivers/src/stm32f10x_dma.c ****   *     @arg DMA1_IT_HT2: DMA1 Channel2 half transfer interrupt.
 640:./Drivers/src/stm32f10x_dma.c ****   *     @arg DMA1_IT_TE2: DMA1 Channel2 transfer error interrupt.
 641:./Drivers/src/stm32f10x_dma.c ****   *     @arg DMA1_IT_GL3: DMA1 Channel3 global interrupt.
 642:./Drivers/src/stm32f10x_dma.c ****   *     @arg DMA1_IT_TC3: DMA1 Channel3 transfer complete interrupt.
 643:./Drivers/src/stm32f10x_dma.c ****   *     @arg DMA1_IT_HT3: DMA1 Channel3 half transfer interrupt.
 644:./Drivers/src/stm32f10x_dma.c ****   *     @arg DMA1_IT_TE3: DMA1 Channel3 transfer error interrupt.
ARM GAS  /tmp/ccj0ChJy.s 			page 25


 645:./Drivers/src/stm32f10x_dma.c ****   *     @arg DMA1_IT_GL4: DMA1 Channel4 global interrupt.
 646:./Drivers/src/stm32f10x_dma.c ****   *     @arg DMA1_IT_TC4: DMA1 Channel4 transfer complete interrupt.
 647:./Drivers/src/stm32f10x_dma.c ****   *     @arg DMA1_IT_HT4: DMA1 Channel4 half transfer interrupt.
 648:./Drivers/src/stm32f10x_dma.c ****   *     @arg DMA1_IT_TE4: DMA1 Channel4 transfer error interrupt.
 649:./Drivers/src/stm32f10x_dma.c ****   *     @arg DMA1_IT_GL5: DMA1 Channel5 global interrupt.
 650:./Drivers/src/stm32f10x_dma.c ****   *     @arg DMA1_IT_TC5: DMA1 Channel5 transfer complete interrupt.
 651:./Drivers/src/stm32f10x_dma.c ****   *     @arg DMA1_IT_HT5: DMA1 Channel5 half transfer interrupt.
 652:./Drivers/src/stm32f10x_dma.c ****   *     @arg DMA1_IT_TE5: DMA1 Channel5 transfer error interrupt.
 653:./Drivers/src/stm32f10x_dma.c ****   *     @arg DMA1_IT_GL6: DMA1 Channel6 global interrupt.
 654:./Drivers/src/stm32f10x_dma.c ****   *     @arg DMA1_IT_TC6: DMA1 Channel6 transfer complete interrupt.
 655:./Drivers/src/stm32f10x_dma.c ****   *     @arg DMA1_IT_HT6: DMA1 Channel6 half transfer interrupt.
 656:./Drivers/src/stm32f10x_dma.c ****   *     @arg DMA1_IT_TE6: DMA1 Channel6 transfer error interrupt.
 657:./Drivers/src/stm32f10x_dma.c ****   *     @arg DMA1_IT_GL7: DMA1 Channel7 global interrupt.
 658:./Drivers/src/stm32f10x_dma.c ****   *     @arg DMA1_IT_TC7: DMA1 Channel7 transfer complete interrupt.
 659:./Drivers/src/stm32f10x_dma.c ****   *     @arg DMA1_IT_HT7: DMA1 Channel7 half transfer interrupt.
 660:./Drivers/src/stm32f10x_dma.c ****   *     @arg DMA1_IT_TE7: DMA1 Channel7 transfer error interrupt.
 661:./Drivers/src/stm32f10x_dma.c ****   *     @arg DMA2_IT_GL1: DMA2 Channel1 global interrupt.
 662:./Drivers/src/stm32f10x_dma.c ****   *     @arg DMA2_IT_TC1: DMA2 Channel1 transfer complete interrupt.
 663:./Drivers/src/stm32f10x_dma.c ****   *     @arg DMA2_IT_HT1: DMA2 Channel1 half transfer interrupt.
 664:./Drivers/src/stm32f10x_dma.c ****   *     @arg DMA2_IT_TE1: DMA2 Channel1 transfer error interrupt.
 665:./Drivers/src/stm32f10x_dma.c ****   *     @arg DMA2_IT_GL2: DMA2 Channel2 global interrupt.
 666:./Drivers/src/stm32f10x_dma.c ****   *     @arg DMA2_IT_TC2: DMA2 Channel2 transfer complete interrupt.
 667:./Drivers/src/stm32f10x_dma.c ****   *     @arg DMA2_IT_HT2: DMA2 Channel2 half transfer interrupt.
 668:./Drivers/src/stm32f10x_dma.c ****   *     @arg DMA2_IT_TE2: DMA2 Channel2 transfer error interrupt.
 669:./Drivers/src/stm32f10x_dma.c ****   *     @arg DMA2_IT_GL3: DMA2 Channel3 global interrupt.
 670:./Drivers/src/stm32f10x_dma.c ****   *     @arg DMA2_IT_TC3: DMA2 Channel3 transfer complete interrupt.
 671:./Drivers/src/stm32f10x_dma.c ****   *     @arg DMA2_IT_HT3: DMA2 Channel3 half transfer interrupt.
 672:./Drivers/src/stm32f10x_dma.c ****   *     @arg DMA2_IT_TE3: DMA2 Channel3 transfer error interrupt.
 673:./Drivers/src/stm32f10x_dma.c ****   *     @arg DMA2_IT_GL4: DMA2 Channel4 global interrupt.
 674:./Drivers/src/stm32f10x_dma.c ****   *     @arg DMA2_IT_TC4: DMA2 Channel4 transfer complete interrupt.
 675:./Drivers/src/stm32f10x_dma.c ****   *     @arg DMA2_IT_HT4: DMA2 Channel4 half transfer interrupt.
 676:./Drivers/src/stm32f10x_dma.c ****   *     @arg DMA2_IT_TE4: DMA2 Channel4 transfer error interrupt.
 677:./Drivers/src/stm32f10x_dma.c ****   *     @arg DMA2_IT_GL5: DMA2 Channel5 global interrupt.
 678:./Drivers/src/stm32f10x_dma.c ****   *     @arg DMA2_IT_TC5: DMA2 Channel5 transfer complete interrupt.
 679:./Drivers/src/stm32f10x_dma.c ****   *     @arg DMA2_IT_HT5: DMA2 Channel5 half transfer interrupt.
 680:./Drivers/src/stm32f10x_dma.c ****   *     @arg DMA2_IT_TE5: DMA2 Channel5 transfer error interrupt.
 681:./Drivers/src/stm32f10x_dma.c ****   * @retval None
 682:./Drivers/src/stm32f10x_dma.c ****   */
 683:./Drivers/src/stm32f10x_dma.c **** void DMA_ClearITPendingBit(uint32_t DMAy_IT)
 684:./Drivers/src/stm32f10x_dma.c **** {
 703              		.loc 1 684 1 is_stmt 1 view -0
 704              		.cfi_startproc
 705              		@ args = 0, pretend = 0, frame = 0
 706              		@ frame_needed = 0, uses_anonymous_args = 0
 707              		@ link register save eliminated.
 685:./Drivers/src/stm32f10x_dma.c ****   /* Check the parameters */
 686:./Drivers/src/stm32f10x_dma.c ****   assert_param(IS_DMA_CLEAR_IT(DMAy_IT));
 708              		.loc 1 686 3 view .LVU220
 687:./Drivers/src/stm32f10x_dma.c **** 
 688:./Drivers/src/stm32f10x_dma.c ****   /* Calculate the used DMAy */
 689:./Drivers/src/stm32f10x_dma.c ****   if ((DMAy_IT & FLAG_Mask) != (uint32_t)RESET)
 709              		.loc 1 689 3 view .LVU221
 710              		.loc 1 689 6 is_stmt 0 view .LVU222
 711 0000 10F0805F 		tst	r0, #268435456
 712 0004 02D0     		beq	.L59
 690:./Drivers/src/stm32f10x_dma.c ****   {
 691:./Drivers/src/stm32f10x_dma.c ****     /* Clear the selected DMAy interrupt pending bits */
ARM GAS  /tmp/ccj0ChJy.s 			page 26


 692:./Drivers/src/stm32f10x_dma.c ****     DMA2->IFCR = DMAy_IT;
 713              		.loc 1 692 5 is_stmt 1 view .LVU223
 714              		.loc 1 692 16 is_stmt 0 view .LVU224
 715 0006 034B     		ldr	r3, .L61
 716 0008 5860     		str	r0, [r3, #4]
 717 000a 7047     		bx	lr
 718              	.L59:
 693:./Drivers/src/stm32f10x_dma.c ****   }
 694:./Drivers/src/stm32f10x_dma.c ****   else
 695:./Drivers/src/stm32f10x_dma.c ****   {
 696:./Drivers/src/stm32f10x_dma.c ****     /* Clear the selected DMAy interrupt pending bits */
 697:./Drivers/src/stm32f10x_dma.c ****     DMA1->IFCR = DMAy_IT;
 719              		.loc 1 697 5 is_stmt 1 view .LVU225
 720              		.loc 1 697 16 is_stmt 0 view .LVU226
 721 000c 024B     		ldr	r3, .L61+4
 722 000e 5860     		str	r0, [r3, #4]
 698:./Drivers/src/stm32f10x_dma.c ****   }
 699:./Drivers/src/stm32f10x_dma.c **** }
 723              		.loc 1 699 1 view .LVU227
 724 0010 7047     		bx	lr
 725              	.L62:
 726 0012 00BF     		.align	2
 727              	.L61:
 728 0014 00040240 		.word	1073873920
 729 0018 00000240 		.word	1073872896
 730              		.cfi_endproc
 731              	.LFE39:
 733              		.text
 734              	.Letext0:
 735              		.file 2 "/usr/lib/gcc/arm-none-eabi/12.2.1/include/stdint.h"
 736              		.file 3 "cmsis/stm32f10x.h"
 737              		.file 4 "Drivers/inc/stm32f10x_dma.h"
ARM GAS  /tmp/ccj0ChJy.s 			page 27

