ARM GAS  /tmp/ccXaqWhu.s 			page 1


   1              		.cpu cortex-m3
   2              		.arch armv7-m
   3              		.fpu softvfp
   4              		.eabi_attribute 20, 1
   5              		.eabi_attribute 21, 1
   6              		.eabi_attribute 23, 3
   7              		.eabi_attribute 24, 1
   8              		.eabi_attribute 25, 1
   9              		.eabi_attribute 26, 1
  10              		.eabi_attribute 30, 1
  11              		.eabi_attribute 34, 1
  12              		.eabi_attribute 18, 4
  13              		.file	"stm32f10x_usart.c"
  14              		.text
  15              	.Ltext0:
  16              		.cfi_sections	.debug_frame
  17              		.file 1 "./Drivers/src/stm32f10x_usart.c"
  18              		.section	.text.USART_DeInit,"ax",%progbits
  19              		.align	1
  20              		.global	USART_DeInit
  21              		.syntax unified
  22              		.thumb
  23              		.thumb_func
  25              	USART_DeInit:
  26              	.LVL0:
  27              	.LFB29:
   1:./Drivers/src/stm32f10x_usart.c **** /**
   2:./Drivers/src/stm32f10x_usart.c ****   ******************************************************************************
   3:./Drivers/src/stm32f10x_usart.c ****   * @file    stm32f10x_usart.c
   4:./Drivers/src/stm32f10x_usart.c ****   * @author  MCD Application Team
   5:./Drivers/src/stm32f10x_usart.c ****   * @version V3.6.2
   6:./Drivers/src/stm32f10x_usart.c ****   * @date    17-September-2021
   7:./Drivers/src/stm32f10x_usart.c ****   * @brief   This file provides all the USART firmware functions.
   8:./Drivers/src/stm32f10x_usart.c ****   ******************************************************************************
   9:./Drivers/src/stm32f10x_usart.c ****   * @attention
  10:./Drivers/src/stm32f10x_usart.c ****   *
  11:./Drivers/src/stm32f10x_usart.c ****   * Copyright (c) 2012 STMicroelectronics.
  12:./Drivers/src/stm32f10x_usart.c ****   * All rights reserved.
  13:./Drivers/src/stm32f10x_usart.c ****   *
  14:./Drivers/src/stm32f10x_usart.c ****   * This software is licensed under terms that can be found in the LICENSE file
  15:./Drivers/src/stm32f10x_usart.c ****   * in the root directory of this software component.
  16:./Drivers/src/stm32f10x_usart.c ****   * If no LICENSE file comes with this software, it is provided AS-IS.
  17:./Drivers/src/stm32f10x_usart.c ****   *
  18:./Drivers/src/stm32f10x_usart.c ****   ******************************************************************************
  19:./Drivers/src/stm32f10x_usart.c ****   */
  20:./Drivers/src/stm32f10x_usart.c **** 
  21:./Drivers/src/stm32f10x_usart.c **** /* Includes ------------------------------------------------------------------*/
  22:./Drivers/src/stm32f10x_usart.c **** #include "stm32f10x_usart.h"
  23:./Drivers/src/stm32f10x_usart.c **** #include "stm32f10x_rcc.h"
  24:./Drivers/src/stm32f10x_usart.c **** 
  25:./Drivers/src/stm32f10x_usart.c **** /** @addtogroup STM32F10x_StdPeriph_Driver
  26:./Drivers/src/stm32f10x_usart.c ****   * @{
  27:./Drivers/src/stm32f10x_usart.c ****   */
  28:./Drivers/src/stm32f10x_usart.c **** 
  29:./Drivers/src/stm32f10x_usart.c **** /** @defgroup USART 
  30:./Drivers/src/stm32f10x_usart.c ****   * @brief USART driver modules
  31:./Drivers/src/stm32f10x_usart.c ****   * @{
ARM GAS  /tmp/ccXaqWhu.s 			page 2


  32:./Drivers/src/stm32f10x_usart.c ****   */
  33:./Drivers/src/stm32f10x_usart.c **** 
  34:./Drivers/src/stm32f10x_usart.c **** /** @defgroup USART_Private_TypesDefinitions
  35:./Drivers/src/stm32f10x_usart.c ****   * @{
  36:./Drivers/src/stm32f10x_usart.c ****   */
  37:./Drivers/src/stm32f10x_usart.c **** 
  38:./Drivers/src/stm32f10x_usart.c **** /**
  39:./Drivers/src/stm32f10x_usart.c ****   * @}
  40:./Drivers/src/stm32f10x_usart.c ****   */
  41:./Drivers/src/stm32f10x_usart.c **** 
  42:./Drivers/src/stm32f10x_usart.c **** /** @defgroup USART_Private_Defines
  43:./Drivers/src/stm32f10x_usart.c ****   * @{
  44:./Drivers/src/stm32f10x_usart.c ****   */
  45:./Drivers/src/stm32f10x_usart.c **** 
  46:./Drivers/src/stm32f10x_usart.c **** #define CR1_UE_Set                ((uint16_t)0x2000)  /*!< USART Enable Mask */
  47:./Drivers/src/stm32f10x_usart.c **** #define CR1_UE_Reset              ((uint16_t)0xDFFF)  /*!< USART Disable Mask */
  48:./Drivers/src/stm32f10x_usart.c **** 
  49:./Drivers/src/stm32f10x_usart.c **** #define CR1_WAKE_Mask             ((uint16_t)0xF7FF)  /*!< USART WakeUp Method Mask */
  50:./Drivers/src/stm32f10x_usart.c **** 
  51:./Drivers/src/stm32f10x_usart.c **** #define CR1_RWU_Set               ((uint16_t)0x0002)  /*!< USART mute mode Enable Mask */
  52:./Drivers/src/stm32f10x_usart.c **** #define CR1_RWU_Reset             ((uint16_t)0xFFFD)  /*!< USART mute mode Enable Mask */
  53:./Drivers/src/stm32f10x_usart.c **** #define CR1_SBK_Set               ((uint16_t)0x0001)  /*!< USART Break Character send Mask */
  54:./Drivers/src/stm32f10x_usart.c **** #define CR1_CLEAR_Mask            ((uint16_t)0xE9F3)  /*!< USART CR1 Mask */
  55:./Drivers/src/stm32f10x_usart.c **** #define CR2_Address_Mask          ((uint16_t)0xFFF0)  /*!< USART address Mask */
  56:./Drivers/src/stm32f10x_usart.c **** 
  57:./Drivers/src/stm32f10x_usart.c **** #define CR2_LINEN_Set              ((uint16_t)0x4000)  /*!< USART LIN Enable Mask */
  58:./Drivers/src/stm32f10x_usart.c **** #define CR2_LINEN_Reset            ((uint16_t)0xBFFF)  /*!< USART LIN Disable Mask */
  59:./Drivers/src/stm32f10x_usart.c **** 
  60:./Drivers/src/stm32f10x_usart.c **** #define CR2_LBDL_Mask             ((uint16_t)0xFFDF)  /*!< USART LIN Break detection Mask */
  61:./Drivers/src/stm32f10x_usart.c **** #define CR2_STOP_CLEAR_Mask       ((uint16_t)0xCFFF)  /*!< USART CR2 STOP Bits Mask */
  62:./Drivers/src/stm32f10x_usart.c **** #define CR2_CLOCK_CLEAR_Mask      ((uint16_t)0xF0FF)  /*!< USART CR2 Clock Mask */
  63:./Drivers/src/stm32f10x_usart.c **** 
  64:./Drivers/src/stm32f10x_usart.c **** #define CR3_SCEN_Set              ((uint16_t)0x0020)  /*!< USART SC Enable Mask */
  65:./Drivers/src/stm32f10x_usart.c **** #define CR3_SCEN_Reset            ((uint16_t)0xFFDF)  /*!< USART SC Disable Mask */
  66:./Drivers/src/stm32f10x_usart.c **** 
  67:./Drivers/src/stm32f10x_usart.c **** #define CR3_NACK_Set              ((uint16_t)0x0010)  /*!< USART SC NACK Enable Mask */
  68:./Drivers/src/stm32f10x_usart.c **** #define CR3_NACK_Reset            ((uint16_t)0xFFEF)  /*!< USART SC NACK Disable Mask */
  69:./Drivers/src/stm32f10x_usart.c **** 
  70:./Drivers/src/stm32f10x_usart.c **** #define CR3_HDSEL_Set             ((uint16_t)0x0008)  /*!< USART Half-Duplex Enable Mask */
  71:./Drivers/src/stm32f10x_usart.c **** #define CR3_HDSEL_Reset           ((uint16_t)0xFFF7)  /*!< USART Half-Duplex Disable Mask */
  72:./Drivers/src/stm32f10x_usart.c **** 
  73:./Drivers/src/stm32f10x_usart.c **** #define CR3_IRLP_Mask             ((uint16_t)0xFFFB)  /*!< USART IrDA LowPower mode Mask */
  74:./Drivers/src/stm32f10x_usart.c **** #define CR3_CLEAR_Mask            ((uint16_t)0xFCFF)  /*!< USART CR3 Mask */
  75:./Drivers/src/stm32f10x_usart.c **** 
  76:./Drivers/src/stm32f10x_usart.c **** #define CR3_IREN_Set              ((uint16_t)0x0002)  /*!< USART IrDA Enable Mask */
  77:./Drivers/src/stm32f10x_usart.c **** #define CR3_IREN_Reset            ((uint16_t)0xFFFD)  /*!< USART IrDA Disable Mask */
  78:./Drivers/src/stm32f10x_usart.c **** #define GTPR_LSB_Mask             ((uint16_t)0x00FF)  /*!< Guard Time Register LSB Mask */
  79:./Drivers/src/stm32f10x_usart.c **** #define GTPR_MSB_Mask             ((uint16_t)0xFF00)  /*!< Guard Time Register MSB Mask */
  80:./Drivers/src/stm32f10x_usart.c **** #define IT_Mask                   ((uint16_t)0x001F)  /*!< USART Interrupt Mask */
  81:./Drivers/src/stm32f10x_usart.c **** 
  82:./Drivers/src/stm32f10x_usart.c **** /* USART OverSampling-8 Mask */
  83:./Drivers/src/stm32f10x_usart.c **** #define CR1_OVER8_Set             ((u16)0x8000)  /* USART OVER8 mode Enable Mask */
  84:./Drivers/src/stm32f10x_usart.c **** #define CR1_OVER8_Reset           ((u16)0x7FFF)  /* USART OVER8 mode Disable Mask */
  85:./Drivers/src/stm32f10x_usart.c **** 
  86:./Drivers/src/stm32f10x_usart.c **** /* USART One Bit Sampling Mask */
  87:./Drivers/src/stm32f10x_usart.c **** #define CR3_ONEBITE_Set           ((u16)0x0800)  /* USART ONEBITE mode Enable Mask */
  88:./Drivers/src/stm32f10x_usart.c **** #define CR3_ONEBITE_Reset         ((u16)0xF7FF)  /* USART ONEBITE mode Disable Mask */
ARM GAS  /tmp/ccXaqWhu.s 			page 3


  89:./Drivers/src/stm32f10x_usart.c **** 
  90:./Drivers/src/stm32f10x_usart.c **** /**
  91:./Drivers/src/stm32f10x_usart.c ****   * @}
  92:./Drivers/src/stm32f10x_usart.c ****   */
  93:./Drivers/src/stm32f10x_usart.c **** 
  94:./Drivers/src/stm32f10x_usart.c **** /** @defgroup USART_Private_Macros
  95:./Drivers/src/stm32f10x_usart.c ****   * @{
  96:./Drivers/src/stm32f10x_usart.c ****   */
  97:./Drivers/src/stm32f10x_usart.c **** 
  98:./Drivers/src/stm32f10x_usart.c **** /**
  99:./Drivers/src/stm32f10x_usart.c ****   * @}
 100:./Drivers/src/stm32f10x_usart.c ****   */
 101:./Drivers/src/stm32f10x_usart.c **** 
 102:./Drivers/src/stm32f10x_usart.c **** /** @defgroup USART_Private_Variables
 103:./Drivers/src/stm32f10x_usart.c ****   * @{
 104:./Drivers/src/stm32f10x_usart.c ****   */
 105:./Drivers/src/stm32f10x_usart.c **** 
 106:./Drivers/src/stm32f10x_usart.c **** /**
 107:./Drivers/src/stm32f10x_usart.c ****   * @}
 108:./Drivers/src/stm32f10x_usart.c ****   */
 109:./Drivers/src/stm32f10x_usart.c **** 
 110:./Drivers/src/stm32f10x_usart.c **** /** @defgroup USART_Private_FunctionPrototypes
 111:./Drivers/src/stm32f10x_usart.c ****   * @{
 112:./Drivers/src/stm32f10x_usart.c ****   */
 113:./Drivers/src/stm32f10x_usart.c **** 
 114:./Drivers/src/stm32f10x_usart.c **** /**
 115:./Drivers/src/stm32f10x_usart.c ****   * @}
 116:./Drivers/src/stm32f10x_usart.c ****   */
 117:./Drivers/src/stm32f10x_usart.c **** 
 118:./Drivers/src/stm32f10x_usart.c **** /** @defgroup USART_Private_Functions
 119:./Drivers/src/stm32f10x_usart.c ****   * @{
 120:./Drivers/src/stm32f10x_usart.c ****   */
 121:./Drivers/src/stm32f10x_usart.c **** 
 122:./Drivers/src/stm32f10x_usart.c **** /**
 123:./Drivers/src/stm32f10x_usart.c ****   * @brief  Deinitializes the USARTx peripheral registers to their default reset values.
 124:./Drivers/src/stm32f10x_usart.c ****   * @param  USARTx: Select the USART or the UART peripheral. 
 125:./Drivers/src/stm32f10x_usart.c ****   *   This parameter can be one of the following values: 
 126:./Drivers/src/stm32f10x_usart.c ****   *      USART1, USART2, USART3, UART4 or UART5.
 127:./Drivers/src/stm32f10x_usart.c ****   * @retval None
 128:./Drivers/src/stm32f10x_usart.c ****   */
 129:./Drivers/src/stm32f10x_usart.c **** void USART_DeInit(USART_TypeDef* USARTx)
 130:./Drivers/src/stm32f10x_usart.c **** {
  28              		.loc 1 130 1 view -0
  29              		.cfi_startproc
  30              		@ args = 0, pretend = 0, frame = 0
  31              		@ frame_needed = 0, uses_anonymous_args = 0
  32              		.loc 1 130 1 is_stmt 0 view .LVU1
  33 0000 08B5     		push	{r3, lr}
  34              	.LCFI0:
  35              		.cfi_def_cfa_offset 8
  36              		.cfi_offset 3, -8
  37              		.cfi_offset 14, -4
 131:./Drivers/src/stm32f10x_usart.c ****   /* Check the parameters */
 132:./Drivers/src/stm32f10x_usart.c ****   assert_param(IS_USART_ALL_PERIPH(USARTx));
  38              		.loc 1 132 3 is_stmt 1 view .LVU2
 133:./Drivers/src/stm32f10x_usart.c **** 
 134:./Drivers/src/stm32f10x_usart.c ****   if (USARTx == USART1)
ARM GAS  /tmp/ccXaqWhu.s 			page 4


  39              		.loc 1 134 3 view .LVU3
  40              		.loc 1 134 6 is_stmt 0 view .LVU4
  41 0002 234B     		ldr	r3, .L13
  42 0004 9842     		cmp	r0, r3
  43 0006 0CD0     		beq	.L8
 135:./Drivers/src/stm32f10x_usart.c ****   {
 136:./Drivers/src/stm32f10x_usart.c ****     RCC_APB2PeriphResetCmd(RCC_APB2Periph_USART1, ENABLE);
 137:./Drivers/src/stm32f10x_usart.c ****     RCC_APB2PeriphResetCmd(RCC_APB2Periph_USART1, DISABLE);
 138:./Drivers/src/stm32f10x_usart.c ****   }
 139:./Drivers/src/stm32f10x_usart.c ****   else if (USARTx == USART2)
  44              		.loc 1 139 8 is_stmt 1 view .LVU5
  45              		.loc 1 139 11 is_stmt 0 view .LVU6
  46 0008 224B     		ldr	r3, .L13+4
  47 000a 9842     		cmp	r0, r3
  48 000c 14D0     		beq	.L9
 140:./Drivers/src/stm32f10x_usart.c ****   {
 141:./Drivers/src/stm32f10x_usart.c ****     RCC_APB1PeriphResetCmd(RCC_APB1Periph_USART2, ENABLE);
 142:./Drivers/src/stm32f10x_usart.c ****     RCC_APB1PeriphResetCmd(RCC_APB1Periph_USART2, DISABLE);
 143:./Drivers/src/stm32f10x_usart.c ****   }
 144:./Drivers/src/stm32f10x_usart.c ****   else if (USARTx == USART3)
  49              		.loc 1 144 8 is_stmt 1 view .LVU7
  50              		.loc 1 144 11 is_stmt 0 view .LVU8
  51 000e 224B     		ldr	r3, .L13+8
  52 0010 9842     		cmp	r0, r3
  53 0012 1CD0     		beq	.L10
 145:./Drivers/src/stm32f10x_usart.c ****   {
 146:./Drivers/src/stm32f10x_usart.c ****     RCC_APB1PeriphResetCmd(RCC_APB1Periph_USART3, ENABLE);
 147:./Drivers/src/stm32f10x_usart.c ****     RCC_APB1PeriphResetCmd(RCC_APB1Periph_USART3, DISABLE);
 148:./Drivers/src/stm32f10x_usart.c ****   }    
 149:./Drivers/src/stm32f10x_usart.c ****   else if (USARTx == UART4)
  54              		.loc 1 149 8 is_stmt 1 view .LVU9
  55              		.loc 1 149 11 is_stmt 0 view .LVU10
  56 0014 214B     		ldr	r3, .L13+12
  57 0016 9842     		cmp	r0, r3
  58 0018 24D0     		beq	.L11
 150:./Drivers/src/stm32f10x_usart.c ****   {
 151:./Drivers/src/stm32f10x_usart.c ****     RCC_APB1PeriphResetCmd(RCC_APB1Periph_UART4, ENABLE);
 152:./Drivers/src/stm32f10x_usart.c ****     RCC_APB1PeriphResetCmd(RCC_APB1Periph_UART4, DISABLE);
 153:./Drivers/src/stm32f10x_usart.c ****   }    
 154:./Drivers/src/stm32f10x_usart.c ****   else
 155:./Drivers/src/stm32f10x_usart.c ****   {
 156:./Drivers/src/stm32f10x_usart.c ****     if (USARTx == UART5)
  59              		.loc 1 156 5 is_stmt 1 view .LVU11
  60              		.loc 1 156 8 is_stmt 0 view .LVU12
  61 001a 214B     		ldr	r3, .L13+16
  62 001c 9842     		cmp	r0, r3
  63 001e 2CD0     		beq	.L12
  64              	.LVL1:
  65              	.L1:
 157:./Drivers/src/stm32f10x_usart.c ****     { 
 158:./Drivers/src/stm32f10x_usart.c ****       RCC_APB1PeriphResetCmd(RCC_APB1Periph_UART5, ENABLE);
 159:./Drivers/src/stm32f10x_usart.c ****       RCC_APB1PeriphResetCmd(RCC_APB1Periph_UART5, DISABLE);
 160:./Drivers/src/stm32f10x_usart.c ****     }
 161:./Drivers/src/stm32f10x_usart.c ****   }
 162:./Drivers/src/stm32f10x_usart.c **** }
  66              		.loc 1 162 1 view .LVU13
  67 0020 08BD     		pop	{r3, pc}
ARM GAS  /tmp/ccXaqWhu.s 			page 5


  68              	.LVL2:
  69              	.L8:
 136:./Drivers/src/stm32f10x_usart.c ****     RCC_APB2PeriphResetCmd(RCC_APB2Periph_USART1, DISABLE);
  70              		.loc 1 136 5 is_stmt 1 view .LVU14
  71 0022 0121     		movs	r1, #1
  72 0024 4FF48040 		mov	r0, #16384
  73              	.LVL3:
 136:./Drivers/src/stm32f10x_usart.c ****     RCC_APB2PeriphResetCmd(RCC_APB2Periph_USART1, DISABLE);
  74              		.loc 1 136 5 is_stmt 0 view .LVU15
  75 0028 FFF7FEFF 		bl	RCC_APB2PeriphResetCmd
  76              	.LVL4:
 137:./Drivers/src/stm32f10x_usart.c ****   }
  77              		.loc 1 137 5 is_stmt 1 view .LVU16
  78 002c 0021     		movs	r1, #0
  79 002e 4FF48040 		mov	r0, #16384
  80 0032 FFF7FEFF 		bl	RCC_APB2PeriphResetCmd
  81              	.LVL5:
  82 0036 F3E7     		b	.L1
  83              	.LVL6:
  84              	.L9:
 141:./Drivers/src/stm32f10x_usart.c ****     RCC_APB1PeriphResetCmd(RCC_APB1Periph_USART2, DISABLE);
  85              		.loc 1 141 5 view .LVU17
  86 0038 0121     		movs	r1, #1
  87 003a 4FF40030 		mov	r0, #131072
  88              	.LVL7:
 141:./Drivers/src/stm32f10x_usart.c ****     RCC_APB1PeriphResetCmd(RCC_APB1Periph_USART2, DISABLE);
  89              		.loc 1 141 5 is_stmt 0 view .LVU18
  90 003e FFF7FEFF 		bl	RCC_APB1PeriphResetCmd
  91              	.LVL8:
 142:./Drivers/src/stm32f10x_usart.c ****   }
  92              		.loc 1 142 5 is_stmt 1 view .LVU19
  93 0042 0021     		movs	r1, #0
  94 0044 4FF40030 		mov	r0, #131072
  95 0048 FFF7FEFF 		bl	RCC_APB1PeriphResetCmd
  96              	.LVL9:
  97 004c E8E7     		b	.L1
  98              	.LVL10:
  99              	.L10:
 146:./Drivers/src/stm32f10x_usart.c ****     RCC_APB1PeriphResetCmd(RCC_APB1Periph_USART3, DISABLE);
 100              		.loc 1 146 5 view .LVU20
 101 004e 0121     		movs	r1, #1
 102 0050 4FF48020 		mov	r0, #262144
 103              	.LVL11:
 146:./Drivers/src/stm32f10x_usart.c ****     RCC_APB1PeriphResetCmd(RCC_APB1Periph_USART3, DISABLE);
 104              		.loc 1 146 5 is_stmt 0 view .LVU21
 105 0054 FFF7FEFF 		bl	RCC_APB1PeriphResetCmd
 106              	.LVL12:
 147:./Drivers/src/stm32f10x_usart.c ****   }    
 107              		.loc 1 147 5 is_stmt 1 view .LVU22
 108 0058 0021     		movs	r1, #0
 109 005a 4FF48020 		mov	r0, #262144
 110 005e FFF7FEFF 		bl	RCC_APB1PeriphResetCmd
 111              	.LVL13:
 112 0062 DDE7     		b	.L1
 113              	.LVL14:
 114              	.L11:
 151:./Drivers/src/stm32f10x_usart.c ****     RCC_APB1PeriphResetCmd(RCC_APB1Periph_UART4, DISABLE);
ARM GAS  /tmp/ccXaqWhu.s 			page 6


 115              		.loc 1 151 5 view .LVU23
 116 0064 0121     		movs	r1, #1
 117 0066 4FF40020 		mov	r0, #524288
 118              	.LVL15:
 151:./Drivers/src/stm32f10x_usart.c ****     RCC_APB1PeriphResetCmd(RCC_APB1Periph_UART4, DISABLE);
 119              		.loc 1 151 5 is_stmt 0 view .LVU24
 120 006a FFF7FEFF 		bl	RCC_APB1PeriphResetCmd
 121              	.LVL16:
 152:./Drivers/src/stm32f10x_usart.c ****   }    
 122              		.loc 1 152 5 is_stmt 1 view .LVU25
 123 006e 0021     		movs	r1, #0
 124 0070 4FF40020 		mov	r0, #524288
 125 0074 FFF7FEFF 		bl	RCC_APB1PeriphResetCmd
 126              	.LVL17:
 127 0078 D2E7     		b	.L1
 128              	.LVL18:
 129              	.L12:
 158:./Drivers/src/stm32f10x_usart.c ****       RCC_APB1PeriphResetCmd(RCC_APB1Periph_UART5, DISABLE);
 130              		.loc 1 158 7 view .LVU26
 131 007a 0121     		movs	r1, #1
 132 007c 4FF48010 		mov	r0, #1048576
 133              	.LVL19:
 158:./Drivers/src/stm32f10x_usart.c ****       RCC_APB1PeriphResetCmd(RCC_APB1Periph_UART5, DISABLE);
 134              		.loc 1 158 7 is_stmt 0 view .LVU27
 135 0080 FFF7FEFF 		bl	RCC_APB1PeriphResetCmd
 136              	.LVL20:
 159:./Drivers/src/stm32f10x_usart.c ****     }
 137              		.loc 1 159 7 is_stmt 1 view .LVU28
 138 0084 0021     		movs	r1, #0
 139 0086 4FF48010 		mov	r0, #1048576
 140 008a FFF7FEFF 		bl	RCC_APB1PeriphResetCmd
 141              	.LVL21:
 142              		.loc 1 162 1 is_stmt 0 view .LVU29
 143 008e C7E7     		b	.L1
 144              	.L14:
 145              		.align	2
 146              	.L13:
 147 0090 00380140 		.word	1073821696
 148 0094 00440040 		.word	1073759232
 149 0098 00480040 		.word	1073760256
 150 009c 004C0040 		.word	1073761280
 151 00a0 00500040 		.word	1073762304
 152              		.cfi_endproc
 153              	.LFE29:
 155              		.section	.text.USART_Init,"ax",%progbits
 156              		.align	1
 157              		.global	USART_Init
 158              		.syntax unified
 159              		.thumb
 160              		.thumb_func
 162              	USART_Init:
 163              	.LVL22:
 164              	.LFB30:
 163:./Drivers/src/stm32f10x_usart.c **** 
 164:./Drivers/src/stm32f10x_usart.c **** /**
 165:./Drivers/src/stm32f10x_usart.c ****   * @brief  Initializes the USARTx peripheral according to the specified
 166:./Drivers/src/stm32f10x_usart.c ****   *         parameters in the USART_InitStruct .
ARM GAS  /tmp/ccXaqWhu.s 			page 7


 167:./Drivers/src/stm32f10x_usart.c ****   * @param  USARTx: Select the USART or the UART peripheral. 
 168:./Drivers/src/stm32f10x_usart.c ****   *   This parameter can be one of the following values:
 169:./Drivers/src/stm32f10x_usart.c ****   *   USART1, USART2, USART3, UART4 or UART5.
 170:./Drivers/src/stm32f10x_usart.c ****   * @param  USART_InitStruct: pointer to a USART_InitTypeDef structure
 171:./Drivers/src/stm32f10x_usart.c ****   *         that contains the configuration information for the specified USART 
 172:./Drivers/src/stm32f10x_usart.c ****   *         peripheral.
 173:./Drivers/src/stm32f10x_usart.c ****   * @retval None
 174:./Drivers/src/stm32f10x_usart.c ****   */
 175:./Drivers/src/stm32f10x_usart.c **** void USART_Init(USART_TypeDef* USARTx, USART_InitTypeDef* USART_InitStruct)
 176:./Drivers/src/stm32f10x_usart.c **** {
 165              		.loc 1 176 1 is_stmt 1 view -0
 166              		.cfi_startproc
 167              		@ args = 0, pretend = 0, frame = 24
 168              		@ frame_needed = 0, uses_anonymous_args = 0
 169              		.loc 1 176 1 is_stmt 0 view .LVU31
 170 0000 30B5     		push	{r4, r5, lr}
 171              	.LCFI1:
 172              		.cfi_def_cfa_offset 12
 173              		.cfi_offset 4, -12
 174              		.cfi_offset 5, -8
 175              		.cfi_offset 14, -4
 176 0002 87B0     		sub	sp, sp, #28
 177              	.LCFI2:
 178              		.cfi_def_cfa_offset 40
 179 0004 0446     		mov	r4, r0
 180 0006 0D46     		mov	r5, r1
 177:./Drivers/src/stm32f10x_usart.c ****   uint32_t tmpreg = 0x00, apbclock = 0x00;
 181              		.loc 1 177 3 is_stmt 1 view .LVU32
 182              	.LVL23:
 178:./Drivers/src/stm32f10x_usart.c ****   uint32_t integerdivider = 0x00;
 183              		.loc 1 178 3 view .LVU33
 179:./Drivers/src/stm32f10x_usart.c ****   uint32_t fractionaldivider = 0x00;
 184              		.loc 1 179 3 view .LVU34
 180:./Drivers/src/stm32f10x_usart.c ****   uint32_t usartxbase = 0;
 185              		.loc 1 180 3 view .LVU35
 181:./Drivers/src/stm32f10x_usart.c ****   RCC_ClocksTypeDef RCC_ClocksStatus;
 186              		.loc 1 181 3 view .LVU36
 182:./Drivers/src/stm32f10x_usart.c ****   /* Check the parameters */
 183:./Drivers/src/stm32f10x_usart.c ****   assert_param(IS_USART_ALL_PERIPH(USARTx));
 187              		.loc 1 183 3 view .LVU37
 184:./Drivers/src/stm32f10x_usart.c ****   assert_param(IS_USART_BAUDRATE(USART_InitStruct->USART_BaudRate));  
 188              		.loc 1 184 3 view .LVU38
 185:./Drivers/src/stm32f10x_usart.c ****   assert_param(IS_USART_WORD_LENGTH(USART_InitStruct->USART_WordLength));
 189              		.loc 1 185 3 view .LVU39
 186:./Drivers/src/stm32f10x_usart.c ****   assert_param(IS_USART_STOPBITS(USART_InitStruct->USART_StopBits));
 190              		.loc 1 186 3 view .LVU40
 187:./Drivers/src/stm32f10x_usart.c ****   assert_param(IS_USART_PARITY(USART_InitStruct->USART_Parity));
 191              		.loc 1 187 3 view .LVU41
 188:./Drivers/src/stm32f10x_usart.c ****   assert_param(IS_USART_MODE(USART_InitStruct->USART_Mode));
 192              		.loc 1 188 3 view .LVU42
 189:./Drivers/src/stm32f10x_usart.c ****   assert_param(IS_USART_HARDWARE_FLOW_CONTROL(USART_InitStruct->USART_HardwareFlowControl));
 193              		.loc 1 189 3 view .LVU43
 190:./Drivers/src/stm32f10x_usart.c ****   /* The hardware flow control is available only for USART1, USART2 and USART3 */
 191:./Drivers/src/stm32f10x_usart.c ****   if (USART_InitStruct->USART_HardwareFlowControl != USART_HardwareFlowControl_None)
 194              		.loc 1 191 3 view .LVU44
 192:./Drivers/src/stm32f10x_usart.c ****   {
 193:./Drivers/src/stm32f10x_usart.c ****     assert_param(IS_USART_123_PERIPH(USARTx));
ARM GAS  /tmp/ccXaqWhu.s 			page 8


 195              		.loc 1 193 5 view .LVU45
 194:./Drivers/src/stm32f10x_usart.c ****   }
 195:./Drivers/src/stm32f10x_usart.c **** 
 196:./Drivers/src/stm32f10x_usart.c ****   usartxbase = (uint32_t)USARTx;
 196              		.loc 1 196 3 view .LVU46
 197:./Drivers/src/stm32f10x_usart.c **** 
 198:./Drivers/src/stm32f10x_usart.c **** /*---------------------------- USART CR2 Configuration -----------------------*/
 199:./Drivers/src/stm32f10x_usart.c ****   tmpreg = USARTx->CR2;
 197              		.loc 1 199 3 view .LVU47
 198              		.loc 1 199 18 is_stmt 0 view .LVU48
 199 0008 038A     		ldrh	r3, [r0, #16]
 200 000a 9BB2     		uxth	r3, r3
 201              	.LVL24:
 200:./Drivers/src/stm32f10x_usart.c ****   /* Clear STOP[13:12] bits */
 201:./Drivers/src/stm32f10x_usart.c ****   tmpreg &= CR2_STOP_CLEAR_Mask;
 202              		.loc 1 201 3 is_stmt 1 view .LVU49
 202:./Drivers/src/stm32f10x_usart.c ****   /* Configure the USART Stop Bits, Clock, CPOL, CPHA and LastBit ------------*/
 203:./Drivers/src/stm32f10x_usart.c ****   /* Set STOP[13:12] bits according to USART_StopBits value */
 204:./Drivers/src/stm32f10x_usart.c ****   tmpreg |= (uint32_t)USART_InitStruct->USART_StopBits;
 203              		.loc 1 204 3 view .LVU50
 204              		.loc 1 204 39 is_stmt 0 view .LVU51
 205 000c CA88     		ldrh	r2, [r1, #6]
 206 000e 23F44053 		bic	r3, r3, #12288
 207              	.LVL25:
 208              		.loc 1 204 39 view .LVU52
 209 0012 1343     		orrs	r3, r3, r2
 210              	.LVL26:
 205:./Drivers/src/stm32f10x_usart.c ****   
 206:./Drivers/src/stm32f10x_usart.c ****   /* Write to USART CR2 */
 207:./Drivers/src/stm32f10x_usart.c ****   USARTx->CR2 = (uint16_t)tmpreg;
 211              		.loc 1 207 3 is_stmt 1 view .LVU53
 212              		.loc 1 207 15 is_stmt 0 view .LVU54
 213 0014 0382     		strh	r3, [r0, #16]	@ movhi
 208:./Drivers/src/stm32f10x_usart.c **** 
 209:./Drivers/src/stm32f10x_usart.c **** /*---------------------------- USART CR1 Configuration -----------------------*/
 210:./Drivers/src/stm32f10x_usart.c ****   tmpreg = USARTx->CR1;
 214              		.loc 1 210 3 is_stmt 1 view .LVU55
 215              		.loc 1 210 18 is_stmt 0 view .LVU56
 216 0016 8389     		ldrh	r3, [r0, #12]
 217              	.LVL27:
 218              		.loc 1 210 18 view .LVU57
 219 0018 9BB2     		uxth	r3, r3
 220              	.LVL28:
 211:./Drivers/src/stm32f10x_usart.c ****   /* Clear M, PCE, PS, TE and RE bits */
 212:./Drivers/src/stm32f10x_usart.c ****   tmpreg &= CR1_CLEAR_Mask;
 221              		.loc 1 212 3 is_stmt 1 view .LVU58
 213:./Drivers/src/stm32f10x_usart.c ****   /* Configure the USART Word Length, Parity and mode ----------------------- */
 214:./Drivers/src/stm32f10x_usart.c ****   /* Set the M bits according to USART_WordLength value */
 215:./Drivers/src/stm32f10x_usart.c ****   /* Set PCE and PS bits according to USART_Parity value */
 216:./Drivers/src/stm32f10x_usart.c ****   /* Set TE and RE bits according to USART_Mode value */
 217:./Drivers/src/stm32f10x_usart.c ****   tmpreg |= (uint32_t)USART_InitStruct->USART_WordLength | USART_InitStruct->USART_Parity |
 222              		.loc 1 217 3 view .LVU59
 223              		.loc 1 217 39 is_stmt 0 view .LVU60
 224 001a 8988     		ldrh	r1, [r1, #4]
 225              	.LVL29:
 226              		.loc 1 217 76 view .LVU61
 227 001c 2889     		ldrh	r0, [r5, #8]
ARM GAS  /tmp/ccXaqWhu.s 			page 9


 228              	.LVL30:
 218:./Drivers/src/stm32f10x_usart.c ****             USART_InitStruct->USART_Mode;
 229              		.loc 1 218 29 view .LVU62
 230 001e 6A89     		ldrh	r2, [r5, #10]
 217:./Drivers/src/stm32f10x_usart.c ****             USART_InitStruct->USART_Mode;
 231              		.loc 1 217 91 view .LVU63
 232 0020 0143     		orrs	r1, r1, r0
 233 0022 0A43     		orrs	r2, r2, r1
 234 0024 23F4B053 		bic	r3, r3, #5632
 235              	.LVL31:
 217:./Drivers/src/stm32f10x_usart.c ****             USART_InitStruct->USART_Mode;
 236              		.loc 1 217 91 view .LVU64
 237 0028 23F00C03 		bic	r3, r3, #12
 238 002c 1343     		orrs	r3, r3, r2
 239              	.LVL32:
 219:./Drivers/src/stm32f10x_usart.c ****   /* Write to USART CR1 */
 220:./Drivers/src/stm32f10x_usart.c ****   USARTx->CR1 = (uint16_t)tmpreg;
 240              		.loc 1 220 3 is_stmt 1 view .LVU65
 241              		.loc 1 220 15 is_stmt 0 view .LVU66
 242 002e A381     		strh	r3, [r4, #12]	@ movhi
 221:./Drivers/src/stm32f10x_usart.c **** 
 222:./Drivers/src/stm32f10x_usart.c **** /*---------------------------- USART CR3 Configuration -----------------------*/  
 223:./Drivers/src/stm32f10x_usart.c ****   tmpreg = USARTx->CR3;
 243              		.loc 1 223 3 is_stmt 1 view .LVU67
 244              		.loc 1 223 18 is_stmt 0 view .LVU68
 245 0030 A38A     		ldrh	r3, [r4, #20]
 246              	.LVL33:
 247              		.loc 1 223 18 view .LVU69
 248 0032 9BB2     		uxth	r3, r3
 249              	.LVL34:
 224:./Drivers/src/stm32f10x_usart.c ****   /* Clear CTSE and RTSE bits */
 225:./Drivers/src/stm32f10x_usart.c ****   tmpreg &= CR3_CLEAR_Mask;
 250              		.loc 1 225 3 is_stmt 1 view .LVU70
 226:./Drivers/src/stm32f10x_usart.c ****   /* Configure the USART HFC -------------------------------------------------*/
 227:./Drivers/src/stm32f10x_usart.c ****   /* Set CTSE and RTSE bits according to USART_HardwareFlowControl value */
 228:./Drivers/src/stm32f10x_usart.c ****   tmpreg |= USART_InitStruct->USART_HardwareFlowControl;
 251              		.loc 1 228 3 view .LVU71
 252              		.loc 1 228 29 is_stmt 0 view .LVU72
 253 0034 AA89     		ldrh	r2, [r5, #12]
 254 0036 23F44073 		bic	r3, r3, #768
 255              	.LVL35:
 256              		.loc 1 228 29 view .LVU73
 257 003a 1343     		orrs	r3, r3, r2
 258              	.LVL36:
 229:./Drivers/src/stm32f10x_usart.c ****   /* Write to USART CR3 */
 230:./Drivers/src/stm32f10x_usart.c ****   USARTx->CR3 = (uint16_t)tmpreg;
 259              		.loc 1 230 3 is_stmt 1 view .LVU74
 260              		.loc 1 230 15 is_stmt 0 view .LVU75
 261 003c A382     		strh	r3, [r4, #20]	@ movhi
 231:./Drivers/src/stm32f10x_usart.c **** 
 232:./Drivers/src/stm32f10x_usart.c **** /*---------------------------- USART BRR Configuration -----------------------*/
 233:./Drivers/src/stm32f10x_usart.c ****   /* Configure the USART Baud Rate -------------------------------------------*/
 234:./Drivers/src/stm32f10x_usart.c ****   RCC_GetClocksFreq(&RCC_ClocksStatus);
 262              		.loc 1 234 3 is_stmt 1 view .LVU76
 263 003e 01A8     		add	r0, sp, #4
 264 0040 FFF7FEFF 		bl	RCC_GetClocksFreq
 265              	.LVL37:
ARM GAS  /tmp/ccXaqWhu.s 			page 10


 235:./Drivers/src/stm32f10x_usart.c ****   if (usartxbase == USART1_BASE)
 266              		.loc 1 235 3 view .LVU77
 267              		.loc 1 235 6 is_stmt 0 view .LVU78
 268 0044 1D4B     		ldr	r3, .L26
 269 0046 9C42     		cmp	r4, r3
 270 0048 24D0     		beq	.L23
 236:./Drivers/src/stm32f10x_usart.c ****   {
 237:./Drivers/src/stm32f10x_usart.c ****     apbclock = RCC_ClocksStatus.PCLK2_Frequency;
 238:./Drivers/src/stm32f10x_usart.c ****   }
 239:./Drivers/src/stm32f10x_usart.c ****   else
 240:./Drivers/src/stm32f10x_usart.c ****   {
 241:./Drivers/src/stm32f10x_usart.c ****     apbclock = RCC_ClocksStatus.PCLK1_Frequency;
 271              		.loc 1 241 5 is_stmt 1 view .LVU79
 272              		.loc 1 241 14 is_stmt 0 view .LVU80
 273 004a 039B     		ldr	r3, [sp, #12]
 274              	.LVL38:
 275              	.L17:
 242:./Drivers/src/stm32f10x_usart.c ****   }
 243:./Drivers/src/stm32f10x_usart.c ****   
 244:./Drivers/src/stm32f10x_usart.c ****   /* Determine the integer part */
 245:./Drivers/src/stm32f10x_usart.c ****   if ((USARTx->CR1 & CR1_OVER8_Set) != 0)
 276              		.loc 1 245 3 is_stmt 1 view .LVU81
 277              		.loc 1 245 14 is_stmt 0 view .LVU82
 278 004c A289     		ldrh	r2, [r4, #12]
 279              		.loc 1 245 6 view .LVU83
 280 004e 12F4004F 		tst	r2, #32768
 281 0052 21D1     		bne	.L24
 246:./Drivers/src/stm32f10x_usart.c ****   {
 247:./Drivers/src/stm32f10x_usart.c ****     /* Integer part computing in case Oversampling mode is 8 Samples */
 248:./Drivers/src/stm32f10x_usart.c ****     integerdivider = ((25 * apbclock) / (2 * (USART_InitStruct->USART_BaudRate)));    
 249:./Drivers/src/stm32f10x_usart.c ****   }
 250:./Drivers/src/stm32f10x_usart.c ****   else /* if ((USARTx->CR1 & CR1_OVER8_Set) == 0) */
 251:./Drivers/src/stm32f10x_usart.c ****   {
 252:./Drivers/src/stm32f10x_usart.c ****     /* Integer part computing in case Oversampling mode is 16 Samples */
 253:./Drivers/src/stm32f10x_usart.c ****     integerdivider = ((25 * apbclock) / (4 * (USART_InitStruct->USART_BaudRate)));    
 282              		.loc 1 253 5 is_stmt 1 view .LVU84
 283              		.loc 1 253 27 is_stmt 0 view .LVU85
 284 0054 03EB8303 		add	r3, r3, r3, lsl #2
 285              	.LVL39:
 286              		.loc 1 253 27 view .LVU86
 287 0058 03EB8303 		add	r3, r3, r3, lsl #2
 288              		.loc 1 253 63 view .LVU87
 289 005c 2A68     		ldr	r2, [r5]
 290              		.loc 1 253 44 view .LVU88
 291 005e 9200     		lsls	r2, r2, #2
 292              		.loc 1 253 20 view .LVU89
 293 0060 B3FBF2F3 		udiv	r3, r3, r2
 294              	.LVL40:
 295              	.L19:
 254:./Drivers/src/stm32f10x_usart.c ****   }
 255:./Drivers/src/stm32f10x_usart.c ****   tmpreg = (integerdivider / 100) << 4;
 296              		.loc 1 255 3 is_stmt 1 view .LVU90
 297              		.loc 1 255 28 is_stmt 0 view .LVU91
 298 0064 164A     		ldr	r2, .L26+4
 299 0066 A2FB0312 		umull	r1, r2, r2, r3
 300 006a 5209     		lsrs	r2, r2, #5
 301              		.loc 1 255 10 view .LVU92
ARM GAS  /tmp/ccXaqWhu.s 			page 11


 302 006c 1101     		lsls	r1, r2, #4
 303              	.LVL41:
 256:./Drivers/src/stm32f10x_usart.c **** 
 257:./Drivers/src/stm32f10x_usart.c ****   /* Determine the fractional part */
 258:./Drivers/src/stm32f10x_usart.c ****   fractionaldivider = integerdivider - (100 * (tmpreg >> 4));
 304              		.loc 1 258 3 is_stmt 1 view .LVU93
 305              		.loc 1 258 21 is_stmt 0 view .LVU94
 306 006e 6420     		movs	r0, #100
 307 0070 02FB1033 		mls	r3, r2, r0, r3
 308              	.LVL42:
 259:./Drivers/src/stm32f10x_usart.c **** 
 260:./Drivers/src/stm32f10x_usart.c ****   /* Implement the fractional part in the register */
 261:./Drivers/src/stm32f10x_usart.c ****   if ((USARTx->CR1 & CR1_OVER8_Set) != 0)
 309              		.loc 1 261 3 is_stmt 1 view .LVU95
 310              		.loc 1 261 14 is_stmt 0 view .LVU96
 311 0074 A289     		ldrh	r2, [r4, #12]
 312              		.loc 1 261 6 view .LVU97
 313 0076 12F4004F 		tst	r2, #32768
 314 007a 16D1     		bne	.L25
 262:./Drivers/src/stm32f10x_usart.c ****   {
 263:./Drivers/src/stm32f10x_usart.c ****     tmpreg |= ((((fractionaldivider * 8) + 50) / 100)) & ((uint8_t)0x07);
 264:./Drivers/src/stm32f10x_usart.c ****   }
 265:./Drivers/src/stm32f10x_usart.c ****   else /* if ((USARTx->CR1 & CR1_OVER8_Set) == 0) */
 266:./Drivers/src/stm32f10x_usart.c ****   {
 267:./Drivers/src/stm32f10x_usart.c ****     tmpreg |= ((((fractionaldivider * 16) + 50) / 100)) & ((uint8_t)0x0F);
 315              		.loc 1 267 5 is_stmt 1 view .LVU98
 316              		.loc 1 267 37 is_stmt 0 view .LVU99
 317 007c 1B01     		lsls	r3, r3, #4
 318              	.LVL43:
 319              		.loc 1 267 43 view .LVU100
 320 007e 3233     		adds	r3, r3, #50
 321              		.loc 1 267 49 view .LVU101
 322 0080 0F4A     		ldr	r2, .L26+4
 323 0082 A2FB0323 		umull	r2, r3, r2, r3
 324              		.loc 1 267 57 view .LVU102
 325 0086 C3F34313 		ubfx	r3, r3, #5, #4
 326              		.loc 1 267 12 view .LVU103
 327 008a 0B43     		orrs	r3, r3, r1
 328              	.LVL44:
 329              	.L21:
 268:./Drivers/src/stm32f10x_usart.c ****   }
 269:./Drivers/src/stm32f10x_usart.c ****   
 270:./Drivers/src/stm32f10x_usart.c ****   /* Write to USART BRR */
 271:./Drivers/src/stm32f10x_usart.c ****   USARTx->BRR = (uint16_t)tmpreg;
 330              		.loc 1 271 3 is_stmt 1 view .LVU104
 331              		.loc 1 271 17 is_stmt 0 view .LVU105
 332 008c 9BB2     		uxth	r3, r3
 333              	.LVL45:
 334              		.loc 1 271 15 view .LVU106
 335 008e 2381     		strh	r3, [r4, #8]	@ movhi
 272:./Drivers/src/stm32f10x_usart.c **** }
 336              		.loc 1 272 1 view .LVU107
 337 0090 07B0     		add	sp, sp, #28
 338              	.LCFI3:
 339              		.cfi_remember_state
 340              		.cfi_def_cfa_offset 12
 341              		@ sp needed
ARM GAS  /tmp/ccXaqWhu.s 			page 12


 342 0092 30BD     		pop	{r4, r5, pc}
 343              	.LVL46:
 344              	.L23:
 345              	.LCFI4:
 346              		.cfi_restore_state
 237:./Drivers/src/stm32f10x_usart.c ****   }
 347              		.loc 1 237 5 is_stmt 1 view .LVU108
 237:./Drivers/src/stm32f10x_usart.c ****   }
 348              		.loc 1 237 14 is_stmt 0 view .LVU109
 349 0094 049B     		ldr	r3, [sp, #16]
 350              	.LVL47:
 237:./Drivers/src/stm32f10x_usart.c ****   }
 351              		.loc 1 237 14 view .LVU110
 352 0096 D9E7     		b	.L17
 353              	.L24:
 248:./Drivers/src/stm32f10x_usart.c ****   }
 354              		.loc 1 248 5 is_stmt 1 view .LVU111
 248:./Drivers/src/stm32f10x_usart.c ****   }
 355              		.loc 1 248 27 is_stmt 0 view .LVU112
 356 0098 03EB8303 		add	r3, r3, r3, lsl #2
 357              	.LVL48:
 248:./Drivers/src/stm32f10x_usart.c ****   }
 358              		.loc 1 248 27 view .LVU113
 359 009c 03EB8303 		add	r3, r3, r3, lsl #2
 248:./Drivers/src/stm32f10x_usart.c ****   }
 360              		.loc 1 248 63 view .LVU114
 361 00a0 2A68     		ldr	r2, [r5]
 248:./Drivers/src/stm32f10x_usart.c ****   }
 362              		.loc 1 248 44 view .LVU115
 363 00a2 5200     		lsls	r2, r2, #1
 248:./Drivers/src/stm32f10x_usart.c ****   }
 364              		.loc 1 248 20 view .LVU116
 365 00a4 B3FBF2F3 		udiv	r3, r3, r2
 366              	.LVL49:
 248:./Drivers/src/stm32f10x_usart.c ****   }
 367              		.loc 1 248 20 view .LVU117
 368 00a8 DCE7     		b	.L19
 369              	.LVL50:
 370              	.L25:
 263:./Drivers/src/stm32f10x_usart.c ****   }
 371              		.loc 1 263 5 is_stmt 1 view .LVU118
 263:./Drivers/src/stm32f10x_usart.c ****   }
 372              		.loc 1 263 37 is_stmt 0 view .LVU119
 373 00aa DB00     		lsls	r3, r3, #3
 374              	.LVL51:
 263:./Drivers/src/stm32f10x_usart.c ****   }
 375              		.loc 1 263 42 view .LVU120
 376 00ac 3233     		adds	r3, r3, #50
 263:./Drivers/src/stm32f10x_usart.c ****   }
 377              		.loc 1 263 48 view .LVU121
 378 00ae 044A     		ldr	r2, .L26+4
 379 00b0 A2FB0323 		umull	r2, r3, r2, r3
 263:./Drivers/src/stm32f10x_usart.c ****   }
 380              		.loc 1 263 56 view .LVU122
 381 00b4 C3F34213 		ubfx	r3, r3, #5, #3
 263:./Drivers/src/stm32f10x_usart.c ****   }
 382              		.loc 1 263 12 view .LVU123
ARM GAS  /tmp/ccXaqWhu.s 			page 13


 383 00b8 0B43     		orrs	r3, r3, r1
 384              	.LVL52:
 263:./Drivers/src/stm32f10x_usart.c ****   }
 385              		.loc 1 263 12 view .LVU124
 386 00ba E7E7     		b	.L21
 387              	.L27:
 388              		.align	2
 389              	.L26:
 390 00bc 00380140 		.word	1073821696
 391 00c0 1F85EB51 		.word	1374389535
 392              		.cfi_endproc
 393              	.LFE30:
 395              		.section	.text.USART_StructInit,"ax",%progbits
 396              		.align	1
 397              		.global	USART_StructInit
 398              		.syntax unified
 399              		.thumb
 400              		.thumb_func
 402              	USART_StructInit:
 403              	.LVL53:
 404              	.LFB31:
 273:./Drivers/src/stm32f10x_usart.c **** 
 274:./Drivers/src/stm32f10x_usart.c **** /**
 275:./Drivers/src/stm32f10x_usart.c ****   * @brief  Fills each USART_InitStruct member with its default value.
 276:./Drivers/src/stm32f10x_usart.c ****   * @param  USART_InitStruct: pointer to a USART_InitTypeDef structure
 277:./Drivers/src/stm32f10x_usart.c ****   *         which will be initialized.
 278:./Drivers/src/stm32f10x_usart.c ****   * @retval None
 279:./Drivers/src/stm32f10x_usart.c ****   */
 280:./Drivers/src/stm32f10x_usart.c **** void USART_StructInit(USART_InitTypeDef* USART_InitStruct)
 281:./Drivers/src/stm32f10x_usart.c **** {
 405              		.loc 1 281 1 is_stmt 1 view -0
 406              		.cfi_startproc
 407              		@ args = 0, pretend = 0, frame = 0
 408              		@ frame_needed = 0, uses_anonymous_args = 0
 409              		@ link register save eliminated.
 282:./Drivers/src/stm32f10x_usart.c ****   /* USART_InitStruct members default value */
 283:./Drivers/src/stm32f10x_usart.c ****   USART_InitStruct->USART_BaudRate = 9600;
 410              		.loc 1 283 3 view .LVU126
 411              		.loc 1 283 36 is_stmt 0 view .LVU127
 412 0000 4FF41653 		mov	r3, #9600
 413 0004 0360     		str	r3, [r0]
 284:./Drivers/src/stm32f10x_usart.c ****   USART_InitStruct->USART_WordLength = USART_WordLength_8b;
 414              		.loc 1 284 3 is_stmt 1 view .LVU128
 415              		.loc 1 284 38 is_stmt 0 view .LVU129
 416 0006 0023     		movs	r3, #0
 417 0008 8380     		strh	r3, [r0, #4]	@ movhi
 285:./Drivers/src/stm32f10x_usart.c ****   USART_InitStruct->USART_StopBits = USART_StopBits_1;
 418              		.loc 1 285 3 is_stmt 1 view .LVU130
 419              		.loc 1 285 36 is_stmt 0 view .LVU131
 420 000a C380     		strh	r3, [r0, #6]	@ movhi
 286:./Drivers/src/stm32f10x_usart.c ****   USART_InitStruct->USART_Parity = USART_Parity_No ;
 421              		.loc 1 286 3 is_stmt 1 view .LVU132
 422              		.loc 1 286 34 is_stmt 0 view .LVU133
 423 000c 0381     		strh	r3, [r0, #8]	@ movhi
 287:./Drivers/src/stm32f10x_usart.c ****   USART_InitStruct->USART_Mode = USART_Mode_Rx | USART_Mode_Tx;
 424              		.loc 1 287 3 is_stmt 1 view .LVU134
 425              		.loc 1 287 32 is_stmt 0 view .LVU135
ARM GAS  /tmp/ccXaqWhu.s 			page 14


 426 000e 0C22     		movs	r2, #12
 427 0010 4281     		strh	r2, [r0, #10]	@ movhi
 288:./Drivers/src/stm32f10x_usart.c ****   USART_InitStruct->USART_HardwareFlowControl = USART_HardwareFlowControl_None;  
 428              		.loc 1 288 3 is_stmt 1 view .LVU136
 429              		.loc 1 288 47 is_stmt 0 view .LVU137
 430 0012 8381     		strh	r3, [r0, #12]	@ movhi
 289:./Drivers/src/stm32f10x_usart.c **** }
 431              		.loc 1 289 1 view .LVU138
 432 0014 7047     		bx	lr
 433              		.cfi_endproc
 434              	.LFE31:
 436              		.section	.text.USART_ClockInit,"ax",%progbits
 437              		.align	1
 438              		.global	USART_ClockInit
 439              		.syntax unified
 440              		.thumb
 441              		.thumb_func
 443              	USART_ClockInit:
 444              	.LVL54:
 445              	.LFB32:
 290:./Drivers/src/stm32f10x_usart.c **** 
 291:./Drivers/src/stm32f10x_usart.c **** /**
 292:./Drivers/src/stm32f10x_usart.c ****   * @brief  Initializes the USARTx peripheral Clock according to the 
 293:./Drivers/src/stm32f10x_usart.c ****   *          specified parameters in the USART_ClockInitStruct .
 294:./Drivers/src/stm32f10x_usart.c ****   * @param  USARTx: where x can be 1, 2, 3 to select the USART peripheral.
 295:./Drivers/src/stm32f10x_usart.c ****   * @param  USART_ClockInitStruct: pointer to a USART_ClockInitTypeDef
 296:./Drivers/src/stm32f10x_usart.c ****   *         structure that contains the configuration information for the specified 
 297:./Drivers/src/stm32f10x_usart.c ****   *         USART peripheral.  
 298:./Drivers/src/stm32f10x_usart.c ****   * @note The Smart Card and Synchronous modes are not available for UART4 and UART5.
 299:./Drivers/src/stm32f10x_usart.c ****   * @retval None
 300:./Drivers/src/stm32f10x_usart.c ****   */
 301:./Drivers/src/stm32f10x_usart.c **** void USART_ClockInit(USART_TypeDef* USARTx, USART_ClockInitTypeDef* USART_ClockInitStruct)
 302:./Drivers/src/stm32f10x_usart.c **** {
 446              		.loc 1 302 1 is_stmt 1 view -0
 447              		.cfi_startproc
 448              		@ args = 0, pretend = 0, frame = 0
 449              		@ frame_needed = 0, uses_anonymous_args = 0
 450              		.loc 1 302 1 is_stmt 0 view .LVU140
 451 0000 10B5     		push	{r4, lr}
 452              	.LCFI5:
 453              		.cfi_def_cfa_offset 8
 454              		.cfi_offset 4, -8
 455              		.cfi_offset 14, -4
 303:./Drivers/src/stm32f10x_usart.c ****   uint32_t tmpreg = 0x00;
 456              		.loc 1 303 3 is_stmt 1 view .LVU141
 457              	.LVL55:
 304:./Drivers/src/stm32f10x_usart.c ****   /* Check the parameters */
 305:./Drivers/src/stm32f10x_usart.c ****   assert_param(IS_USART_123_PERIPH(USARTx));
 458              		.loc 1 305 3 view .LVU142
 306:./Drivers/src/stm32f10x_usart.c ****   assert_param(IS_USART_CLOCK(USART_ClockInitStruct->USART_Clock));
 459              		.loc 1 306 3 view .LVU143
 307:./Drivers/src/stm32f10x_usart.c ****   assert_param(IS_USART_CPOL(USART_ClockInitStruct->USART_CPOL));
 460              		.loc 1 307 3 view .LVU144
 308:./Drivers/src/stm32f10x_usart.c ****   assert_param(IS_USART_CPHA(USART_ClockInitStruct->USART_CPHA));
 461              		.loc 1 308 3 view .LVU145
 309:./Drivers/src/stm32f10x_usart.c ****   assert_param(IS_USART_LASTBIT(USART_ClockInitStruct->USART_LastBit));
 462              		.loc 1 309 3 view .LVU146
ARM GAS  /tmp/ccXaqWhu.s 			page 15


 310:./Drivers/src/stm32f10x_usart.c ****   
 311:./Drivers/src/stm32f10x_usart.c **** /*---------------------------- USART CR2 Configuration -----------------------*/
 312:./Drivers/src/stm32f10x_usart.c ****   tmpreg = USARTx->CR2;
 463              		.loc 1 312 3 view .LVU147
 464              		.loc 1 312 18 is_stmt 0 view .LVU148
 465 0002 028A     		ldrh	r2, [r0, #16]
 466 0004 92B2     		uxth	r2, r2
 467              	.LVL56:
 313:./Drivers/src/stm32f10x_usart.c ****   /* Clear CLKEN, CPOL, CPHA and LBCL bits */
 314:./Drivers/src/stm32f10x_usart.c ****   tmpreg &= CR2_CLOCK_CLEAR_Mask;
 468              		.loc 1 314 3 is_stmt 1 view .LVU149
 315:./Drivers/src/stm32f10x_usart.c ****   /* Configure the USART Clock, CPOL, CPHA and LastBit ------------*/
 316:./Drivers/src/stm32f10x_usart.c ****   /* Set CLKEN bit according to USART_Clock value */
 317:./Drivers/src/stm32f10x_usart.c ****   /* Set CPOL bit according to USART_CPOL value */
 318:./Drivers/src/stm32f10x_usart.c ****   /* Set CPHA bit according to USART_CPHA value */
 319:./Drivers/src/stm32f10x_usart.c ****   /* Set LBCL bit according to USART_LastBit value */
 320:./Drivers/src/stm32f10x_usart.c ****   tmpreg |= (uint32_t)USART_ClockInitStruct->USART_Clock | USART_ClockInitStruct->USART_CPOL | 
 469              		.loc 1 320 3 view .LVU150
 470              		.loc 1 320 44 is_stmt 0 view .LVU151
 471 0006 B1F800E0 		ldrh	lr, [r1]
 472              		.loc 1 320 81 view .LVU152
 473 000a 4C88     		ldrh	r4, [r1, #2]
 321:./Drivers/src/stm32f10x_usart.c ****                  USART_ClockInitStruct->USART_CPHA | USART_ClockInitStruct->USART_LastBit;
 474              		.loc 1 321 39 view .LVU153
 475 000c B1F804C0 		ldrh	ip, [r1, #4]
 476              		.loc 1 321 75 view .LVU154
 477 0010 CB88     		ldrh	r3, [r1, #6]
 478              		.loc 1 321 52 view .LVU155
 479 0012 4EEA0401 		orr	r1, lr, r4
 480              	.LVL57:
 481              		.loc 1 321 52 view .LVU156
 482 0016 4CEA0101 		orr	r1, ip, r1
 483 001a 0B43     		orrs	r3, r3, r1
 484 001c 22F47062 		bic	r2, r2, #3840
 485              	.LVL58:
 486              		.loc 1 321 52 view .LVU157
 487 0020 1343     		orrs	r3, r3, r2
 488              	.LVL59:
 322:./Drivers/src/stm32f10x_usart.c ****   /* Write to USART CR2 */
 323:./Drivers/src/stm32f10x_usart.c ****   USARTx->CR2 = (uint16_t)tmpreg;
 489              		.loc 1 323 3 is_stmt 1 view .LVU158
 490              		.loc 1 323 15 is_stmt 0 view .LVU159
 491 0022 0382     		strh	r3, [r0, #16]	@ movhi
 324:./Drivers/src/stm32f10x_usart.c **** }
 492              		.loc 1 324 1 view .LVU160
 493 0024 10BD     		pop	{r4, pc}
 494              		.cfi_endproc
 495              	.LFE32:
 497              		.section	.text.USART_ClockStructInit,"ax",%progbits
 498              		.align	1
 499              		.global	USART_ClockStructInit
 500              		.syntax unified
 501              		.thumb
 502              		.thumb_func
 504              	USART_ClockStructInit:
 505              	.LVL60:
 506              	.LFB33:
ARM GAS  /tmp/ccXaqWhu.s 			page 16


 325:./Drivers/src/stm32f10x_usart.c **** 
 326:./Drivers/src/stm32f10x_usart.c **** /**
 327:./Drivers/src/stm32f10x_usart.c ****   * @brief  Fills each USART_ClockInitStruct member with its default value.
 328:./Drivers/src/stm32f10x_usart.c ****   * @param  USART_ClockInitStruct: pointer to a USART_ClockInitTypeDef
 329:./Drivers/src/stm32f10x_usart.c ****   *         structure which will be initialized.
 330:./Drivers/src/stm32f10x_usart.c ****   * @retval None
 331:./Drivers/src/stm32f10x_usart.c ****   */
 332:./Drivers/src/stm32f10x_usart.c **** void USART_ClockStructInit(USART_ClockInitTypeDef* USART_ClockInitStruct)
 333:./Drivers/src/stm32f10x_usart.c **** {
 507              		.loc 1 333 1 is_stmt 1 view -0
 508              		.cfi_startproc
 509              		@ args = 0, pretend = 0, frame = 0
 510              		@ frame_needed = 0, uses_anonymous_args = 0
 511              		@ link register save eliminated.
 334:./Drivers/src/stm32f10x_usart.c ****   /* USART_ClockInitStruct members default value */
 335:./Drivers/src/stm32f10x_usart.c ****   USART_ClockInitStruct->USART_Clock = USART_Clock_Disable;
 512              		.loc 1 335 3 view .LVU162
 513              		.loc 1 335 38 is_stmt 0 view .LVU163
 514 0000 0023     		movs	r3, #0
 515 0002 0380     		strh	r3, [r0]	@ movhi
 336:./Drivers/src/stm32f10x_usart.c ****   USART_ClockInitStruct->USART_CPOL = USART_CPOL_Low;
 516              		.loc 1 336 3 is_stmt 1 view .LVU164
 517              		.loc 1 336 37 is_stmt 0 view .LVU165
 518 0004 4380     		strh	r3, [r0, #2]	@ movhi
 337:./Drivers/src/stm32f10x_usart.c ****   USART_ClockInitStruct->USART_CPHA = USART_CPHA_1Edge;
 519              		.loc 1 337 3 is_stmt 1 view .LVU166
 520              		.loc 1 337 37 is_stmt 0 view .LVU167
 521 0006 8380     		strh	r3, [r0, #4]	@ movhi
 338:./Drivers/src/stm32f10x_usart.c ****   USART_ClockInitStruct->USART_LastBit = USART_LastBit_Disable;
 522              		.loc 1 338 3 is_stmt 1 view .LVU168
 523              		.loc 1 338 40 is_stmt 0 view .LVU169
 524 0008 C380     		strh	r3, [r0, #6]	@ movhi
 339:./Drivers/src/stm32f10x_usart.c **** }
 525              		.loc 1 339 1 view .LVU170
 526 000a 7047     		bx	lr
 527              		.cfi_endproc
 528              	.LFE33:
 530              		.section	.text.USART_Cmd,"ax",%progbits
 531              		.align	1
 532              		.global	USART_Cmd
 533              		.syntax unified
 534              		.thumb
 535              		.thumb_func
 537              	USART_Cmd:
 538              	.LVL61:
 539              	.LFB34:
 340:./Drivers/src/stm32f10x_usart.c **** 
 341:./Drivers/src/stm32f10x_usart.c **** /**
 342:./Drivers/src/stm32f10x_usart.c ****   * @brief  Enables or disables the specified USART peripheral.
 343:./Drivers/src/stm32f10x_usart.c ****   * @param  USARTx: Select the USART or the UART peripheral. 
 344:./Drivers/src/stm32f10x_usart.c ****   *         This parameter can be one of the following values:
 345:./Drivers/src/stm32f10x_usart.c ****   *           USART1, USART2, USART3, UART4 or UART5.
 346:./Drivers/src/stm32f10x_usart.c ****   * @param  NewState: new state of the USARTx peripheral.
 347:./Drivers/src/stm32f10x_usart.c ****   *         This parameter can be: ENABLE or DISABLE.
 348:./Drivers/src/stm32f10x_usart.c ****   * @retval None
 349:./Drivers/src/stm32f10x_usart.c ****   */
 350:./Drivers/src/stm32f10x_usart.c **** void USART_Cmd(USART_TypeDef* USARTx, FunctionalState NewState)
ARM GAS  /tmp/ccXaqWhu.s 			page 17


 351:./Drivers/src/stm32f10x_usart.c **** {
 540              		.loc 1 351 1 is_stmt 1 view -0
 541              		.cfi_startproc
 542              		@ args = 0, pretend = 0, frame = 0
 543              		@ frame_needed = 0, uses_anonymous_args = 0
 544              		@ link register save eliminated.
 352:./Drivers/src/stm32f10x_usart.c ****   /* Check the parameters */
 353:./Drivers/src/stm32f10x_usart.c ****   assert_param(IS_USART_ALL_PERIPH(USARTx));
 545              		.loc 1 353 3 view .LVU172
 354:./Drivers/src/stm32f10x_usart.c ****   assert_param(IS_FUNCTIONAL_STATE(NewState));
 546              		.loc 1 354 3 view .LVU173
 355:./Drivers/src/stm32f10x_usart.c ****   
 356:./Drivers/src/stm32f10x_usart.c ****   if (NewState != DISABLE)
 547              		.loc 1 356 3 view .LVU174
 548              		.loc 1 356 6 is_stmt 0 view .LVU175
 549 0000 29B1     		cbz	r1, .L33
 357:./Drivers/src/stm32f10x_usart.c ****   {
 358:./Drivers/src/stm32f10x_usart.c ****     /* Enable the selected USART by setting the UE bit in the CR1 register */
 359:./Drivers/src/stm32f10x_usart.c ****     USARTx->CR1 |= CR1_UE_Set;
 550              		.loc 1 359 5 is_stmt 1 view .LVU176
 551              		.loc 1 359 11 is_stmt 0 view .LVU177
 552 0002 8389     		ldrh	r3, [r0, #12]
 553 0004 9BB2     		uxth	r3, r3
 554              		.loc 1 359 17 view .LVU178
 555 0006 43F40053 		orr	r3, r3, #8192
 556 000a 8381     		strh	r3, [r0, #12]	@ movhi
 557 000c 7047     		bx	lr
 558              	.L33:
 360:./Drivers/src/stm32f10x_usart.c ****   }
 361:./Drivers/src/stm32f10x_usart.c ****   else
 362:./Drivers/src/stm32f10x_usart.c ****   {
 363:./Drivers/src/stm32f10x_usart.c ****     /* Disable the selected USART by clearing the UE bit in the CR1 register */
 364:./Drivers/src/stm32f10x_usart.c ****     USARTx->CR1 &= CR1_UE_Reset;
 559              		.loc 1 364 5 is_stmt 1 view .LVU179
 560              		.loc 1 364 11 is_stmt 0 view .LVU180
 561 000e 8389     		ldrh	r3, [r0, #12]
 562 0010 9BB2     		uxth	r3, r3
 563              		.loc 1 364 17 view .LVU181
 564 0012 23F40053 		bic	r3, r3, #8192
 565 0016 9BB2     		uxth	r3, r3
 566 0018 8381     		strh	r3, [r0, #12]	@ movhi
 365:./Drivers/src/stm32f10x_usart.c ****   }
 366:./Drivers/src/stm32f10x_usart.c **** }
 567              		.loc 1 366 1 view .LVU182
 568 001a 7047     		bx	lr
 569              		.cfi_endproc
 570              	.LFE34:
 572              		.section	.text.USART_ITConfig,"ax",%progbits
 573              		.align	1
 574              		.global	USART_ITConfig
 575              		.syntax unified
 576              		.thumb
 577              		.thumb_func
 579              	USART_ITConfig:
 580              	.LVL62:
 581              	.LFB35:
 367:./Drivers/src/stm32f10x_usart.c **** 
ARM GAS  /tmp/ccXaqWhu.s 			page 18


 368:./Drivers/src/stm32f10x_usart.c **** /**
 369:./Drivers/src/stm32f10x_usart.c ****   * @brief  Enables or disables the specified USART interrupts.
 370:./Drivers/src/stm32f10x_usart.c ****   * @param  USARTx: Select the USART or the UART peripheral. 
 371:./Drivers/src/stm32f10x_usart.c ****   *   This parameter can be one of the following values:
 372:./Drivers/src/stm32f10x_usart.c ****   *   USART1, USART2, USART3, UART4 or UART5.
 373:./Drivers/src/stm32f10x_usart.c ****   * @param  USART_IT: specifies the USART interrupt sources to be enabled or disabled.
 374:./Drivers/src/stm32f10x_usart.c ****   *   This parameter can be one of the following values:
 375:./Drivers/src/stm32f10x_usart.c ****   *     @arg USART_IT_CTS:  CTS change interrupt (not available for UART4 and UART5)
 376:./Drivers/src/stm32f10x_usart.c ****   *     @arg USART_IT_LBD:  LIN Break detection interrupt
 377:./Drivers/src/stm32f10x_usart.c ****   *     @arg USART_IT_TXE:  Transmit Data Register empty interrupt
 378:./Drivers/src/stm32f10x_usart.c ****   *     @arg USART_IT_TC:   Transmission complete interrupt
 379:./Drivers/src/stm32f10x_usart.c ****   *     @arg USART_IT_RXNE: Receive Data register not empty interrupt
 380:./Drivers/src/stm32f10x_usart.c ****   *     @arg USART_IT_IDLE: Idle line detection interrupt
 381:./Drivers/src/stm32f10x_usart.c ****   *     @arg USART_IT_PE:   Parity Error interrupt
 382:./Drivers/src/stm32f10x_usart.c ****   *     @arg USART_IT_ERR:  Error interrupt(Frame error, noise error, overrun error)
 383:./Drivers/src/stm32f10x_usart.c ****   * @param  NewState: new state of the specified USARTx interrupts.
 384:./Drivers/src/stm32f10x_usart.c ****   *   This parameter can be: ENABLE or DISABLE.
 385:./Drivers/src/stm32f10x_usart.c ****   * @retval None
 386:./Drivers/src/stm32f10x_usart.c ****   */
 387:./Drivers/src/stm32f10x_usart.c **** void USART_ITConfig(USART_TypeDef* USARTx, uint16_t USART_IT, FunctionalState NewState)
 388:./Drivers/src/stm32f10x_usart.c **** {
 582              		.loc 1 388 1 is_stmt 1 view -0
 583              		.cfi_startproc
 584              		@ args = 0, pretend = 0, frame = 0
 585              		@ frame_needed = 0, uses_anonymous_args = 0
 586              		@ link register save eliminated.
 389:./Drivers/src/stm32f10x_usart.c ****   uint32_t usartreg = 0x00, itpos = 0x00, itmask = 0x00;
 587              		.loc 1 389 3 view .LVU184
 390:./Drivers/src/stm32f10x_usart.c ****   uint32_t usartxbase = 0x00;
 588              		.loc 1 390 3 view .LVU185
 391:./Drivers/src/stm32f10x_usart.c ****   /* Check the parameters */
 392:./Drivers/src/stm32f10x_usart.c ****   assert_param(IS_USART_ALL_PERIPH(USARTx));
 589              		.loc 1 392 3 view .LVU186
 393:./Drivers/src/stm32f10x_usart.c ****   assert_param(IS_USART_CONFIG_IT(USART_IT));
 590              		.loc 1 393 3 view .LVU187
 394:./Drivers/src/stm32f10x_usart.c ****   assert_param(IS_FUNCTIONAL_STATE(NewState));
 591              		.loc 1 394 3 view .LVU188
 395:./Drivers/src/stm32f10x_usart.c ****   /* The CTS interrupt is not available for UART4 and UART5 */
 396:./Drivers/src/stm32f10x_usart.c ****   if (USART_IT == USART_IT_CTS)
 592              		.loc 1 396 3 view .LVU189
 397:./Drivers/src/stm32f10x_usart.c ****   {
 398:./Drivers/src/stm32f10x_usart.c ****     assert_param(IS_USART_123_PERIPH(USARTx));
 593              		.loc 1 398 5 view .LVU190
 399:./Drivers/src/stm32f10x_usart.c ****   }   
 400:./Drivers/src/stm32f10x_usart.c ****   
 401:./Drivers/src/stm32f10x_usart.c ****   usartxbase = (uint32_t)USARTx;
 594              		.loc 1 401 3 view .LVU191
 402:./Drivers/src/stm32f10x_usart.c **** 
 403:./Drivers/src/stm32f10x_usart.c ****   /* Get the USART register index */
 404:./Drivers/src/stm32f10x_usart.c ****   usartreg = (((uint8_t)USART_IT) >> 0x05);
 595              		.loc 1 404 3 view .LVU192
 596              		.loc 1 404 35 is_stmt 0 view .LVU193
 597 0000 C1F3421C 		ubfx	ip, r1, #5, #3
 598              	.LVL63:
 405:./Drivers/src/stm32f10x_usart.c **** 
 406:./Drivers/src/stm32f10x_usart.c ****   /* Get the interrupt position */
 407:./Drivers/src/stm32f10x_usart.c ****   itpos = USART_IT & IT_Mask;
ARM GAS  /tmp/ccXaqWhu.s 			page 19


 599              		.loc 1 407 3 is_stmt 1 view .LVU194
 600              		.loc 1 407 9 is_stmt 0 view .LVU195
 601 0004 01F01F01 		and	r1, r1, #31
 602              	.LVL64:
 408:./Drivers/src/stm32f10x_usart.c ****   itmask = (((uint32_t)0x01) << itpos);
 603              		.loc 1 408 3 is_stmt 1 view .LVU196
 604              		.loc 1 408 10 is_stmt 0 view .LVU197
 605 0008 0123     		movs	r3, #1
 606 000a 8B40     		lsls	r3, r3, r1
 607              	.LVL65:
 409:./Drivers/src/stm32f10x_usart.c ****     
 410:./Drivers/src/stm32f10x_usart.c ****   if (usartreg == 0x01) /* The IT is in CR1 register */
 608              		.loc 1 410 3 is_stmt 1 view .LVU198
 609              		.loc 1 410 6 is_stmt 0 view .LVU199
 610 000c BCF1010F 		cmp	ip, #1
 611 0010 08D0     		beq	.L41
 411:./Drivers/src/stm32f10x_usart.c ****   {
 412:./Drivers/src/stm32f10x_usart.c ****     usartxbase += 0x0C;
 413:./Drivers/src/stm32f10x_usart.c ****   }
 414:./Drivers/src/stm32f10x_usart.c ****   else if (usartreg == 0x02) /* The IT is in CR2 register */
 612              		.loc 1 414 8 is_stmt 1 view .LVU200
 613              		.loc 1 414 11 is_stmt 0 view .LVU201
 614 0012 BCF1020F 		cmp	ip, #2
 615 0016 07D0     		beq	.L42
 415:./Drivers/src/stm32f10x_usart.c ****   {
 416:./Drivers/src/stm32f10x_usart.c ****     usartxbase += 0x10;
 417:./Drivers/src/stm32f10x_usart.c ****   }
 418:./Drivers/src/stm32f10x_usart.c ****   else /* The IT is in CR3 register */
 419:./Drivers/src/stm32f10x_usart.c ****   {
 420:./Drivers/src/stm32f10x_usart.c ****     usartxbase += 0x14; 
 616              		.loc 1 420 5 is_stmt 1 view .LVU202
 617              		.loc 1 420 16 is_stmt 0 view .LVU203
 618 0018 1430     		adds	r0, r0, #20
 619              	.LVL66:
 620              	.L37:
 421:./Drivers/src/stm32f10x_usart.c ****   }
 422:./Drivers/src/stm32f10x_usart.c ****   if (NewState != DISABLE)
 621              		.loc 1 422 3 is_stmt 1 view .LVU204
 622              		.loc 1 422 6 is_stmt 0 view .LVU205
 623 001a 3AB1     		cbz	r2, .L39
 423:./Drivers/src/stm32f10x_usart.c ****   {
 424:./Drivers/src/stm32f10x_usart.c ****     *(__IO uint32_t*)usartxbase  |= itmask;
 624              		.loc 1 424 5 is_stmt 1 view .LVU206
 625 001c 0268     		ldr	r2, [r0]
 626              	.LVL67:
 627              		.loc 1 424 34 is_stmt 0 view .LVU207
 628 001e 1343     		orrs	r3, r3, r2
 629              	.LVL68:
 630              		.loc 1 424 34 view .LVU208
 631 0020 0360     		str	r3, [r0]
 632 0022 7047     		bx	lr
 633              	.LVL69:
 634              	.L41:
 412:./Drivers/src/stm32f10x_usart.c ****   }
 635              		.loc 1 412 5 is_stmt 1 view .LVU209
 412:./Drivers/src/stm32f10x_usart.c ****   }
 636              		.loc 1 412 16 is_stmt 0 view .LVU210
ARM GAS  /tmp/ccXaqWhu.s 			page 20


 637 0024 0C30     		adds	r0, r0, #12
 638              	.LVL70:
 412:./Drivers/src/stm32f10x_usart.c ****   }
 639              		.loc 1 412 16 view .LVU211
 640 0026 F8E7     		b	.L37
 641              	.LVL71:
 642              	.L42:
 416:./Drivers/src/stm32f10x_usart.c ****   }
 643              		.loc 1 416 5 is_stmt 1 view .LVU212
 416:./Drivers/src/stm32f10x_usart.c ****   }
 644              		.loc 1 416 16 is_stmt 0 view .LVU213
 645 0028 1030     		adds	r0, r0, #16
 646              	.LVL72:
 416:./Drivers/src/stm32f10x_usart.c ****   }
 647              		.loc 1 416 16 view .LVU214
 648 002a F6E7     		b	.L37
 649              	.LVL73:
 650              	.L39:
 425:./Drivers/src/stm32f10x_usart.c ****   }
 426:./Drivers/src/stm32f10x_usart.c ****   else
 427:./Drivers/src/stm32f10x_usart.c ****   {
 428:./Drivers/src/stm32f10x_usart.c ****     *(__IO uint32_t*)usartxbase &= ~itmask;
 651              		.loc 1 428 5 is_stmt 1 view .LVU215
 652 002c 0268     		ldr	r2, [r0]
 653              	.LVL74:
 654              		.loc 1 428 33 is_stmt 0 view .LVU216
 655 002e 22EA0303 		bic	r3, r2, r3
 656              	.LVL75:
 657              		.loc 1 428 33 view .LVU217
 658 0032 0360     		str	r3, [r0]
 429:./Drivers/src/stm32f10x_usart.c ****   }
 430:./Drivers/src/stm32f10x_usart.c **** }
 659              		.loc 1 430 1 view .LVU218
 660 0034 7047     		bx	lr
 661              		.cfi_endproc
 662              	.LFE35:
 664              		.section	.text.USART_DMACmd,"ax",%progbits
 665              		.align	1
 666              		.global	USART_DMACmd
 667              		.syntax unified
 668              		.thumb
 669              		.thumb_func
 671              	USART_DMACmd:
 672              	.LVL76:
 673              	.LFB36:
 431:./Drivers/src/stm32f10x_usart.c **** 
 432:./Drivers/src/stm32f10x_usart.c **** /**
 433:./Drivers/src/stm32f10x_usart.c ****   * @brief  Enables or disables the USARTs DMA interface.
 434:./Drivers/src/stm32f10x_usart.c ****   * @param  USARTx: Select the USART or the UART peripheral. 
 435:./Drivers/src/stm32f10x_usart.c ****   *   This parameter can be one of the following values:
 436:./Drivers/src/stm32f10x_usart.c ****   *   USART1, USART2, USART3, UART4 or UART5.
 437:./Drivers/src/stm32f10x_usart.c ****   * @param  USART_DMAReq: specifies the DMA request.
 438:./Drivers/src/stm32f10x_usart.c ****   *   This parameter can be any combination of the following values:
 439:./Drivers/src/stm32f10x_usart.c ****   *     @arg USART_DMAReq_Tx: USART DMA transmit request
 440:./Drivers/src/stm32f10x_usart.c ****   *     @arg USART_DMAReq_Rx: USART DMA receive request
 441:./Drivers/src/stm32f10x_usart.c ****   * @param  NewState: new state of the DMA Request sources.
 442:./Drivers/src/stm32f10x_usart.c ****   *   This parameter can be: ENABLE or DISABLE.
ARM GAS  /tmp/ccXaqWhu.s 			page 21


 443:./Drivers/src/stm32f10x_usart.c ****   * @note The DMA mode is not available for UART5 except in the STM32
 444:./Drivers/src/stm32f10x_usart.c ****   *       High density value line devices(STM32F10X_HD_VL).  
 445:./Drivers/src/stm32f10x_usart.c ****   * @retval None
 446:./Drivers/src/stm32f10x_usart.c ****   */
 447:./Drivers/src/stm32f10x_usart.c **** void USART_DMACmd(USART_TypeDef* USARTx, uint16_t USART_DMAReq, FunctionalState NewState)
 448:./Drivers/src/stm32f10x_usart.c **** {
 674              		.loc 1 448 1 is_stmt 1 view -0
 675              		.cfi_startproc
 676              		@ args = 0, pretend = 0, frame = 0
 677              		@ frame_needed = 0, uses_anonymous_args = 0
 678              		@ link register save eliminated.
 449:./Drivers/src/stm32f10x_usart.c ****   /* Check the parameters */
 450:./Drivers/src/stm32f10x_usart.c ****   assert_param(IS_USART_ALL_PERIPH(USARTx));
 679              		.loc 1 450 3 view .LVU220
 451:./Drivers/src/stm32f10x_usart.c ****   assert_param(IS_USART_DMAREQ(USART_DMAReq));  
 680              		.loc 1 451 3 view .LVU221
 452:./Drivers/src/stm32f10x_usart.c ****   assert_param(IS_FUNCTIONAL_STATE(NewState)); 
 681              		.loc 1 452 3 view .LVU222
 453:./Drivers/src/stm32f10x_usart.c ****   if (NewState != DISABLE)
 682              		.loc 1 453 3 view .LVU223
 683              		.loc 1 453 6 is_stmt 0 view .LVU224
 684 0000 22B1     		cbz	r2, .L44
 454:./Drivers/src/stm32f10x_usart.c ****   {
 455:./Drivers/src/stm32f10x_usart.c ****     /* Enable the DMA transfer for selected requests by setting the DMAT and/or
 456:./Drivers/src/stm32f10x_usart.c ****        DMAR bits in the USART CR3 register */
 457:./Drivers/src/stm32f10x_usart.c ****     USARTx->CR3 |= USART_DMAReq;
 685              		.loc 1 457 5 is_stmt 1 view .LVU225
 686              		.loc 1 457 11 is_stmt 0 view .LVU226
 687 0002 838A     		ldrh	r3, [r0, #20]
 688 0004 9BB2     		uxth	r3, r3
 689              		.loc 1 457 17 view .LVU227
 690 0006 0B43     		orrs	r3, r3, r1
 691 0008 8382     		strh	r3, [r0, #20]	@ movhi
 692 000a 7047     		bx	lr
 693              	.L44:
 458:./Drivers/src/stm32f10x_usart.c ****   }
 459:./Drivers/src/stm32f10x_usart.c ****   else
 460:./Drivers/src/stm32f10x_usart.c ****   {
 461:./Drivers/src/stm32f10x_usart.c ****     /* Disable the DMA transfer for selected requests by clearing the DMAT and/or
 462:./Drivers/src/stm32f10x_usart.c ****        DMAR bits in the USART CR3 register */
 463:./Drivers/src/stm32f10x_usart.c ****     USARTx->CR3 &= (uint16_t)~USART_DMAReq;
 694              		.loc 1 463 5 is_stmt 1 view .LVU228
 695              		.loc 1 463 11 is_stmt 0 view .LVU229
 696 000c 838A     		ldrh	r3, [r0, #20]
 697              		.loc 1 463 20 view .LVU230
 698 000e C943     		mvns	r1, r1
 699              	.LVL77:
 700              		.loc 1 463 20 view .LVU231
 701 0010 89B2     		uxth	r1, r1
 702              		.loc 1 463 17 view .LVU232
 703 0012 1940     		ands	r1, r1, r3
 704 0014 8182     		strh	r1, [r0, #20]	@ movhi
 464:./Drivers/src/stm32f10x_usart.c ****   }
 465:./Drivers/src/stm32f10x_usart.c **** }
 705              		.loc 1 465 1 view .LVU233
 706 0016 7047     		bx	lr
 707              		.cfi_endproc
ARM GAS  /tmp/ccXaqWhu.s 			page 22


 708              	.LFE36:
 710              		.section	.text.USART_SetAddress,"ax",%progbits
 711              		.align	1
 712              		.global	USART_SetAddress
 713              		.syntax unified
 714              		.thumb
 715              		.thumb_func
 717              	USART_SetAddress:
 718              	.LVL78:
 719              	.LFB37:
 466:./Drivers/src/stm32f10x_usart.c **** 
 467:./Drivers/src/stm32f10x_usart.c **** /**
 468:./Drivers/src/stm32f10x_usart.c ****   * @brief  Sets the address of the USART node.
 469:./Drivers/src/stm32f10x_usart.c ****   * @param  USARTx: Select the USART or the UART peripheral. 
 470:./Drivers/src/stm32f10x_usart.c ****   *   This parameter can be one of the following values:
 471:./Drivers/src/stm32f10x_usart.c ****   *   USART1, USART2, USART3, UART4 or UART5.
 472:./Drivers/src/stm32f10x_usart.c ****   * @param  USART_Address: Indicates the address of the USART node.
 473:./Drivers/src/stm32f10x_usart.c ****   * @retval None
 474:./Drivers/src/stm32f10x_usart.c ****   */
 475:./Drivers/src/stm32f10x_usart.c **** void USART_SetAddress(USART_TypeDef* USARTx, uint8_t USART_Address)
 476:./Drivers/src/stm32f10x_usart.c **** {
 720              		.loc 1 476 1 is_stmt 1 view -0
 721              		.cfi_startproc
 722              		@ args = 0, pretend = 0, frame = 0
 723              		@ frame_needed = 0, uses_anonymous_args = 0
 724              		@ link register save eliminated.
 477:./Drivers/src/stm32f10x_usart.c ****   /* Check the parameters */
 478:./Drivers/src/stm32f10x_usart.c ****   assert_param(IS_USART_ALL_PERIPH(USARTx));
 725              		.loc 1 478 3 view .LVU235
 479:./Drivers/src/stm32f10x_usart.c ****   assert_param(IS_USART_ADDRESS(USART_Address)); 
 726              		.loc 1 479 3 view .LVU236
 480:./Drivers/src/stm32f10x_usart.c ****     
 481:./Drivers/src/stm32f10x_usart.c ****   /* Clear the USART address */
 482:./Drivers/src/stm32f10x_usart.c ****   USARTx->CR2 &= CR2_Address_Mask;
 727              		.loc 1 482 3 view .LVU237
 728              		.loc 1 482 9 is_stmt 0 view .LVU238
 729 0000 038A     		ldrh	r3, [r0, #16]
 730 0002 9BB2     		uxth	r3, r3
 731              		.loc 1 482 15 view .LVU239
 732 0004 23F00F03 		bic	r3, r3, #15
 733 0008 9BB2     		uxth	r3, r3
 734 000a 0382     		strh	r3, [r0, #16]	@ movhi
 483:./Drivers/src/stm32f10x_usart.c ****   /* Set the USART address node */
 484:./Drivers/src/stm32f10x_usart.c ****   USARTx->CR2 |= USART_Address;
 735              		.loc 1 484 3 is_stmt 1 view .LVU240
 736              		.loc 1 484 9 is_stmt 0 view .LVU241
 737 000c 038A     		ldrh	r3, [r0, #16]
 738 000e 9BB2     		uxth	r3, r3
 739              		.loc 1 484 15 view .LVU242
 740 0010 1943     		orrs	r1, r1, r3
 741              	.LVL79:
 742              		.loc 1 484 15 view .LVU243
 743 0012 0182     		strh	r1, [r0, #16]	@ movhi
 485:./Drivers/src/stm32f10x_usart.c **** }
 744              		.loc 1 485 1 view .LVU244
 745 0014 7047     		bx	lr
 746              		.cfi_endproc
ARM GAS  /tmp/ccXaqWhu.s 			page 23


 747              	.LFE37:
 749              		.section	.text.USART_WakeUpConfig,"ax",%progbits
 750              		.align	1
 751              		.global	USART_WakeUpConfig
 752              		.syntax unified
 753              		.thumb
 754              		.thumb_func
 756              	USART_WakeUpConfig:
 757              	.LVL80:
 758              	.LFB38:
 486:./Drivers/src/stm32f10x_usart.c **** 
 487:./Drivers/src/stm32f10x_usart.c **** /**
 488:./Drivers/src/stm32f10x_usart.c ****   * @brief  Selects the USART WakeUp method.
 489:./Drivers/src/stm32f10x_usart.c ****   * @param  USARTx: Select the USART or the UART peripheral. 
 490:./Drivers/src/stm32f10x_usart.c ****   *   This parameter can be one of the following values:
 491:./Drivers/src/stm32f10x_usart.c ****   *   USART1, USART2, USART3, UART4 or UART5.
 492:./Drivers/src/stm32f10x_usart.c ****   * @param  USART_WakeUp: specifies the USART wakeup method.
 493:./Drivers/src/stm32f10x_usart.c ****   *   This parameter can be one of the following values:
 494:./Drivers/src/stm32f10x_usart.c ****   *     @arg USART_WakeUp_IdleLine: WakeUp by an idle line detection
 495:./Drivers/src/stm32f10x_usart.c ****   *     @arg USART_WakeUp_AddressMark: WakeUp by an address mark
 496:./Drivers/src/stm32f10x_usart.c ****   * @retval None
 497:./Drivers/src/stm32f10x_usart.c ****   */
 498:./Drivers/src/stm32f10x_usart.c **** void USART_WakeUpConfig(USART_TypeDef* USARTx, uint16_t USART_WakeUp)
 499:./Drivers/src/stm32f10x_usart.c **** {
 759              		.loc 1 499 1 is_stmt 1 view -0
 760              		.cfi_startproc
 761              		@ args = 0, pretend = 0, frame = 0
 762              		@ frame_needed = 0, uses_anonymous_args = 0
 763              		@ link register save eliminated.
 500:./Drivers/src/stm32f10x_usart.c ****   /* Check the parameters */
 501:./Drivers/src/stm32f10x_usart.c ****   assert_param(IS_USART_ALL_PERIPH(USARTx));
 764              		.loc 1 501 3 view .LVU246
 502:./Drivers/src/stm32f10x_usart.c ****   assert_param(IS_USART_WAKEUP(USART_WakeUp));
 765              		.loc 1 502 3 view .LVU247
 503:./Drivers/src/stm32f10x_usart.c ****   
 504:./Drivers/src/stm32f10x_usart.c ****   USARTx->CR1 &= CR1_WAKE_Mask;
 766              		.loc 1 504 3 view .LVU248
 767              		.loc 1 504 9 is_stmt 0 view .LVU249
 768 0000 8389     		ldrh	r3, [r0, #12]
 769 0002 9BB2     		uxth	r3, r3
 770              		.loc 1 504 15 view .LVU250
 771 0004 23F40063 		bic	r3, r3, #2048
 772 0008 9BB2     		uxth	r3, r3
 773 000a 8381     		strh	r3, [r0, #12]	@ movhi
 505:./Drivers/src/stm32f10x_usart.c ****   USARTx->CR1 |= USART_WakeUp;
 774              		.loc 1 505 3 is_stmt 1 view .LVU251
 775              		.loc 1 505 9 is_stmt 0 view .LVU252
 776 000c 8389     		ldrh	r3, [r0, #12]
 777 000e 9BB2     		uxth	r3, r3
 778              		.loc 1 505 15 view .LVU253
 779 0010 0B43     		orrs	r3, r3, r1
 780 0012 8381     		strh	r3, [r0, #12]	@ movhi
 506:./Drivers/src/stm32f10x_usart.c **** }
 781              		.loc 1 506 1 view .LVU254
 782 0014 7047     		bx	lr
 783              		.cfi_endproc
 784              	.LFE38:
ARM GAS  /tmp/ccXaqWhu.s 			page 24


 786              		.section	.text.USART_ReceiverWakeUpCmd,"ax",%progbits
 787              		.align	1
 788              		.global	USART_ReceiverWakeUpCmd
 789              		.syntax unified
 790              		.thumb
 791              		.thumb_func
 793              	USART_ReceiverWakeUpCmd:
 794              	.LVL81:
 795              	.LFB39:
 507:./Drivers/src/stm32f10x_usart.c **** 
 508:./Drivers/src/stm32f10x_usart.c **** /**
 509:./Drivers/src/stm32f10x_usart.c ****   * @brief  Determines if the USART is in mute mode or not.
 510:./Drivers/src/stm32f10x_usart.c ****   * @param  USARTx: Select the USART or the UART peripheral. 
 511:./Drivers/src/stm32f10x_usart.c ****   *   This parameter can be one of the following values:
 512:./Drivers/src/stm32f10x_usart.c ****   *   USART1, USART2, USART3, UART4 or UART5.
 513:./Drivers/src/stm32f10x_usart.c ****   * @param  NewState: new state of the USART mute mode.
 514:./Drivers/src/stm32f10x_usart.c ****   *   This parameter can be: ENABLE or DISABLE.
 515:./Drivers/src/stm32f10x_usart.c ****   * @retval None
 516:./Drivers/src/stm32f10x_usart.c ****   */
 517:./Drivers/src/stm32f10x_usart.c **** void USART_ReceiverWakeUpCmd(USART_TypeDef* USARTx, FunctionalState NewState)
 518:./Drivers/src/stm32f10x_usart.c **** {
 796              		.loc 1 518 1 is_stmt 1 view -0
 797              		.cfi_startproc
 798              		@ args = 0, pretend = 0, frame = 0
 799              		@ frame_needed = 0, uses_anonymous_args = 0
 800              		@ link register save eliminated.
 519:./Drivers/src/stm32f10x_usart.c ****   /* Check the parameters */
 520:./Drivers/src/stm32f10x_usart.c ****   assert_param(IS_USART_ALL_PERIPH(USARTx));
 801              		.loc 1 520 3 view .LVU256
 521:./Drivers/src/stm32f10x_usart.c ****   assert_param(IS_FUNCTIONAL_STATE(NewState)); 
 802              		.loc 1 521 3 view .LVU257
 522:./Drivers/src/stm32f10x_usart.c ****   
 523:./Drivers/src/stm32f10x_usart.c ****   if (NewState != DISABLE)
 803              		.loc 1 523 3 view .LVU258
 804              		.loc 1 523 6 is_stmt 0 view .LVU259
 805 0000 29B1     		cbz	r1, .L49
 524:./Drivers/src/stm32f10x_usart.c ****   {
 525:./Drivers/src/stm32f10x_usart.c ****     /* Enable the USART mute mode  by setting the RWU bit in the CR1 register */
 526:./Drivers/src/stm32f10x_usart.c ****     USARTx->CR1 |= CR1_RWU_Set;
 806              		.loc 1 526 5 is_stmt 1 view .LVU260
 807              		.loc 1 526 11 is_stmt 0 view .LVU261
 808 0002 8389     		ldrh	r3, [r0, #12]
 809 0004 9BB2     		uxth	r3, r3
 810              		.loc 1 526 17 view .LVU262
 811 0006 43F00203 		orr	r3, r3, #2
 812 000a 8381     		strh	r3, [r0, #12]	@ movhi
 813 000c 7047     		bx	lr
 814              	.L49:
 527:./Drivers/src/stm32f10x_usart.c ****   }
 528:./Drivers/src/stm32f10x_usart.c ****   else
 529:./Drivers/src/stm32f10x_usart.c ****   {
 530:./Drivers/src/stm32f10x_usart.c ****     /* Disable the USART mute mode by clearing the RWU bit in the CR1 register */
 531:./Drivers/src/stm32f10x_usart.c ****     USARTx->CR1 &= CR1_RWU_Reset;
 815              		.loc 1 531 5 is_stmt 1 view .LVU263
 816              		.loc 1 531 11 is_stmt 0 view .LVU264
 817 000e 8389     		ldrh	r3, [r0, #12]
 818 0010 9BB2     		uxth	r3, r3
ARM GAS  /tmp/ccXaqWhu.s 			page 25


 819              		.loc 1 531 17 view .LVU265
 820 0012 23F00203 		bic	r3, r3, #2
 821 0016 9BB2     		uxth	r3, r3
 822 0018 8381     		strh	r3, [r0, #12]	@ movhi
 532:./Drivers/src/stm32f10x_usart.c ****   }
 533:./Drivers/src/stm32f10x_usart.c **** }
 823              		.loc 1 533 1 view .LVU266
 824 001a 7047     		bx	lr
 825              		.cfi_endproc
 826              	.LFE39:
 828              		.section	.text.USART_LINBreakDetectLengthConfig,"ax",%progbits
 829              		.align	1
 830              		.global	USART_LINBreakDetectLengthConfig
 831              		.syntax unified
 832              		.thumb
 833              		.thumb_func
 835              	USART_LINBreakDetectLengthConfig:
 836              	.LVL82:
 837              	.LFB40:
 534:./Drivers/src/stm32f10x_usart.c **** 
 535:./Drivers/src/stm32f10x_usart.c **** /**
 536:./Drivers/src/stm32f10x_usart.c ****   * @brief  Sets the USART LIN Break detection length.
 537:./Drivers/src/stm32f10x_usart.c ****   * @param  USARTx: Select the USART or the UART peripheral. 
 538:./Drivers/src/stm32f10x_usart.c ****   *   This parameter can be one of the following values:
 539:./Drivers/src/stm32f10x_usart.c ****   *   USART1, USART2, USART3, UART4 or UART5.
 540:./Drivers/src/stm32f10x_usart.c ****   * @param  USART_LINBreakDetectLength: specifies the LIN break detection length.
 541:./Drivers/src/stm32f10x_usart.c ****   *   This parameter can be one of the following values:
 542:./Drivers/src/stm32f10x_usart.c ****   *     @arg USART_LINBreakDetectLength_10b: 10-bit break detection
 543:./Drivers/src/stm32f10x_usart.c ****   *     @arg USART_LINBreakDetectLength_11b: 11-bit break detection
 544:./Drivers/src/stm32f10x_usart.c ****   * @retval None
 545:./Drivers/src/stm32f10x_usart.c ****   */
 546:./Drivers/src/stm32f10x_usart.c **** void USART_LINBreakDetectLengthConfig(USART_TypeDef* USARTx, uint16_t USART_LINBreakDetectLength)
 547:./Drivers/src/stm32f10x_usart.c **** {
 838              		.loc 1 547 1 is_stmt 1 view -0
 839              		.cfi_startproc
 840              		@ args = 0, pretend = 0, frame = 0
 841              		@ frame_needed = 0, uses_anonymous_args = 0
 842              		@ link register save eliminated.
 548:./Drivers/src/stm32f10x_usart.c ****   /* Check the parameters */
 549:./Drivers/src/stm32f10x_usart.c ****   assert_param(IS_USART_ALL_PERIPH(USARTx));
 843              		.loc 1 549 3 view .LVU268
 550:./Drivers/src/stm32f10x_usart.c ****   assert_param(IS_USART_LIN_BREAK_DETECT_LENGTH(USART_LINBreakDetectLength));
 844              		.loc 1 550 3 view .LVU269
 551:./Drivers/src/stm32f10x_usart.c ****   
 552:./Drivers/src/stm32f10x_usart.c ****   USARTx->CR2 &= CR2_LBDL_Mask;
 845              		.loc 1 552 3 view .LVU270
 846              		.loc 1 552 9 is_stmt 0 view .LVU271
 847 0000 038A     		ldrh	r3, [r0, #16]
 848 0002 9BB2     		uxth	r3, r3
 849              		.loc 1 552 15 view .LVU272
 850 0004 23F02003 		bic	r3, r3, #32
 851 0008 9BB2     		uxth	r3, r3
 852 000a 0382     		strh	r3, [r0, #16]	@ movhi
 553:./Drivers/src/stm32f10x_usart.c ****   USARTx->CR2 |= USART_LINBreakDetectLength;  
 853              		.loc 1 553 3 is_stmt 1 view .LVU273
 854              		.loc 1 553 9 is_stmt 0 view .LVU274
 855 000c 038A     		ldrh	r3, [r0, #16]
ARM GAS  /tmp/ccXaqWhu.s 			page 26


 856 000e 9BB2     		uxth	r3, r3
 857              		.loc 1 553 15 view .LVU275
 858 0010 0B43     		orrs	r3, r3, r1
 859 0012 0382     		strh	r3, [r0, #16]	@ movhi
 554:./Drivers/src/stm32f10x_usart.c **** }
 860              		.loc 1 554 1 view .LVU276
 861 0014 7047     		bx	lr
 862              		.cfi_endproc
 863              	.LFE40:
 865              		.section	.text.USART_LINCmd,"ax",%progbits
 866              		.align	1
 867              		.global	USART_LINCmd
 868              		.syntax unified
 869              		.thumb
 870              		.thumb_func
 872              	USART_LINCmd:
 873              	.LVL83:
 874              	.LFB41:
 555:./Drivers/src/stm32f10x_usart.c **** 
 556:./Drivers/src/stm32f10x_usart.c **** /**
 557:./Drivers/src/stm32f10x_usart.c ****   * @brief  Enables or disables the USARTs LIN mode.
 558:./Drivers/src/stm32f10x_usart.c ****   * @param  USARTx: Select the USART or the UART peripheral. 
 559:./Drivers/src/stm32f10x_usart.c ****   *   This parameter can be one of the following values:
 560:./Drivers/src/stm32f10x_usart.c ****   *   USART1, USART2, USART3, UART4 or UART5.
 561:./Drivers/src/stm32f10x_usart.c ****   * @param  NewState: new state of the USART LIN mode.
 562:./Drivers/src/stm32f10x_usart.c ****   *   This parameter can be: ENABLE or DISABLE.
 563:./Drivers/src/stm32f10x_usart.c ****   * @retval None
 564:./Drivers/src/stm32f10x_usart.c ****   */
 565:./Drivers/src/stm32f10x_usart.c **** void USART_LINCmd(USART_TypeDef* USARTx, FunctionalState NewState)
 566:./Drivers/src/stm32f10x_usart.c **** {
 875              		.loc 1 566 1 is_stmt 1 view -0
 876              		.cfi_startproc
 877              		@ args = 0, pretend = 0, frame = 0
 878              		@ frame_needed = 0, uses_anonymous_args = 0
 879              		@ link register save eliminated.
 567:./Drivers/src/stm32f10x_usart.c ****   /* Check the parameters */
 568:./Drivers/src/stm32f10x_usart.c ****   assert_param(IS_USART_ALL_PERIPH(USARTx));
 880              		.loc 1 568 3 view .LVU278
 569:./Drivers/src/stm32f10x_usart.c ****   assert_param(IS_FUNCTIONAL_STATE(NewState));
 881              		.loc 1 569 3 view .LVU279
 570:./Drivers/src/stm32f10x_usart.c ****   
 571:./Drivers/src/stm32f10x_usart.c ****   if (NewState != DISABLE)
 882              		.loc 1 571 3 view .LVU280
 883              		.loc 1 571 6 is_stmt 0 view .LVU281
 884 0000 29B1     		cbz	r1, .L53
 572:./Drivers/src/stm32f10x_usart.c ****   {
 573:./Drivers/src/stm32f10x_usart.c ****     /* Enable the LIN mode by setting the LINEN bit in the CR2 register */
 574:./Drivers/src/stm32f10x_usart.c ****     USARTx->CR2 |= CR2_LINEN_Set;
 885              		.loc 1 574 5 is_stmt 1 view .LVU282
 886              		.loc 1 574 11 is_stmt 0 view .LVU283
 887 0002 038A     		ldrh	r3, [r0, #16]
 888 0004 9BB2     		uxth	r3, r3
 889              		.loc 1 574 17 view .LVU284
 890 0006 43F48043 		orr	r3, r3, #16384
 891 000a 0382     		strh	r3, [r0, #16]	@ movhi
 892 000c 7047     		bx	lr
 893              	.L53:
ARM GAS  /tmp/ccXaqWhu.s 			page 27


 575:./Drivers/src/stm32f10x_usart.c ****   }
 576:./Drivers/src/stm32f10x_usart.c ****   else
 577:./Drivers/src/stm32f10x_usart.c ****   {
 578:./Drivers/src/stm32f10x_usart.c ****     /* Disable the LIN mode by clearing the LINEN bit in the CR2 register */
 579:./Drivers/src/stm32f10x_usart.c ****     USARTx->CR2 &= CR2_LINEN_Reset;
 894              		.loc 1 579 5 is_stmt 1 view .LVU285
 895              		.loc 1 579 11 is_stmt 0 view .LVU286
 896 000e 038A     		ldrh	r3, [r0, #16]
 897 0010 9BB2     		uxth	r3, r3
 898              		.loc 1 579 17 view .LVU287
 899 0012 23F48043 		bic	r3, r3, #16384
 900 0016 9BB2     		uxth	r3, r3
 901 0018 0382     		strh	r3, [r0, #16]	@ movhi
 580:./Drivers/src/stm32f10x_usart.c ****   }
 581:./Drivers/src/stm32f10x_usart.c **** }
 902              		.loc 1 581 1 view .LVU288
 903 001a 7047     		bx	lr
 904              		.cfi_endproc
 905              	.LFE41:
 907              		.section	.text.USART_SendData,"ax",%progbits
 908              		.align	1
 909              		.global	USART_SendData
 910              		.syntax unified
 911              		.thumb
 912              		.thumb_func
 914              	USART_SendData:
 915              	.LVL84:
 916              	.LFB42:
 582:./Drivers/src/stm32f10x_usart.c **** 
 583:./Drivers/src/stm32f10x_usart.c **** /**
 584:./Drivers/src/stm32f10x_usart.c ****   * @brief  Transmits single data through the USARTx peripheral.
 585:./Drivers/src/stm32f10x_usart.c ****   * @param  USARTx: Select the USART or the UART peripheral. 
 586:./Drivers/src/stm32f10x_usart.c ****   *   This parameter can be one of the following values:
 587:./Drivers/src/stm32f10x_usart.c ****   *   USART1, USART2, USART3, UART4 or UART5.
 588:./Drivers/src/stm32f10x_usart.c ****   * @param  Data: the data to transmit.
 589:./Drivers/src/stm32f10x_usart.c ****   * @retval None
 590:./Drivers/src/stm32f10x_usart.c ****   */
 591:./Drivers/src/stm32f10x_usart.c **** void USART_SendData(USART_TypeDef* USARTx, uint16_t Data)
 592:./Drivers/src/stm32f10x_usart.c **** {
 917              		.loc 1 592 1 is_stmt 1 view -0
 918              		.cfi_startproc
 919              		@ args = 0, pretend = 0, frame = 0
 920              		@ frame_needed = 0, uses_anonymous_args = 0
 921              		@ link register save eliminated.
 593:./Drivers/src/stm32f10x_usart.c ****   /* Check the parameters */
 594:./Drivers/src/stm32f10x_usart.c ****   assert_param(IS_USART_ALL_PERIPH(USARTx));
 922              		.loc 1 594 3 view .LVU290
 595:./Drivers/src/stm32f10x_usart.c ****   assert_param(IS_USART_DATA(Data)); 
 923              		.loc 1 595 3 view .LVU291
 596:./Drivers/src/stm32f10x_usart.c ****     
 597:./Drivers/src/stm32f10x_usart.c ****   /* Transmit Data */
 598:./Drivers/src/stm32f10x_usart.c ****   USARTx->DR = (Data & (uint16_t)0x01FF);
 924              		.loc 1 598 3 view .LVU292
 925              		.loc 1 598 22 is_stmt 0 view .LVU293
 926 0000 C1F30801 		ubfx	r1, r1, #0, #9
 927              	.LVL85:
 928              		.loc 1 598 14 view .LVU294
ARM GAS  /tmp/ccXaqWhu.s 			page 28


 929 0004 8180     		strh	r1, [r0, #4]	@ movhi
 599:./Drivers/src/stm32f10x_usart.c **** }
 930              		.loc 1 599 1 view .LVU295
 931 0006 7047     		bx	lr
 932              		.cfi_endproc
 933              	.LFE42:
 935              		.section	.text.USART_ReceiveData,"ax",%progbits
 936              		.align	1
 937              		.global	USART_ReceiveData
 938              		.syntax unified
 939              		.thumb
 940              		.thumb_func
 942              	USART_ReceiveData:
 943              	.LVL86:
 944              	.LFB43:
 600:./Drivers/src/stm32f10x_usart.c **** 
 601:./Drivers/src/stm32f10x_usart.c **** /**
 602:./Drivers/src/stm32f10x_usart.c ****   * @brief  Returns the most recent received data by the USARTx peripheral.
 603:./Drivers/src/stm32f10x_usart.c ****   * @param  USARTx: Select the USART or the UART peripheral. 
 604:./Drivers/src/stm32f10x_usart.c ****   *   This parameter can be one of the following values:
 605:./Drivers/src/stm32f10x_usart.c ****   *   USART1, USART2, USART3, UART4 or UART5.
 606:./Drivers/src/stm32f10x_usart.c ****   * @retval The received data.
 607:./Drivers/src/stm32f10x_usart.c ****   */
 608:./Drivers/src/stm32f10x_usart.c **** uint16_t USART_ReceiveData(USART_TypeDef* USARTx)
 609:./Drivers/src/stm32f10x_usart.c **** {
 945              		.loc 1 609 1 is_stmt 1 view -0
 946              		.cfi_startproc
 947              		@ args = 0, pretend = 0, frame = 0
 948              		@ frame_needed = 0, uses_anonymous_args = 0
 949              		@ link register save eliminated.
 610:./Drivers/src/stm32f10x_usart.c ****   /* Check the parameters */
 611:./Drivers/src/stm32f10x_usart.c ****   assert_param(IS_USART_ALL_PERIPH(USARTx));
 950              		.loc 1 611 3 view .LVU297
 612:./Drivers/src/stm32f10x_usart.c ****   
 613:./Drivers/src/stm32f10x_usart.c ****   /* Receive Data */
 614:./Drivers/src/stm32f10x_usart.c ****   return (uint16_t)(USARTx->DR & (uint16_t)0x01FF);
 951              		.loc 1 614 3 view .LVU298
 952              		.loc 1 614 27 is_stmt 0 view .LVU299
 953 0000 8088     		ldrh	r0, [r0, #4]
 954              	.LVL87:
 615:./Drivers/src/stm32f10x_usart.c **** }
 955              		.loc 1 615 1 view .LVU300
 956 0002 C0F30800 		ubfx	r0, r0, #0, #9
 957 0006 7047     		bx	lr
 958              		.cfi_endproc
 959              	.LFE43:
 961              		.section	.text.USART_SendBreak,"ax",%progbits
 962              		.align	1
 963              		.global	USART_SendBreak
 964              		.syntax unified
 965              		.thumb
 966              		.thumb_func
 968              	USART_SendBreak:
 969              	.LVL88:
 970              	.LFB44:
 616:./Drivers/src/stm32f10x_usart.c **** 
 617:./Drivers/src/stm32f10x_usart.c **** /**
ARM GAS  /tmp/ccXaqWhu.s 			page 29


 618:./Drivers/src/stm32f10x_usart.c ****   * @brief  Transmits break characters.
 619:./Drivers/src/stm32f10x_usart.c ****   * @param  USARTx: Select the USART or the UART peripheral. 
 620:./Drivers/src/stm32f10x_usart.c ****   *   This parameter can be one of the following values:
 621:./Drivers/src/stm32f10x_usart.c ****   *   USART1, USART2, USART3, UART4 or UART5.
 622:./Drivers/src/stm32f10x_usart.c ****   * @retval None
 623:./Drivers/src/stm32f10x_usart.c ****   */
 624:./Drivers/src/stm32f10x_usart.c **** void USART_SendBreak(USART_TypeDef* USARTx)
 625:./Drivers/src/stm32f10x_usart.c **** {
 971              		.loc 1 625 1 is_stmt 1 view -0
 972              		.cfi_startproc
 973              		@ args = 0, pretend = 0, frame = 0
 974              		@ frame_needed = 0, uses_anonymous_args = 0
 975              		@ link register save eliminated.
 626:./Drivers/src/stm32f10x_usart.c ****   /* Check the parameters */
 627:./Drivers/src/stm32f10x_usart.c ****   assert_param(IS_USART_ALL_PERIPH(USARTx));
 976              		.loc 1 627 3 view .LVU302
 628:./Drivers/src/stm32f10x_usart.c ****   
 629:./Drivers/src/stm32f10x_usart.c ****   /* Send break characters */
 630:./Drivers/src/stm32f10x_usart.c ****   USARTx->CR1 |= CR1_SBK_Set;
 977              		.loc 1 630 3 view .LVU303
 978              		.loc 1 630 9 is_stmt 0 view .LVU304
 979 0000 8389     		ldrh	r3, [r0, #12]
 980 0002 9BB2     		uxth	r3, r3
 981              		.loc 1 630 15 view .LVU305
 982 0004 43F00103 		orr	r3, r3, #1
 983 0008 8381     		strh	r3, [r0, #12]	@ movhi
 631:./Drivers/src/stm32f10x_usart.c **** }
 984              		.loc 1 631 1 view .LVU306
 985 000a 7047     		bx	lr
 986              		.cfi_endproc
 987              	.LFE44:
 989              		.section	.text.USART_SetGuardTime,"ax",%progbits
 990              		.align	1
 991              		.global	USART_SetGuardTime
 992              		.syntax unified
 993              		.thumb
 994              		.thumb_func
 996              	USART_SetGuardTime:
 997              	.LVL89:
 998              	.LFB45:
 632:./Drivers/src/stm32f10x_usart.c **** 
 633:./Drivers/src/stm32f10x_usart.c **** /**
 634:./Drivers/src/stm32f10x_usart.c ****   * @brief  Sets the specified USART guard time.
 635:./Drivers/src/stm32f10x_usart.c ****   * @param  USARTx: where x can be 1, 2 or 3 to select the USART peripheral.
 636:./Drivers/src/stm32f10x_usart.c ****   * @param  USART_GuardTime: specifies the guard time.
 637:./Drivers/src/stm32f10x_usart.c ****   * @note The guard time bits are not available for UART4 and UART5.   
 638:./Drivers/src/stm32f10x_usart.c ****   * @retval None
 639:./Drivers/src/stm32f10x_usart.c ****   */
 640:./Drivers/src/stm32f10x_usart.c **** void USART_SetGuardTime(USART_TypeDef* USARTx, uint8_t USART_GuardTime)
 641:./Drivers/src/stm32f10x_usart.c **** {    
 999              		.loc 1 641 1 is_stmt 1 view -0
 1000              		.cfi_startproc
 1001              		@ args = 0, pretend = 0, frame = 0
 1002              		@ frame_needed = 0, uses_anonymous_args = 0
 1003              		@ link register save eliminated.
 642:./Drivers/src/stm32f10x_usart.c ****   /* Check the parameters */
 643:./Drivers/src/stm32f10x_usart.c ****   assert_param(IS_USART_123_PERIPH(USARTx));
ARM GAS  /tmp/ccXaqWhu.s 			page 30


 1004              		.loc 1 643 3 view .LVU308
 644:./Drivers/src/stm32f10x_usart.c ****   
 645:./Drivers/src/stm32f10x_usart.c ****   /* Clear the USART Guard time */
 646:./Drivers/src/stm32f10x_usart.c ****   USARTx->GTPR &= GTPR_LSB_Mask;
 1005              		.loc 1 646 3 view .LVU309
 1006              		.loc 1 646 9 is_stmt 0 view .LVU310
 1007 0000 038B     		ldrh	r3, [r0, #24]
 1008              		.loc 1 646 16 view .LVU311
 1009 0002 DBB2     		uxtb	r3, r3
 1010 0004 0383     		strh	r3, [r0, #24]	@ movhi
 647:./Drivers/src/stm32f10x_usart.c ****   /* Set the USART guard time */
 648:./Drivers/src/stm32f10x_usart.c ****   USARTx->GTPR |= (uint16_t)((uint16_t)USART_GuardTime << 0x08);
 1011              		.loc 1 648 3 is_stmt 1 view .LVU312
 1012              		.loc 1 648 9 is_stmt 0 view .LVU313
 1013 0006 038B     		ldrh	r3, [r0, #24]
 1014 0008 9BB2     		uxth	r3, r3
 1015              		.loc 1 648 16 view .LVU314
 1016 000a 43EA0123 		orr	r3, r3, r1, lsl #8
 1017 000e 0383     		strh	r3, [r0, #24]	@ movhi
 649:./Drivers/src/stm32f10x_usart.c **** }
 1018              		.loc 1 649 1 view .LVU315
 1019 0010 7047     		bx	lr
 1020              		.cfi_endproc
 1021              	.LFE45:
 1023              		.section	.text.USART_SetPrescaler,"ax",%progbits
 1024              		.align	1
 1025              		.global	USART_SetPrescaler
 1026              		.syntax unified
 1027              		.thumb
 1028              		.thumb_func
 1030              	USART_SetPrescaler:
 1031              	.LVL90:
 1032              	.LFB46:
 650:./Drivers/src/stm32f10x_usart.c **** 
 651:./Drivers/src/stm32f10x_usart.c **** /**
 652:./Drivers/src/stm32f10x_usart.c ****   * @brief  Sets the system clock prescaler.
 653:./Drivers/src/stm32f10x_usart.c ****   * @param  USARTx: Select the USART or the UART peripheral. 
 654:./Drivers/src/stm32f10x_usart.c ****   *   This parameter can be one of the following values:
 655:./Drivers/src/stm32f10x_usart.c ****   *   USART1, USART2, USART3, UART4 or UART5.
 656:./Drivers/src/stm32f10x_usart.c ****   * @param  USART_Prescaler: specifies the prescaler clock.  
 657:./Drivers/src/stm32f10x_usart.c ****   * @note   The function is used for IrDA mode with UART4 and UART5.
 658:./Drivers/src/stm32f10x_usart.c ****   * @retval None
 659:./Drivers/src/stm32f10x_usart.c ****   */
 660:./Drivers/src/stm32f10x_usart.c **** void USART_SetPrescaler(USART_TypeDef* USARTx, uint8_t USART_Prescaler)
 661:./Drivers/src/stm32f10x_usart.c **** { 
 1033              		.loc 1 661 1 is_stmt 1 view -0
 1034              		.cfi_startproc
 1035              		@ args = 0, pretend = 0, frame = 0
 1036              		@ frame_needed = 0, uses_anonymous_args = 0
 1037              		@ link register save eliminated.
 662:./Drivers/src/stm32f10x_usart.c ****   /* Check the parameters */
 663:./Drivers/src/stm32f10x_usart.c ****   assert_param(IS_USART_ALL_PERIPH(USARTx));
 1038              		.loc 1 663 3 view .LVU317
 664:./Drivers/src/stm32f10x_usart.c ****   
 665:./Drivers/src/stm32f10x_usart.c ****   /* Clear the USART prescaler */
 666:./Drivers/src/stm32f10x_usart.c ****   USARTx->GTPR &= GTPR_MSB_Mask;
 1039              		.loc 1 666 3 view .LVU318
ARM GAS  /tmp/ccXaqWhu.s 			page 31


 1040              		.loc 1 666 9 is_stmt 0 view .LVU319
 1041 0000 038B     		ldrh	r3, [r0, #24]
 1042              		.loc 1 666 16 view .LVU320
 1043 0002 03F47F43 		and	r3, r3, #65280
 1044 0006 0383     		strh	r3, [r0, #24]	@ movhi
 667:./Drivers/src/stm32f10x_usart.c ****   /* Set the USART prescaler */
 668:./Drivers/src/stm32f10x_usart.c ****   USARTx->GTPR |= USART_Prescaler;
 1045              		.loc 1 668 3 is_stmt 1 view .LVU321
 1046              		.loc 1 668 9 is_stmt 0 view .LVU322
 1047 0008 038B     		ldrh	r3, [r0, #24]
 1048 000a 9BB2     		uxth	r3, r3
 1049              		.loc 1 668 16 view .LVU323
 1050 000c 1943     		orrs	r1, r1, r3
 1051              	.LVL91:
 1052              		.loc 1 668 16 view .LVU324
 1053 000e 0183     		strh	r1, [r0, #24]	@ movhi
 669:./Drivers/src/stm32f10x_usart.c **** }
 1054              		.loc 1 669 1 view .LVU325
 1055 0010 7047     		bx	lr
 1056              		.cfi_endproc
 1057              	.LFE46:
 1059              		.section	.text.USART_SmartCardCmd,"ax",%progbits
 1060              		.align	1
 1061              		.global	USART_SmartCardCmd
 1062              		.syntax unified
 1063              		.thumb
 1064              		.thumb_func
 1066              	USART_SmartCardCmd:
 1067              	.LVL92:
 1068              	.LFB47:
 670:./Drivers/src/stm32f10x_usart.c **** 
 671:./Drivers/src/stm32f10x_usart.c **** /**
 672:./Drivers/src/stm32f10x_usart.c ****   * @brief  Enables or disables the USARTs Smart Card mode.
 673:./Drivers/src/stm32f10x_usart.c ****   * @param  USARTx: where x can be 1, 2 or 3 to select the USART peripheral.
 674:./Drivers/src/stm32f10x_usart.c ****   * @param  NewState: new state of the Smart Card mode.
 675:./Drivers/src/stm32f10x_usart.c ****   *   This parameter can be: ENABLE or DISABLE.     
 676:./Drivers/src/stm32f10x_usart.c ****   * @note The Smart Card mode is not available for UART4 and UART5. 
 677:./Drivers/src/stm32f10x_usart.c ****   * @retval None
 678:./Drivers/src/stm32f10x_usart.c ****   */
 679:./Drivers/src/stm32f10x_usart.c **** void USART_SmartCardCmd(USART_TypeDef* USARTx, FunctionalState NewState)
 680:./Drivers/src/stm32f10x_usart.c **** {
 1069              		.loc 1 680 1 is_stmt 1 view -0
 1070              		.cfi_startproc
 1071              		@ args = 0, pretend = 0, frame = 0
 1072              		@ frame_needed = 0, uses_anonymous_args = 0
 1073              		@ link register save eliminated.
 681:./Drivers/src/stm32f10x_usart.c ****   /* Check the parameters */
 682:./Drivers/src/stm32f10x_usart.c ****   assert_param(IS_USART_123_PERIPH(USARTx));
 1074              		.loc 1 682 3 view .LVU327
 683:./Drivers/src/stm32f10x_usart.c ****   assert_param(IS_FUNCTIONAL_STATE(NewState));
 1075              		.loc 1 683 3 view .LVU328
 684:./Drivers/src/stm32f10x_usart.c ****   if (NewState != DISABLE)
 1076              		.loc 1 684 3 view .LVU329
 1077              		.loc 1 684 6 is_stmt 0 view .LVU330
 1078 0000 29B1     		cbz	r1, .L61
 685:./Drivers/src/stm32f10x_usart.c ****   {
 686:./Drivers/src/stm32f10x_usart.c ****     /* Enable the SC mode by setting the SCEN bit in the CR3 register */
ARM GAS  /tmp/ccXaqWhu.s 			page 32


 687:./Drivers/src/stm32f10x_usart.c ****     USARTx->CR3 |= CR3_SCEN_Set;
 1079              		.loc 1 687 5 is_stmt 1 view .LVU331
 1080              		.loc 1 687 11 is_stmt 0 view .LVU332
 1081 0002 838A     		ldrh	r3, [r0, #20]
 1082 0004 9BB2     		uxth	r3, r3
 1083              		.loc 1 687 17 view .LVU333
 1084 0006 43F02003 		orr	r3, r3, #32
 1085 000a 8382     		strh	r3, [r0, #20]	@ movhi
 1086 000c 7047     		bx	lr
 1087              	.L61:
 688:./Drivers/src/stm32f10x_usart.c ****   }
 689:./Drivers/src/stm32f10x_usart.c ****   else
 690:./Drivers/src/stm32f10x_usart.c ****   {
 691:./Drivers/src/stm32f10x_usart.c ****     /* Disable the SC mode by clearing the SCEN bit in the CR3 register */
 692:./Drivers/src/stm32f10x_usart.c ****     USARTx->CR3 &= CR3_SCEN_Reset;
 1088              		.loc 1 692 5 is_stmt 1 view .LVU334
 1089              		.loc 1 692 11 is_stmt 0 view .LVU335
 1090 000e 838A     		ldrh	r3, [r0, #20]
 1091 0010 9BB2     		uxth	r3, r3
 1092              		.loc 1 692 17 view .LVU336
 1093 0012 23F02003 		bic	r3, r3, #32
 1094 0016 9BB2     		uxth	r3, r3
 1095 0018 8382     		strh	r3, [r0, #20]	@ movhi
 693:./Drivers/src/stm32f10x_usart.c ****   }
 694:./Drivers/src/stm32f10x_usart.c **** }
 1096              		.loc 1 694 1 view .LVU337
 1097 001a 7047     		bx	lr
 1098              		.cfi_endproc
 1099              	.LFE47:
 1101              		.section	.text.USART_SmartCardNACKCmd,"ax",%progbits
 1102              		.align	1
 1103              		.global	USART_SmartCardNACKCmd
 1104              		.syntax unified
 1105              		.thumb
 1106              		.thumb_func
 1108              	USART_SmartCardNACKCmd:
 1109              	.LVL93:
 1110              	.LFB48:
 695:./Drivers/src/stm32f10x_usart.c **** 
 696:./Drivers/src/stm32f10x_usart.c **** /**
 697:./Drivers/src/stm32f10x_usart.c ****   * @brief  Enables or disables NACK transmission.
 698:./Drivers/src/stm32f10x_usart.c ****   * @param  USARTx: where x can be 1, 2 or 3 to select the USART peripheral. 
 699:./Drivers/src/stm32f10x_usart.c ****   * @param  NewState: new state of the NACK transmission.
 700:./Drivers/src/stm32f10x_usart.c ****   *   This parameter can be: ENABLE or DISABLE.  
 701:./Drivers/src/stm32f10x_usart.c ****   * @note The Smart Card mode is not available for UART4 and UART5.
 702:./Drivers/src/stm32f10x_usart.c ****   * @retval None
 703:./Drivers/src/stm32f10x_usart.c ****   */
 704:./Drivers/src/stm32f10x_usart.c **** void USART_SmartCardNACKCmd(USART_TypeDef* USARTx, FunctionalState NewState)
 705:./Drivers/src/stm32f10x_usart.c **** {
 1111              		.loc 1 705 1 is_stmt 1 view -0
 1112              		.cfi_startproc
 1113              		@ args = 0, pretend = 0, frame = 0
 1114              		@ frame_needed = 0, uses_anonymous_args = 0
 1115              		@ link register save eliminated.
 706:./Drivers/src/stm32f10x_usart.c ****   /* Check the parameters */
 707:./Drivers/src/stm32f10x_usart.c ****   assert_param(IS_USART_123_PERIPH(USARTx));  
 1116              		.loc 1 707 3 view .LVU339
ARM GAS  /tmp/ccXaqWhu.s 			page 33


 708:./Drivers/src/stm32f10x_usart.c ****   assert_param(IS_FUNCTIONAL_STATE(NewState));
 1117              		.loc 1 708 3 view .LVU340
 709:./Drivers/src/stm32f10x_usart.c ****   if (NewState != DISABLE)
 1118              		.loc 1 709 3 view .LVU341
 1119              		.loc 1 709 6 is_stmt 0 view .LVU342
 1120 0000 29B1     		cbz	r1, .L64
 710:./Drivers/src/stm32f10x_usart.c ****   {
 711:./Drivers/src/stm32f10x_usart.c ****     /* Enable the NACK transmission by setting the NACK bit in the CR3 register */
 712:./Drivers/src/stm32f10x_usart.c ****     USARTx->CR3 |= CR3_NACK_Set;
 1121              		.loc 1 712 5 is_stmt 1 view .LVU343
 1122              		.loc 1 712 11 is_stmt 0 view .LVU344
 1123 0002 838A     		ldrh	r3, [r0, #20]
 1124 0004 9BB2     		uxth	r3, r3
 1125              		.loc 1 712 17 view .LVU345
 1126 0006 43F01003 		orr	r3, r3, #16
 1127 000a 8382     		strh	r3, [r0, #20]	@ movhi
 1128 000c 7047     		bx	lr
 1129              	.L64:
 713:./Drivers/src/stm32f10x_usart.c ****   }
 714:./Drivers/src/stm32f10x_usart.c ****   else
 715:./Drivers/src/stm32f10x_usart.c ****   {
 716:./Drivers/src/stm32f10x_usart.c ****     /* Disable the NACK transmission by clearing the NACK bit in the CR3 register */
 717:./Drivers/src/stm32f10x_usart.c ****     USARTx->CR3 &= CR3_NACK_Reset;
 1130              		.loc 1 717 5 is_stmt 1 view .LVU346
 1131              		.loc 1 717 11 is_stmt 0 view .LVU347
 1132 000e 838A     		ldrh	r3, [r0, #20]
 1133 0010 9BB2     		uxth	r3, r3
 1134              		.loc 1 717 17 view .LVU348
 1135 0012 23F01003 		bic	r3, r3, #16
 1136 0016 9BB2     		uxth	r3, r3
 1137 0018 8382     		strh	r3, [r0, #20]	@ movhi
 718:./Drivers/src/stm32f10x_usart.c ****   }
 719:./Drivers/src/stm32f10x_usart.c **** }
 1138              		.loc 1 719 1 view .LVU349
 1139 001a 7047     		bx	lr
 1140              		.cfi_endproc
 1141              	.LFE48:
 1143              		.section	.text.USART_HalfDuplexCmd,"ax",%progbits
 1144              		.align	1
 1145              		.global	USART_HalfDuplexCmd
 1146              		.syntax unified
 1147              		.thumb
 1148              		.thumb_func
 1150              	USART_HalfDuplexCmd:
 1151              	.LVL94:
 1152              	.LFB49:
 720:./Drivers/src/stm32f10x_usart.c **** 
 721:./Drivers/src/stm32f10x_usart.c **** /**
 722:./Drivers/src/stm32f10x_usart.c ****   * @brief  Enables or disables the USARTs Half Duplex communication.
 723:./Drivers/src/stm32f10x_usart.c ****   * @param  USARTx: Select the USART or the UART peripheral. 
 724:./Drivers/src/stm32f10x_usart.c ****   *   This parameter can be one of the following values:
 725:./Drivers/src/stm32f10x_usart.c ****   *   USART1, USART2, USART3, UART4 or UART5.
 726:./Drivers/src/stm32f10x_usart.c ****   * @param  NewState: new state of the USART Communication.
 727:./Drivers/src/stm32f10x_usart.c ****   *   This parameter can be: ENABLE or DISABLE.
 728:./Drivers/src/stm32f10x_usart.c ****   * @retval None
 729:./Drivers/src/stm32f10x_usart.c ****   */
 730:./Drivers/src/stm32f10x_usart.c **** void USART_HalfDuplexCmd(USART_TypeDef* USARTx, FunctionalState NewState)
ARM GAS  /tmp/ccXaqWhu.s 			page 34


 731:./Drivers/src/stm32f10x_usart.c **** {
 1153              		.loc 1 731 1 is_stmt 1 view -0
 1154              		.cfi_startproc
 1155              		@ args = 0, pretend = 0, frame = 0
 1156              		@ frame_needed = 0, uses_anonymous_args = 0
 1157              		@ link register save eliminated.
 732:./Drivers/src/stm32f10x_usart.c ****   /* Check the parameters */
 733:./Drivers/src/stm32f10x_usart.c ****   assert_param(IS_USART_ALL_PERIPH(USARTx));
 1158              		.loc 1 733 3 view .LVU351
 734:./Drivers/src/stm32f10x_usart.c ****   assert_param(IS_FUNCTIONAL_STATE(NewState));
 1159              		.loc 1 734 3 view .LVU352
 735:./Drivers/src/stm32f10x_usart.c ****   
 736:./Drivers/src/stm32f10x_usart.c ****   if (NewState != DISABLE)
 1160              		.loc 1 736 3 view .LVU353
 1161              		.loc 1 736 6 is_stmt 0 view .LVU354
 1162 0000 29B1     		cbz	r1, .L67
 737:./Drivers/src/stm32f10x_usart.c ****   {
 738:./Drivers/src/stm32f10x_usart.c ****     /* Enable the Half-Duplex mode by setting the HDSEL bit in the CR3 register */
 739:./Drivers/src/stm32f10x_usart.c ****     USARTx->CR3 |= CR3_HDSEL_Set;
 1163              		.loc 1 739 5 is_stmt 1 view .LVU355
 1164              		.loc 1 739 11 is_stmt 0 view .LVU356
 1165 0002 838A     		ldrh	r3, [r0, #20]
 1166 0004 9BB2     		uxth	r3, r3
 1167              		.loc 1 739 17 view .LVU357
 1168 0006 43F00803 		orr	r3, r3, #8
 1169 000a 8382     		strh	r3, [r0, #20]	@ movhi
 1170 000c 7047     		bx	lr
 1171              	.L67:
 740:./Drivers/src/stm32f10x_usart.c ****   }
 741:./Drivers/src/stm32f10x_usart.c ****   else
 742:./Drivers/src/stm32f10x_usart.c ****   {
 743:./Drivers/src/stm32f10x_usart.c ****     /* Disable the Half-Duplex mode by clearing the HDSEL bit in the CR3 register */
 744:./Drivers/src/stm32f10x_usart.c ****     USARTx->CR3 &= CR3_HDSEL_Reset;
 1172              		.loc 1 744 5 is_stmt 1 view .LVU358
 1173              		.loc 1 744 11 is_stmt 0 view .LVU359
 1174 000e 838A     		ldrh	r3, [r0, #20]
 1175 0010 9BB2     		uxth	r3, r3
 1176              		.loc 1 744 17 view .LVU360
 1177 0012 23F00803 		bic	r3, r3, #8
 1178 0016 9BB2     		uxth	r3, r3
 1179 0018 8382     		strh	r3, [r0, #20]	@ movhi
 745:./Drivers/src/stm32f10x_usart.c ****   }
 746:./Drivers/src/stm32f10x_usart.c **** }
 1180              		.loc 1 746 1 view .LVU361
 1181 001a 7047     		bx	lr
 1182              		.cfi_endproc
 1183              	.LFE49:
 1185              		.section	.text.USART_OverSampling8Cmd,"ax",%progbits
 1186              		.align	1
 1187              		.global	USART_OverSampling8Cmd
 1188              		.syntax unified
 1189              		.thumb
 1190              		.thumb_func
 1192              	USART_OverSampling8Cmd:
 1193              	.LVL95:
 1194              	.LFB50:
 747:./Drivers/src/stm32f10x_usart.c **** 
ARM GAS  /tmp/ccXaqWhu.s 			page 35


 748:./Drivers/src/stm32f10x_usart.c **** 
 749:./Drivers/src/stm32f10x_usart.c **** /**
 750:./Drivers/src/stm32f10x_usart.c ****   * @brief  Enables or disables the USART's 8x oversampling mode.
 751:./Drivers/src/stm32f10x_usart.c ****   * @param  USARTx: Select the USART or the UART peripheral.
 752:./Drivers/src/stm32f10x_usart.c ****   *   This parameter can be one of the following values:
 753:./Drivers/src/stm32f10x_usart.c ****   *   USART1, USART2, USART3, UART4 or UART5.
 754:./Drivers/src/stm32f10x_usart.c ****   * @param  NewState: new state of the USART one bit sampling method.
 755:./Drivers/src/stm32f10x_usart.c ****   *   This parameter can be: ENABLE or DISABLE.
 756:./Drivers/src/stm32f10x_usart.c ****   * @note
 757:./Drivers/src/stm32f10x_usart.c ****   *     This function has to be called before calling USART_Init()
 758:./Drivers/src/stm32f10x_usart.c ****   *     function in order to have correct baudrate Divider value.   
 759:./Drivers/src/stm32f10x_usart.c ****   * @retval None
 760:./Drivers/src/stm32f10x_usart.c ****   */
 761:./Drivers/src/stm32f10x_usart.c **** void USART_OverSampling8Cmd(USART_TypeDef* USARTx, FunctionalState NewState)
 762:./Drivers/src/stm32f10x_usart.c **** {
 1195              		.loc 1 762 1 is_stmt 1 view -0
 1196              		.cfi_startproc
 1197              		@ args = 0, pretend = 0, frame = 0
 1198              		@ frame_needed = 0, uses_anonymous_args = 0
 1199              		@ link register save eliminated.
 763:./Drivers/src/stm32f10x_usart.c ****   /* Check the parameters */
 764:./Drivers/src/stm32f10x_usart.c ****   assert_param(IS_USART_ALL_PERIPH(USARTx));
 1200              		.loc 1 764 3 view .LVU363
 765:./Drivers/src/stm32f10x_usart.c ****   assert_param(IS_FUNCTIONAL_STATE(NewState));
 1201              		.loc 1 765 3 view .LVU364
 766:./Drivers/src/stm32f10x_usart.c ****   
 767:./Drivers/src/stm32f10x_usart.c ****   if (NewState != DISABLE)
 1202              		.loc 1 767 3 view .LVU365
 1203              		.loc 1 767 6 is_stmt 0 view .LVU366
 1204 0000 39B1     		cbz	r1, .L70
 768:./Drivers/src/stm32f10x_usart.c ****   {
 769:./Drivers/src/stm32f10x_usart.c ****     /* Enable the 8x Oversampling mode by setting the OVER8 bit in the CR1 register */
 770:./Drivers/src/stm32f10x_usart.c ****     USARTx->CR1 |= CR1_OVER8_Set;
 1205              		.loc 1 770 5 is_stmt 1 view .LVU367
 1206              		.loc 1 770 11 is_stmt 0 view .LVU368
 1207 0002 8389     		ldrh	r3, [r0, #12]
 1208              		.loc 1 770 17 view .LVU369
 1209 0004 6FEA4343 		mvn	r3, r3, lsl #17
 1210 0008 6FEA5343 		mvn	r3, r3, lsr #17
 1211 000c 9BB2     		uxth	r3, r3
 1212 000e 8381     		strh	r3, [r0, #12]	@ movhi
 1213 0010 7047     		bx	lr
 1214              	.L70:
 771:./Drivers/src/stm32f10x_usart.c ****   }
 772:./Drivers/src/stm32f10x_usart.c ****   else
 773:./Drivers/src/stm32f10x_usart.c ****   {
 774:./Drivers/src/stm32f10x_usart.c ****     /* Disable the 8x Oversampling mode by clearing the OVER8 bit in the CR1 register */
 775:./Drivers/src/stm32f10x_usart.c ****     USARTx->CR1 &= CR1_OVER8_Reset;
 1215              		.loc 1 775 5 is_stmt 1 view .LVU370
 1216              		.loc 1 775 11 is_stmt 0 view .LVU371
 1217 0012 8389     		ldrh	r3, [r0, #12]
 1218              		.loc 1 775 17 view .LVU372
 1219 0014 C3F30E03 		ubfx	r3, r3, #0, #15
 1220 0018 8381     		strh	r3, [r0, #12]	@ movhi
 776:./Drivers/src/stm32f10x_usart.c ****   }
 777:./Drivers/src/stm32f10x_usart.c **** }
 1221              		.loc 1 777 1 view .LVU373
ARM GAS  /tmp/ccXaqWhu.s 			page 36


 1222 001a 7047     		bx	lr
 1223              		.cfi_endproc
 1224              	.LFE50:
 1226              		.section	.text.USART_OneBitMethodCmd,"ax",%progbits
 1227              		.align	1
 1228              		.global	USART_OneBitMethodCmd
 1229              		.syntax unified
 1230              		.thumb
 1231              		.thumb_func
 1233              	USART_OneBitMethodCmd:
 1234              	.LVL96:
 1235              	.LFB51:
 778:./Drivers/src/stm32f10x_usart.c **** 
 779:./Drivers/src/stm32f10x_usart.c **** /**
 780:./Drivers/src/stm32f10x_usart.c ****   * @brief  Enables or disables the USART's one bit sampling method.
 781:./Drivers/src/stm32f10x_usart.c ****   * @param  USARTx: Select the USART or the UART peripheral.
 782:./Drivers/src/stm32f10x_usart.c ****   *   This parameter can be one of the following values:
 783:./Drivers/src/stm32f10x_usart.c ****   *   USART1, USART2, USART3, UART4 or UART5.
 784:./Drivers/src/stm32f10x_usart.c ****   * @param  NewState: new state of the USART one bit sampling method.
 785:./Drivers/src/stm32f10x_usart.c ****   *   This parameter can be: ENABLE or DISABLE.
 786:./Drivers/src/stm32f10x_usart.c ****   * @retval None
 787:./Drivers/src/stm32f10x_usart.c ****   */
 788:./Drivers/src/stm32f10x_usart.c **** void USART_OneBitMethodCmd(USART_TypeDef* USARTx, FunctionalState NewState)
 789:./Drivers/src/stm32f10x_usart.c **** {
 1236              		.loc 1 789 1 is_stmt 1 view -0
 1237              		.cfi_startproc
 1238              		@ args = 0, pretend = 0, frame = 0
 1239              		@ frame_needed = 0, uses_anonymous_args = 0
 1240              		@ link register save eliminated.
 790:./Drivers/src/stm32f10x_usart.c ****   /* Check the parameters */
 791:./Drivers/src/stm32f10x_usart.c ****   assert_param(IS_USART_ALL_PERIPH(USARTx));
 1241              		.loc 1 791 3 view .LVU375
 792:./Drivers/src/stm32f10x_usart.c ****   assert_param(IS_FUNCTIONAL_STATE(NewState));
 1242              		.loc 1 792 3 view .LVU376
 793:./Drivers/src/stm32f10x_usart.c ****   
 794:./Drivers/src/stm32f10x_usart.c ****   if (NewState != DISABLE)
 1243              		.loc 1 794 3 view .LVU377
 1244              		.loc 1 794 6 is_stmt 0 view .LVU378
 1245 0000 29B1     		cbz	r1, .L73
 795:./Drivers/src/stm32f10x_usart.c ****   {
 796:./Drivers/src/stm32f10x_usart.c ****     /* Enable the one bit method by setting the ONEBITE bit in the CR3 register */
 797:./Drivers/src/stm32f10x_usart.c ****     USARTx->CR3 |= CR3_ONEBITE_Set;
 1246              		.loc 1 797 5 is_stmt 1 view .LVU379
 1247              		.loc 1 797 11 is_stmt 0 view .LVU380
 1248 0002 838A     		ldrh	r3, [r0, #20]
 1249 0004 9BB2     		uxth	r3, r3
 1250              		.loc 1 797 17 view .LVU381
 1251 0006 43F40063 		orr	r3, r3, #2048
 1252 000a 8382     		strh	r3, [r0, #20]	@ movhi
 1253 000c 7047     		bx	lr
 1254              	.L73:
 798:./Drivers/src/stm32f10x_usart.c ****   }
 799:./Drivers/src/stm32f10x_usart.c ****   else
 800:./Drivers/src/stm32f10x_usart.c ****   {
 801:./Drivers/src/stm32f10x_usart.c ****     /* Disable tthe one bit method by clearing the ONEBITE bit in the CR3 register */
 802:./Drivers/src/stm32f10x_usart.c ****     USARTx->CR3 &= CR3_ONEBITE_Reset;
 1255              		.loc 1 802 5 is_stmt 1 view .LVU382
ARM GAS  /tmp/ccXaqWhu.s 			page 37


 1256              		.loc 1 802 11 is_stmt 0 view .LVU383
 1257 000e 838A     		ldrh	r3, [r0, #20]
 1258 0010 9BB2     		uxth	r3, r3
 1259              		.loc 1 802 17 view .LVU384
 1260 0012 23F40063 		bic	r3, r3, #2048
 1261 0016 9BB2     		uxth	r3, r3
 1262 0018 8382     		strh	r3, [r0, #20]	@ movhi
 803:./Drivers/src/stm32f10x_usart.c ****   }
 804:./Drivers/src/stm32f10x_usart.c **** }
 1263              		.loc 1 804 1 view .LVU385
 1264 001a 7047     		bx	lr
 1265              		.cfi_endproc
 1266              	.LFE51:
 1268              		.section	.text.USART_IrDAConfig,"ax",%progbits
 1269              		.align	1
 1270              		.global	USART_IrDAConfig
 1271              		.syntax unified
 1272              		.thumb
 1273              		.thumb_func
 1275              	USART_IrDAConfig:
 1276              	.LVL97:
 1277              	.LFB52:
 805:./Drivers/src/stm32f10x_usart.c **** 
 806:./Drivers/src/stm32f10x_usart.c **** /**
 807:./Drivers/src/stm32f10x_usart.c ****   * @brief  Configures the USART's IrDA interface.
 808:./Drivers/src/stm32f10x_usart.c ****   * @param  USARTx: Select the USART or the UART peripheral. 
 809:./Drivers/src/stm32f10x_usart.c ****   *   This parameter can be one of the following values:
 810:./Drivers/src/stm32f10x_usart.c ****   *   USART1, USART2, USART3, UART4 or UART5.
 811:./Drivers/src/stm32f10x_usart.c ****   * @param  USART_IrDAMode: specifies the IrDA mode.
 812:./Drivers/src/stm32f10x_usart.c ****   *   This parameter can be one of the following values:
 813:./Drivers/src/stm32f10x_usart.c ****   *     @arg USART_IrDAMode_LowPower
 814:./Drivers/src/stm32f10x_usart.c ****   *     @arg USART_IrDAMode_Normal
 815:./Drivers/src/stm32f10x_usart.c ****   * @retval None
 816:./Drivers/src/stm32f10x_usart.c ****   */
 817:./Drivers/src/stm32f10x_usart.c **** void USART_IrDAConfig(USART_TypeDef* USARTx, uint16_t USART_IrDAMode)
 818:./Drivers/src/stm32f10x_usart.c **** {
 1278              		.loc 1 818 1 is_stmt 1 view -0
 1279              		.cfi_startproc
 1280              		@ args = 0, pretend = 0, frame = 0
 1281              		@ frame_needed = 0, uses_anonymous_args = 0
 1282              		@ link register save eliminated.
 819:./Drivers/src/stm32f10x_usart.c ****   /* Check the parameters */
 820:./Drivers/src/stm32f10x_usart.c ****   assert_param(IS_USART_ALL_PERIPH(USARTx));
 1283              		.loc 1 820 3 view .LVU387
 821:./Drivers/src/stm32f10x_usart.c ****   assert_param(IS_USART_IRDA_MODE(USART_IrDAMode));
 1284              		.loc 1 821 3 view .LVU388
 822:./Drivers/src/stm32f10x_usart.c ****     
 823:./Drivers/src/stm32f10x_usart.c ****   USARTx->CR3 &= CR3_IRLP_Mask;
 1285              		.loc 1 823 3 view .LVU389
 1286              		.loc 1 823 9 is_stmt 0 view .LVU390
 1287 0000 838A     		ldrh	r3, [r0, #20]
 1288 0002 9BB2     		uxth	r3, r3
 1289              		.loc 1 823 15 view .LVU391
 1290 0004 23F00403 		bic	r3, r3, #4
 1291 0008 9BB2     		uxth	r3, r3
 1292 000a 8382     		strh	r3, [r0, #20]	@ movhi
 824:./Drivers/src/stm32f10x_usart.c ****   USARTx->CR3 |= USART_IrDAMode;
ARM GAS  /tmp/ccXaqWhu.s 			page 38


 1293              		.loc 1 824 3 is_stmt 1 view .LVU392
 1294              		.loc 1 824 9 is_stmt 0 view .LVU393
 1295 000c 838A     		ldrh	r3, [r0, #20]
 1296 000e 9BB2     		uxth	r3, r3
 1297              		.loc 1 824 15 view .LVU394
 1298 0010 0B43     		orrs	r3, r3, r1
 1299 0012 8382     		strh	r3, [r0, #20]	@ movhi
 825:./Drivers/src/stm32f10x_usart.c **** }
 1300              		.loc 1 825 1 view .LVU395
 1301 0014 7047     		bx	lr
 1302              		.cfi_endproc
 1303              	.LFE52:
 1305              		.section	.text.USART_IrDACmd,"ax",%progbits
 1306              		.align	1
 1307              		.global	USART_IrDACmd
 1308              		.syntax unified
 1309              		.thumb
 1310              		.thumb_func
 1312              	USART_IrDACmd:
 1313              	.LVL98:
 1314              	.LFB53:
 826:./Drivers/src/stm32f10x_usart.c **** 
 827:./Drivers/src/stm32f10x_usart.c **** /**
 828:./Drivers/src/stm32f10x_usart.c ****   * @brief  Enables or disables the USART's IrDA interface.
 829:./Drivers/src/stm32f10x_usart.c ****   * @param  USARTx: Select the USART or the UART peripheral. 
 830:./Drivers/src/stm32f10x_usart.c ****   *   This parameter can be one of the following values:
 831:./Drivers/src/stm32f10x_usart.c ****   *   USART1, USART2, USART3, UART4 or UART5.
 832:./Drivers/src/stm32f10x_usart.c ****   * @param  NewState: new state of the IrDA mode.
 833:./Drivers/src/stm32f10x_usart.c ****   *   This parameter can be: ENABLE or DISABLE.
 834:./Drivers/src/stm32f10x_usart.c ****   * @retval None
 835:./Drivers/src/stm32f10x_usart.c ****   */
 836:./Drivers/src/stm32f10x_usart.c **** void USART_IrDACmd(USART_TypeDef* USARTx, FunctionalState NewState)
 837:./Drivers/src/stm32f10x_usart.c **** {
 1315              		.loc 1 837 1 is_stmt 1 view -0
 1316              		.cfi_startproc
 1317              		@ args = 0, pretend = 0, frame = 0
 1318              		@ frame_needed = 0, uses_anonymous_args = 0
 1319              		@ link register save eliminated.
 838:./Drivers/src/stm32f10x_usart.c ****   /* Check the parameters */
 839:./Drivers/src/stm32f10x_usart.c ****   assert_param(IS_USART_ALL_PERIPH(USARTx));
 1320              		.loc 1 839 3 view .LVU397
 840:./Drivers/src/stm32f10x_usart.c ****   assert_param(IS_FUNCTIONAL_STATE(NewState));
 1321              		.loc 1 840 3 view .LVU398
 841:./Drivers/src/stm32f10x_usart.c ****     
 842:./Drivers/src/stm32f10x_usart.c ****   if (NewState != DISABLE)
 1322              		.loc 1 842 3 view .LVU399
 1323              		.loc 1 842 6 is_stmt 0 view .LVU400
 1324 0000 29B1     		cbz	r1, .L77
 843:./Drivers/src/stm32f10x_usart.c ****   {
 844:./Drivers/src/stm32f10x_usart.c ****     /* Enable the IrDA mode by setting the IREN bit in the CR3 register */
 845:./Drivers/src/stm32f10x_usart.c ****     USARTx->CR3 |= CR3_IREN_Set;
 1325              		.loc 1 845 5 is_stmt 1 view .LVU401
 1326              		.loc 1 845 11 is_stmt 0 view .LVU402
 1327 0002 838A     		ldrh	r3, [r0, #20]
 1328 0004 9BB2     		uxth	r3, r3
 1329              		.loc 1 845 17 view .LVU403
 1330 0006 43F00203 		orr	r3, r3, #2
ARM GAS  /tmp/ccXaqWhu.s 			page 39


 1331 000a 8382     		strh	r3, [r0, #20]	@ movhi
 1332 000c 7047     		bx	lr
 1333              	.L77:
 846:./Drivers/src/stm32f10x_usart.c ****   }
 847:./Drivers/src/stm32f10x_usart.c ****   else
 848:./Drivers/src/stm32f10x_usart.c ****   {
 849:./Drivers/src/stm32f10x_usart.c ****     /* Disable the IrDA mode by clearing the IREN bit in the CR3 register */
 850:./Drivers/src/stm32f10x_usart.c ****     USARTx->CR3 &= CR3_IREN_Reset;
 1334              		.loc 1 850 5 is_stmt 1 view .LVU404
 1335              		.loc 1 850 11 is_stmt 0 view .LVU405
 1336 000e 838A     		ldrh	r3, [r0, #20]
 1337 0010 9BB2     		uxth	r3, r3
 1338              		.loc 1 850 17 view .LVU406
 1339 0012 23F00203 		bic	r3, r3, #2
 1340 0016 9BB2     		uxth	r3, r3
 1341 0018 8382     		strh	r3, [r0, #20]	@ movhi
 851:./Drivers/src/stm32f10x_usart.c ****   }
 852:./Drivers/src/stm32f10x_usart.c **** }
 1342              		.loc 1 852 1 view .LVU407
 1343 001a 7047     		bx	lr
 1344              		.cfi_endproc
 1345              	.LFE53:
 1347              		.section	.text.USART_GetFlagStatus,"ax",%progbits
 1348              		.align	1
 1349              		.global	USART_GetFlagStatus
 1350              		.syntax unified
 1351              		.thumb
 1352              		.thumb_func
 1354              	USART_GetFlagStatus:
 1355              	.LVL99:
 1356              	.LFB54:
 853:./Drivers/src/stm32f10x_usart.c **** 
 854:./Drivers/src/stm32f10x_usart.c **** /**
 855:./Drivers/src/stm32f10x_usart.c ****   * @brief  Checks whether the specified USART flag is set or not.
 856:./Drivers/src/stm32f10x_usart.c ****   * @param  USARTx: Select the USART or the UART peripheral. 
 857:./Drivers/src/stm32f10x_usart.c ****   *   This parameter can be one of the following values:
 858:./Drivers/src/stm32f10x_usart.c ****   *   USART1, USART2, USART3, UART4 or UART5.
 859:./Drivers/src/stm32f10x_usart.c ****   * @param  USART_FLAG: specifies the flag to check.
 860:./Drivers/src/stm32f10x_usart.c ****   *   This parameter can be one of the following values:
 861:./Drivers/src/stm32f10x_usart.c ****   *     @arg USART_FLAG_CTS:  CTS Change flag (not available for UART4 and UART5)
 862:./Drivers/src/stm32f10x_usart.c ****   *     @arg USART_FLAG_LBD:  LIN Break detection flag
 863:./Drivers/src/stm32f10x_usart.c ****   *     @arg USART_FLAG_TXE:  Transmit data register empty flag
 864:./Drivers/src/stm32f10x_usart.c ****   *     @arg USART_FLAG_TC:   Transmission Complete flag
 865:./Drivers/src/stm32f10x_usart.c ****   *     @arg USART_FLAG_RXNE: Receive data register not empty flag
 866:./Drivers/src/stm32f10x_usart.c ****   *     @arg USART_FLAG_IDLE: Idle Line detection flag
 867:./Drivers/src/stm32f10x_usart.c ****   *     @arg USART_FLAG_ORE:  OverRun Error flag
 868:./Drivers/src/stm32f10x_usart.c ****   *     @arg USART_FLAG_NE:   Noise Error flag
 869:./Drivers/src/stm32f10x_usart.c ****   *     @arg USART_FLAG_FE:   Framing Error flag
 870:./Drivers/src/stm32f10x_usart.c ****   *     @arg USART_FLAG_PE:   Parity Error flag
 871:./Drivers/src/stm32f10x_usart.c ****   * @retval The new state of USART_FLAG (SET or RESET).
 872:./Drivers/src/stm32f10x_usart.c ****   */
 873:./Drivers/src/stm32f10x_usart.c **** FlagStatus USART_GetFlagStatus(USART_TypeDef* USARTx, uint16_t USART_FLAG)
 874:./Drivers/src/stm32f10x_usart.c **** {
 1357              		.loc 1 874 1 is_stmt 1 view -0
 1358              		.cfi_startproc
 1359              		@ args = 0, pretend = 0, frame = 0
 1360              		@ frame_needed = 0, uses_anonymous_args = 0
ARM GAS  /tmp/ccXaqWhu.s 			page 40


 1361              		@ link register save eliminated.
 875:./Drivers/src/stm32f10x_usart.c ****   FlagStatus bitstatus = RESET;
 1362              		.loc 1 875 3 view .LVU409
 876:./Drivers/src/stm32f10x_usart.c ****   /* Check the parameters */
 877:./Drivers/src/stm32f10x_usart.c ****   assert_param(IS_USART_ALL_PERIPH(USARTx));
 1363              		.loc 1 877 3 view .LVU410
 878:./Drivers/src/stm32f10x_usart.c ****   assert_param(IS_USART_FLAG(USART_FLAG));
 1364              		.loc 1 878 3 view .LVU411
 879:./Drivers/src/stm32f10x_usart.c ****   /* The CTS flag is not available for UART4 and UART5 */
 880:./Drivers/src/stm32f10x_usart.c ****   if (USART_FLAG == USART_FLAG_CTS)
 1365              		.loc 1 880 3 view .LVU412
 881:./Drivers/src/stm32f10x_usart.c ****   {
 882:./Drivers/src/stm32f10x_usart.c ****     assert_param(IS_USART_123_PERIPH(USARTx));
 1366              		.loc 1 882 5 view .LVU413
 883:./Drivers/src/stm32f10x_usart.c ****   }  
 884:./Drivers/src/stm32f10x_usart.c ****   
 885:./Drivers/src/stm32f10x_usart.c ****   if ((USARTx->SR & USART_FLAG) != (uint16_t)RESET)
 1367              		.loc 1 885 3 view .LVU414
 1368              		.loc 1 885 14 is_stmt 0 view .LVU415
 1369 0000 0388     		ldrh	r3, [r0]
 1370              		.loc 1 885 6 view .LVU416
 1371 0002 1942     		tst	r1, r3
 1372 0004 01D0     		beq	.L81
 886:./Drivers/src/stm32f10x_usart.c ****   {
 887:./Drivers/src/stm32f10x_usart.c ****     bitstatus = SET;
 1373              		.loc 1 887 15 view .LVU417
 1374 0006 0120     		movs	r0, #1
 1375              	.LVL100:
 1376              		.loc 1 887 15 view .LVU418
 1377 0008 7047     		bx	lr
 1378              	.LVL101:
 1379              	.L81:
 888:./Drivers/src/stm32f10x_usart.c ****   }
 889:./Drivers/src/stm32f10x_usart.c ****   else
 890:./Drivers/src/stm32f10x_usart.c ****   {
 891:./Drivers/src/stm32f10x_usart.c ****     bitstatus = RESET;
 1380              		.loc 1 891 15 view .LVU419
 1381 000a 0020     		movs	r0, #0
 1382              	.LVL102:
 892:./Drivers/src/stm32f10x_usart.c ****   }
 893:./Drivers/src/stm32f10x_usart.c ****   return bitstatus;
 1383              		.loc 1 893 3 is_stmt 1 view .LVU420
 894:./Drivers/src/stm32f10x_usart.c **** }
 1384              		.loc 1 894 1 is_stmt 0 view .LVU421
 1385 000c 7047     		bx	lr
 1386              		.cfi_endproc
 1387              	.LFE54:
 1389              		.section	.text.USART_ClearFlag,"ax",%progbits
 1390              		.align	1
 1391              		.global	USART_ClearFlag
 1392              		.syntax unified
 1393              		.thumb
 1394              		.thumb_func
 1396              	USART_ClearFlag:
 1397              	.LVL103:
 1398              	.LFB55:
 895:./Drivers/src/stm32f10x_usart.c **** 
ARM GAS  /tmp/ccXaqWhu.s 			page 41


 896:./Drivers/src/stm32f10x_usart.c **** /**
 897:./Drivers/src/stm32f10x_usart.c ****   * @brief  Clears the USARTx's pending flags.
 898:./Drivers/src/stm32f10x_usart.c ****   * @param  USARTx: Select the USART or the UART peripheral. 
 899:./Drivers/src/stm32f10x_usart.c ****   *   This parameter can be one of the following values:
 900:./Drivers/src/stm32f10x_usart.c ****   *   USART1, USART2, USART3, UART4 or UART5.
 901:./Drivers/src/stm32f10x_usart.c ****   * @param  USART_FLAG: specifies the flag to clear.
 902:./Drivers/src/stm32f10x_usart.c ****   *   This parameter can be any combination of the following values:
 903:./Drivers/src/stm32f10x_usart.c ****   *     @arg USART_FLAG_CTS:  CTS Change flag (not available for UART4 and UART5).
 904:./Drivers/src/stm32f10x_usart.c ****   *     @arg USART_FLAG_LBD:  LIN Break detection flag.
 905:./Drivers/src/stm32f10x_usart.c ****   *     @arg USART_FLAG_TC:   Transmission Complete flag.
 906:./Drivers/src/stm32f10x_usart.c ****   *     @arg USART_FLAG_RXNE: Receive data register not empty flag.
 907:./Drivers/src/stm32f10x_usart.c ****   *   
 908:./Drivers/src/stm32f10x_usart.c ****   * @note
 909:./Drivers/src/stm32f10x_usart.c ****   *   - PE (Parity error), FE (Framing error), NE (Noise error), ORE (OverRun 
 910:./Drivers/src/stm32f10x_usart.c ****   *     error) and IDLE (Idle line detected) flags are cleared by software 
 911:./Drivers/src/stm32f10x_usart.c ****   *     sequence: a read operation to USART_SR register (USART_GetFlagStatus()) 
 912:./Drivers/src/stm32f10x_usart.c ****   *     followed by a read operation to USART_DR register (USART_ReceiveData()).
 913:./Drivers/src/stm32f10x_usart.c ****   *   - RXNE flag can be also cleared by a read to the USART_DR register 
 914:./Drivers/src/stm32f10x_usart.c ****   *     (USART_ReceiveData()).
 915:./Drivers/src/stm32f10x_usart.c ****   *   - TC flag can be also cleared by software sequence: a read operation to 
 916:./Drivers/src/stm32f10x_usart.c ****   *     USART_SR register (USART_GetFlagStatus()) followed by a write operation
 917:./Drivers/src/stm32f10x_usart.c ****   *     to USART_DR register (USART_SendData()).
 918:./Drivers/src/stm32f10x_usart.c ****   *   - TXE flag is cleared only by a write to the USART_DR register 
 919:./Drivers/src/stm32f10x_usart.c ****   *     (USART_SendData()).
 920:./Drivers/src/stm32f10x_usart.c ****   * @retval None
 921:./Drivers/src/stm32f10x_usart.c ****   */
 922:./Drivers/src/stm32f10x_usart.c **** void USART_ClearFlag(USART_TypeDef* USARTx, uint16_t USART_FLAG)
 923:./Drivers/src/stm32f10x_usart.c **** {
 1399              		.loc 1 923 1 is_stmt 1 view -0
 1400              		.cfi_startproc
 1401              		@ args = 0, pretend = 0, frame = 0
 1402              		@ frame_needed = 0, uses_anonymous_args = 0
 1403              		@ link register save eliminated.
 924:./Drivers/src/stm32f10x_usart.c ****   /* Check the parameters */
 925:./Drivers/src/stm32f10x_usart.c ****   assert_param(IS_USART_ALL_PERIPH(USARTx));
 1404              		.loc 1 925 3 view .LVU423
 926:./Drivers/src/stm32f10x_usart.c ****   assert_param(IS_USART_CLEAR_FLAG(USART_FLAG));
 1405              		.loc 1 926 3 view .LVU424
 927:./Drivers/src/stm32f10x_usart.c ****   /* The CTS flag is not available for UART4 and UART5 */
 928:./Drivers/src/stm32f10x_usart.c ****   if ((USART_FLAG & USART_FLAG_CTS) == USART_FLAG_CTS)
 1406              		.loc 1 928 3 view .LVU425
 929:./Drivers/src/stm32f10x_usart.c ****   {
 930:./Drivers/src/stm32f10x_usart.c ****     assert_param(IS_USART_123_PERIPH(USARTx));
 1407              		.loc 1 930 5 view .LVU426
 931:./Drivers/src/stm32f10x_usart.c ****   } 
 932:./Drivers/src/stm32f10x_usart.c ****    
 933:./Drivers/src/stm32f10x_usart.c ****   USARTx->SR = (uint16_t)~USART_FLAG;
 1408              		.loc 1 933 3 view .LVU427
 1409              		.loc 1 933 16 is_stmt 0 view .LVU428
 1410 0000 C943     		mvns	r1, r1
 1411              	.LVL104:
 1412              		.loc 1 933 16 view .LVU429
 1413 0002 89B2     		uxth	r1, r1
 1414              		.loc 1 933 14 view .LVU430
 1415 0004 0180     		strh	r1, [r0]	@ movhi
 934:./Drivers/src/stm32f10x_usart.c **** }
 1416              		.loc 1 934 1 view .LVU431
ARM GAS  /tmp/ccXaqWhu.s 			page 42


 1417 0006 7047     		bx	lr
 1418              		.cfi_endproc
 1419              	.LFE55:
 1421              		.section	.text.USART_GetITStatus,"ax",%progbits
 1422              		.align	1
 1423              		.global	USART_GetITStatus
 1424              		.syntax unified
 1425              		.thumb
 1426              		.thumb_func
 1428              	USART_GetITStatus:
 1429              	.LVL105:
 1430              	.LFB56:
 935:./Drivers/src/stm32f10x_usart.c **** 
 936:./Drivers/src/stm32f10x_usart.c **** /**
 937:./Drivers/src/stm32f10x_usart.c ****   * @brief  Checks whether the specified USART interrupt has occurred or not.
 938:./Drivers/src/stm32f10x_usart.c ****   * @param  USARTx: Select the USART or the UART peripheral. 
 939:./Drivers/src/stm32f10x_usart.c ****   *   This parameter can be one of the following values:
 940:./Drivers/src/stm32f10x_usart.c ****   *   USART1, USART2, USART3, UART4 or UART5.
 941:./Drivers/src/stm32f10x_usart.c ****   * @param  USART_IT: specifies the USART interrupt source to check.
 942:./Drivers/src/stm32f10x_usart.c ****   *   This parameter can be one of the following values:
 943:./Drivers/src/stm32f10x_usart.c ****   *     @arg USART_IT_CTS:  CTS change interrupt (not available for UART4 and UART5)
 944:./Drivers/src/stm32f10x_usart.c ****   *     @arg USART_IT_LBD:  LIN Break detection interrupt
 945:./Drivers/src/stm32f10x_usart.c ****   *     @arg USART_IT_TXE:  Tansmit Data Register empty interrupt
 946:./Drivers/src/stm32f10x_usart.c ****   *     @arg USART_IT_TC:   Transmission complete interrupt
 947:./Drivers/src/stm32f10x_usart.c ****   *     @arg USART_IT_RXNE: Receive Data register not empty interrupt
 948:./Drivers/src/stm32f10x_usart.c ****   *     @arg USART_IT_IDLE: Idle line detection interrupt
 949:./Drivers/src/stm32f10x_usart.c ****   *     @arg USART_IT_ORE_RX : OverRun Error interrupt if the RXNEIE bit is set
 950:./Drivers/src/stm32f10x_usart.c ****   *     @arg USART_IT_ORE_ER : OverRun Error interrupt if the EIE bit is set 
 951:./Drivers/src/stm32f10x_usart.c ****   *     @arg USART_IT_NE:   Noise Error interrupt
 952:./Drivers/src/stm32f10x_usart.c ****   *     @arg USART_IT_FE:   Framing Error interrupt
 953:./Drivers/src/stm32f10x_usart.c ****   *     @arg USART_IT_PE:   Parity Error interrupt
 954:./Drivers/src/stm32f10x_usart.c ****   * @retval The new state of USART_IT (SET or RESET).
 955:./Drivers/src/stm32f10x_usart.c ****   */
 956:./Drivers/src/stm32f10x_usart.c **** ITStatus USART_GetITStatus(USART_TypeDef* USARTx, uint16_t USART_IT)
 957:./Drivers/src/stm32f10x_usart.c **** {
 1431              		.loc 1 957 1 is_stmt 1 view -0
 1432              		.cfi_startproc
 1433              		@ args = 0, pretend = 0, frame = 0
 1434              		@ frame_needed = 0, uses_anonymous_args = 0
 1435              		@ link register save eliminated.
 958:./Drivers/src/stm32f10x_usart.c ****   uint32_t bitpos = 0x00, itmask = 0x00, usartreg = 0x00;
 1436              		.loc 1 958 3 view .LVU433
 959:./Drivers/src/stm32f10x_usart.c ****   ITStatus bitstatus = RESET;
 1437              		.loc 1 959 3 view .LVU434
 960:./Drivers/src/stm32f10x_usart.c ****   /* Check the parameters */
 961:./Drivers/src/stm32f10x_usart.c ****   assert_param(IS_USART_ALL_PERIPH(USARTx));
 1438              		.loc 1 961 3 view .LVU435
 962:./Drivers/src/stm32f10x_usart.c ****   assert_param(IS_USART_GET_IT(USART_IT));
 1439              		.loc 1 962 3 view .LVU436
 963:./Drivers/src/stm32f10x_usart.c ****   /* The CTS interrupt is not available for UART4 and UART5 */ 
 964:./Drivers/src/stm32f10x_usart.c ****   if (USART_IT == USART_IT_CTS)
 1440              		.loc 1 964 3 view .LVU437
 965:./Drivers/src/stm32f10x_usart.c ****   {
 966:./Drivers/src/stm32f10x_usart.c ****     assert_param(IS_USART_123_PERIPH(USARTx));
 1441              		.loc 1 966 5 view .LVU438
 967:./Drivers/src/stm32f10x_usart.c ****   }   
 968:./Drivers/src/stm32f10x_usart.c ****   
ARM GAS  /tmp/ccXaqWhu.s 			page 43


 969:./Drivers/src/stm32f10x_usart.c ****   /* Get the USART register index */
 970:./Drivers/src/stm32f10x_usart.c ****   usartreg = (((uint8_t)USART_IT) >> 0x05);
 1442              		.loc 1 970 3 view .LVU439
 1443              		.loc 1 970 35 is_stmt 0 view .LVU440
 1444 0000 C1F34212 		ubfx	r2, r1, #5, #3
 1445              	.LVL106:
 971:./Drivers/src/stm32f10x_usart.c ****   /* Get the interrupt position */
 972:./Drivers/src/stm32f10x_usart.c ****   itmask = USART_IT & IT_Mask;
 1446              		.loc 1 972 3 is_stmt 1 view .LVU441
 1447              		.loc 1 972 10 is_stmt 0 view .LVU442
 1448 0004 01F01F0C 		and	ip, r1, #31
 1449              	.LVL107:
 973:./Drivers/src/stm32f10x_usart.c ****   itmask = (uint32_t)0x01 << itmask;
 1450              		.loc 1 973 3 is_stmt 1 view .LVU443
 1451              		.loc 1 973 10 is_stmt 0 view .LVU444
 1452 0008 0123     		movs	r3, #1
 1453 000a 03FA0CF3 		lsl	r3, r3, ip
 1454              	.LVL108:
 974:./Drivers/src/stm32f10x_usart.c ****   
 975:./Drivers/src/stm32f10x_usart.c ****   if (usartreg == 0x01) /* The IT  is in CR1 register */
 1455              		.loc 1 975 3 is_stmt 1 view .LVU445
 1456              		.loc 1 975 6 is_stmt 0 view .LVU446
 1457 000e 012A     		cmp	r2, #1
 1458 0010 0FD0     		beq	.L90
 976:./Drivers/src/stm32f10x_usart.c ****   {
 977:./Drivers/src/stm32f10x_usart.c ****     itmask &= USARTx->CR1;
 978:./Drivers/src/stm32f10x_usart.c ****   }
 979:./Drivers/src/stm32f10x_usart.c ****   else if (usartreg == 0x02) /* The IT  is in CR2 register */
 1459              		.loc 1 979 8 is_stmt 1 view .LVU447
 1460              		.loc 1 979 11 is_stmt 0 view .LVU448
 1461 0012 022A     		cmp	r2, #2
 1462 0014 11D0     		beq	.L91
 980:./Drivers/src/stm32f10x_usart.c ****   {
 981:./Drivers/src/stm32f10x_usart.c ****     itmask &= USARTx->CR2;
 982:./Drivers/src/stm32f10x_usart.c ****   }
 983:./Drivers/src/stm32f10x_usart.c ****   else /* The IT  is in CR3 register */
 984:./Drivers/src/stm32f10x_usart.c ****   {
 985:./Drivers/src/stm32f10x_usart.c ****     itmask &= USARTx->CR3;
 1463              		.loc 1 985 5 is_stmt 1 view .LVU449
 1464              		.loc 1 985 21 is_stmt 0 view .LVU450
 1465 0016 828A     		ldrh	r2, [r0, #20]
 1466              	.LVL109:
 1467              		.loc 1 985 21 view .LVU451
 1468 0018 92B2     		uxth	r2, r2
 1469              		.loc 1 985 12 view .LVU452
 1470 001a 1340     		ands	r3, r3, r2
 1471              	.LVL110:
 1472              	.L85:
 986:./Drivers/src/stm32f10x_usart.c ****   }
 987:./Drivers/src/stm32f10x_usart.c ****   
 988:./Drivers/src/stm32f10x_usart.c ****   bitpos = USART_IT >> 0x08;
 1473              		.loc 1 988 3 is_stmt 1 view .LVU453
 1474              		.loc 1 988 21 is_stmt 0 view .LVU454
 1475 001c 090A     		lsrs	r1, r1, #8
 1476              	.LVL111:
 989:./Drivers/src/stm32f10x_usart.c ****   bitpos = (uint32_t)0x01 << bitpos;
 1477              		.loc 1 989 3 is_stmt 1 view .LVU455
ARM GAS  /tmp/ccXaqWhu.s 			page 44


 1478              		.loc 1 989 10 is_stmt 0 view .LVU456
 1479 001e 0122     		movs	r2, #1
 1480 0020 02FA01F1 		lsl	r1, r2, r1
 1481              	.LVL112:
 990:./Drivers/src/stm32f10x_usart.c ****   bitpos &= USARTx->SR;
 1482              		.loc 1 990 3 is_stmt 1 view .LVU457
 1483              		.loc 1 990 19 is_stmt 0 view .LVU458
 1484 0024 0288     		ldrh	r2, [r0]
 1485 0026 92B2     		uxth	r2, r2
 1486              		.loc 1 990 10 view .LVU459
 1487 0028 0A40     		ands	r2, r2, r1
 1488              	.LVL113:
 991:./Drivers/src/stm32f10x_usart.c ****   if ((itmask != (uint16_t)RESET)&&(bitpos != (uint16_t)RESET))
 1489              		.loc 1 991 3 is_stmt 1 view .LVU460
 1490              		.loc 1 991 6 is_stmt 0 view .LVU461
 1491 002a 53B1     		cbz	r3, .L88
 1492              		.loc 1 991 34 discriminator 1 view .LVU462
 1493 002c 5AB9     		cbnz	r2, .L89
 992:./Drivers/src/stm32f10x_usart.c ****   {
 993:./Drivers/src/stm32f10x_usart.c ****     bitstatus = SET;
 994:./Drivers/src/stm32f10x_usart.c ****   }
 995:./Drivers/src/stm32f10x_usart.c ****   else
 996:./Drivers/src/stm32f10x_usart.c ****   {
 997:./Drivers/src/stm32f10x_usart.c ****     bitstatus = RESET;
 1494              		.loc 1 997 15 view .LVU463
 1495 002e 0020     		movs	r0, #0
 1496              	.LVL114:
 1497              		.loc 1 997 15 view .LVU464
 1498 0030 7047     		bx	lr
 1499              	.LVL115:
 1500              	.L90:
 977:./Drivers/src/stm32f10x_usart.c ****   }
 1501              		.loc 1 977 5 is_stmt 1 view .LVU465
 977:./Drivers/src/stm32f10x_usart.c ****   }
 1502              		.loc 1 977 21 is_stmt 0 view .LVU466
 1503 0032 8289     		ldrh	r2, [r0, #12]
 1504              	.LVL116:
 977:./Drivers/src/stm32f10x_usart.c ****   }
 1505              		.loc 1 977 21 view .LVU467
 1506 0034 92B2     		uxth	r2, r2
 977:./Drivers/src/stm32f10x_usart.c ****   }
 1507              		.loc 1 977 12 view .LVU468
 1508 0036 1340     		ands	r3, r3, r2
 1509              	.LVL117:
 977:./Drivers/src/stm32f10x_usart.c ****   }
 1510              		.loc 1 977 12 view .LVU469
 1511 0038 F0E7     		b	.L85
 1512              	.LVL118:
 1513              	.L91:
 981:./Drivers/src/stm32f10x_usart.c ****   }
 1514              		.loc 1 981 5 is_stmt 1 view .LVU470
 981:./Drivers/src/stm32f10x_usart.c ****   }
 1515              		.loc 1 981 21 is_stmt 0 view .LVU471
 1516 003a 028A     		ldrh	r2, [r0, #16]
 1517              	.LVL119:
 981:./Drivers/src/stm32f10x_usart.c ****   }
 1518              		.loc 1 981 21 view .LVU472
ARM GAS  /tmp/ccXaqWhu.s 			page 45


 1519 003c 92B2     		uxth	r2, r2
 981:./Drivers/src/stm32f10x_usart.c ****   }
 1520              		.loc 1 981 12 view .LVU473
 1521 003e 1340     		ands	r3, r3, r2
 1522              	.LVL120:
 981:./Drivers/src/stm32f10x_usart.c ****   }
 1523              		.loc 1 981 12 view .LVU474
 1524 0040 ECE7     		b	.L85
 1525              	.LVL121:
 1526              	.L88:
 1527              		.loc 1 997 15 view .LVU475
 1528 0042 0020     		movs	r0, #0
 1529              	.LVL122:
 1530              		.loc 1 997 15 view .LVU476
 1531 0044 7047     		bx	lr
 1532              	.LVL123:
 1533              	.L89:
 993:./Drivers/src/stm32f10x_usart.c ****   }
 1534              		.loc 1 993 15 view .LVU477
 1535 0046 0120     		movs	r0, #1
 1536              	.LVL124:
 998:./Drivers/src/stm32f10x_usart.c ****   }
 999:./Drivers/src/stm32f10x_usart.c ****   
1000:./Drivers/src/stm32f10x_usart.c ****   return bitstatus;  
 1537              		.loc 1 1000 3 is_stmt 1 view .LVU478
1001:./Drivers/src/stm32f10x_usart.c **** }
 1538              		.loc 1 1001 1 is_stmt 0 view .LVU479
 1539 0048 7047     		bx	lr
 1540              		.cfi_endproc
 1541              	.LFE56:
 1543              		.section	.text.USART_ClearITPendingBit,"ax",%progbits
 1544              		.align	1
 1545              		.global	USART_ClearITPendingBit
 1546              		.syntax unified
 1547              		.thumb
 1548              		.thumb_func
 1550              	USART_ClearITPendingBit:
 1551              	.LVL125:
 1552              	.LFB57:
1002:./Drivers/src/stm32f10x_usart.c **** 
1003:./Drivers/src/stm32f10x_usart.c **** /**
1004:./Drivers/src/stm32f10x_usart.c ****   * @brief  Clears the USARTx's interrupt pending bits.
1005:./Drivers/src/stm32f10x_usart.c ****   * @param  USARTx: Select the USART or the UART peripheral. 
1006:./Drivers/src/stm32f10x_usart.c ****   *   This parameter can be one of the following values:
1007:./Drivers/src/stm32f10x_usart.c ****   *   USART1, USART2, USART3, UART4 or UART5.
1008:./Drivers/src/stm32f10x_usart.c ****   * @param  USART_IT: specifies the interrupt pending bit to clear.
1009:./Drivers/src/stm32f10x_usart.c ****   *   This parameter can be one of the following values:
1010:./Drivers/src/stm32f10x_usart.c ****   *     @arg USART_IT_CTS:  CTS change interrupt (not available for UART4 and UART5)
1011:./Drivers/src/stm32f10x_usart.c ****   *     @arg USART_IT_LBD:  LIN Break detection interrupt
1012:./Drivers/src/stm32f10x_usart.c ****   *     @arg USART_IT_TC:   Transmission complete interrupt. 
1013:./Drivers/src/stm32f10x_usart.c ****   *     @arg USART_IT_RXNE: Receive Data register not empty interrupt.
1014:./Drivers/src/stm32f10x_usart.c ****   *   
1015:./Drivers/src/stm32f10x_usart.c ****   * @note
1016:./Drivers/src/stm32f10x_usart.c ****   *   - PE (Parity error), FE (Framing error), NE (Noise error), ORE (OverRun 
1017:./Drivers/src/stm32f10x_usart.c ****   *     error) and IDLE (Idle line detected) pending bits are cleared by 
1018:./Drivers/src/stm32f10x_usart.c ****   *     software sequence: a read operation to USART_SR register 
1019:./Drivers/src/stm32f10x_usart.c ****   *     (USART_GetITStatus()) followed by a read operation to USART_DR register 
ARM GAS  /tmp/ccXaqWhu.s 			page 46


1020:./Drivers/src/stm32f10x_usart.c ****   *     (USART_ReceiveData()).
1021:./Drivers/src/stm32f10x_usart.c ****   *   - RXNE pending bit can be also cleared by a read to the USART_DR register 
1022:./Drivers/src/stm32f10x_usart.c ****   *     (USART_ReceiveData()).
1023:./Drivers/src/stm32f10x_usart.c ****   *   - TC pending bit can be also cleared by software sequence: a read 
1024:./Drivers/src/stm32f10x_usart.c ****   *     operation to USART_SR register (USART_GetITStatus()) followed by a write 
1025:./Drivers/src/stm32f10x_usart.c ****   *     operation to USART_DR register (USART_SendData()).
1026:./Drivers/src/stm32f10x_usart.c ****   *   - TXE pending bit is cleared only by a write to the USART_DR register 
1027:./Drivers/src/stm32f10x_usart.c ****   *     (USART_SendData()).
1028:./Drivers/src/stm32f10x_usart.c ****   * @retval None
1029:./Drivers/src/stm32f10x_usart.c ****   */
1030:./Drivers/src/stm32f10x_usart.c **** void USART_ClearITPendingBit(USART_TypeDef* USARTx, uint16_t USART_IT)
1031:./Drivers/src/stm32f10x_usart.c **** {
 1553              		.loc 1 1031 1 is_stmt 1 view -0
 1554              		.cfi_startproc
 1555              		@ args = 0, pretend = 0, frame = 0
 1556              		@ frame_needed = 0, uses_anonymous_args = 0
 1557              		@ link register save eliminated.
1032:./Drivers/src/stm32f10x_usart.c ****   uint16_t bitpos = 0x00, itmask = 0x00;
 1558              		.loc 1 1032 3 view .LVU481
1033:./Drivers/src/stm32f10x_usart.c ****   /* Check the parameters */
1034:./Drivers/src/stm32f10x_usart.c ****   assert_param(IS_USART_ALL_PERIPH(USARTx));
 1559              		.loc 1 1034 3 view .LVU482
1035:./Drivers/src/stm32f10x_usart.c ****   assert_param(IS_USART_CLEAR_IT(USART_IT));
 1560              		.loc 1 1035 3 view .LVU483
1036:./Drivers/src/stm32f10x_usart.c ****   /* The CTS interrupt is not available for UART4 and UART5 */
1037:./Drivers/src/stm32f10x_usart.c ****   if (USART_IT == USART_IT_CTS)
 1561              		.loc 1 1037 3 view .LVU484
1038:./Drivers/src/stm32f10x_usart.c ****   {
1039:./Drivers/src/stm32f10x_usart.c ****     assert_param(IS_USART_123_PERIPH(USARTx));
 1562              		.loc 1 1039 5 view .LVU485
1040:./Drivers/src/stm32f10x_usart.c ****   }   
1041:./Drivers/src/stm32f10x_usart.c ****   
1042:./Drivers/src/stm32f10x_usart.c ****   bitpos = USART_IT >> 0x08;
 1563              		.loc 1 1042 3 view .LVU486
 1564              		.loc 1 1042 10 is_stmt 0 view .LVU487
 1565 0000 090A     		lsrs	r1, r1, #8
 1566              	.LVL126:
1043:./Drivers/src/stm32f10x_usart.c ****   itmask = ((uint16_t)0x01 << (uint16_t)bitpos);
 1567              		.loc 1 1043 3 is_stmt 1 view .LVU488
 1568              		.loc 1 1043 28 is_stmt 0 view .LVU489
 1569 0002 0123     		movs	r3, #1
 1570 0004 8B40     		lsls	r3, r3, r1
 1571              		.loc 1 1043 10 view .LVU490
 1572 0006 9BB2     		uxth	r3, r3
 1573              	.LVL127:
1044:./Drivers/src/stm32f10x_usart.c ****   USARTx->SR = (uint16_t)~itmask;
 1574              		.loc 1 1044 3 is_stmt 1 view .LVU491
 1575              		.loc 1 1044 16 is_stmt 0 view .LVU492
 1576 0008 DB43     		mvns	r3, r3
 1577              	.LVL128:
 1578              		.loc 1 1044 16 view .LVU493
 1579 000a 9BB2     		uxth	r3, r3
 1580              	.LVL129:
 1581              		.loc 1 1044 14 view .LVU494
 1582 000c 0380     		strh	r3, [r0]	@ movhi
1045:./Drivers/src/stm32f10x_usart.c **** }
 1583              		.loc 1 1045 1 view .LVU495
ARM GAS  /tmp/ccXaqWhu.s 			page 47


 1584 000e 7047     		bx	lr
 1585              		.cfi_endproc
 1586              	.LFE57:
 1588              		.text
 1589              	.Letext0:
 1590              		.file 2 "/usr/lib/gcc/arm-none-eabi/12.2.1/include/stdint.h"
 1591              		.file 3 "cmsis/stm32f10x.h"
 1592              		.file 4 "Drivers/inc/stm32f10x_rcc.h"
 1593              		.file 5 "Drivers/inc/stm32f10x_usart.h"
ARM GAS  /tmp/ccXaqWhu.s 			page 48

